ARM GAS  C:\Users\jdrd3\AppData\Local\Temp\cc1weASj.s 			page 1


   1              		.syntax unified
   2              		.cpu cortex-m3
   3              		.fpu softvfp
   4              		.eabi_attribute 20, 1
   5              		.eabi_attribute 21, 1
   6              		.eabi_attribute 23, 3
   7              		.eabi_attribute 24, 1
   8              		.eabi_attribute 25, 1
   9              		.eabi_attribute 26, 1
  10              		.eabi_attribute 30, 1
  11              		.eabi_attribute 34, 1
  12              		.eabi_attribute 18, 4
  13              		.thumb
  14              		.syntax unified
  15              		.file	"main.c"
  16              		.text
  17              	.Ltext0:
  18              		.cfi_sections	.debug_frame
  19              		.section	.text.main,"ax",%progbits
  20              		.align	2
  21              		.global	main
  22              		.thumb
  23              		.thumb_func
  24              		.type	main, %function
  25              	main:
  26              	.LFB63:
  27              		.file 1 "main.c"
   1:main.c        **** /* ========================================
   2:main.c        ****  *
   3:main.c        ****  * Copyright YOUR COMPANY, THE YEAR
   4:main.c        ****  * All Rights Reserved
   5:main.c        ****  * UNPUBLISHED, LICENSED SOFTWARE.
   6:main.c        ****  *
   7:main.c        ****  * CONFIDENTIAL AND PROPRIETARY INFORMATION
   8:main.c        ****  * WHICH IS THE PROPERTY OF your company.
   9:main.c        ****  *
  10:main.c        ****  * ========================================
  11:main.c        **** */
  12:main.c        **** #include <project.h>
  13:main.c        **** #include <stdlib.h>
  14:main.c        **** 
  15:main.c        **** #include "ssd1306.h"
  16:main.c        **** 
  17:main.c        **** #define DISPLAY_ADDRESS 0x3C // 011110+SA0+RW - 0x3C or 0x3D
  18:main.c        **** 
  19:main.c        **** int main(){
  28              		.loc 1 19 0
  29              		.cfi_startproc
  30              		@ args = 0, pretend = 0, frame = 0
  31              		@ frame_needed = 0, uses_anonymous_args = 0
  32 0000 2DE9F047 		push	{r4, r5, r6, r7, r8, r9, r10, lr}
  33              		.cfi_def_cfa_offset 32
  34              		.cfi_offset 4, -32
  35              		.cfi_offset 5, -28
  36              		.cfi_offset 6, -24
  37              		.cfi_offset 7, -20
  38              		.cfi_offset 8, -16
ARM GAS  C:\Users\jdrd3\AppData\Local\Temp\cc1weASj.s 			page 2


  39              		.cfi_offset 9, -12
  40              		.cfi_offset 10, -8
  41              		.cfi_offset 14, -4
  42 0004 84B0     		sub	sp, sp, #16
  43              		.cfi_def_cfa_offset 48
  20:main.c        **** 
  21:main.c        ****    I2COLED_Start();
  44              		.loc 1 21 0
  45 0006 FFF7FEFF 		bl	I2COLED_Start
  46              	.LVL0:
  22:main.c        **** 
  23:main.c        ****     CyGlobalIntEnable;
  47              		.loc 1 23 0
  48              		.syntax unified
  49              	@ 23 "main.c" 1
  50 000a 62B6     		CPSIE   i
  51              	@ 0 "" 2
  24:main.c        **** 
  25:main.c        ****     display_init(DISPLAY_ADDRESS);
  52              		.loc 1 25 0
  53              		.thumb
  54              		.syntax unified
  55 000c 3C20     		movs	r0, #60
  56 000e FFF7FEFF 		bl	display_init
  57              	.LVL1:
  58              	.L31:
  59              	.LBB2:
  26:main.c        **** 
  27:main.c        ****     
  28:main.c        ****     for(;;){
  29:main.c        **** 
  30:main.c        ****        // clearing display
  31:main.c        ****         display_clear();    
  60              		.loc 1 31 0
  61 0012 FFF7FEFF 		bl	display_clear
  62              	.LVL2:
  32:main.c        ****         display_update();    
  63              		.loc 1 32 0
  64 0016 FFF7FEFF 		bl	display_update
  65              	.LVL3:
  33:main.c        **** 
  34:main.c        **** 
  35:main.c        ****         // drawing a pixel
  36:main.c        ****         gfx_drawPixel(10, 10, WHITE);    
  66              		.loc 1 36 0
  67 001a 0122     		movs	r2, #1
  68 001c 0A21     		movs	r1, #10
  69 001e 0846     		mov	r0, r1
  70 0020 FFF7FEFF 		bl	gfx_drawPixel
  71              	.LVL4:
  37:main.c        ****         display_update(); 
  72              		.loc 1 37 0
  73 0024 FFF7FEFF 		bl	display_update
  74              	.LVL5:
  38:main.c        **** 
  39:main.c        ****         CyDelay(500);
  75              		.loc 1 39 0
ARM GAS  C:\Users\jdrd3\AppData\Local\Temp\cc1weASj.s 			page 3


  76 0028 4FF4FA70 		mov	r0, #500
  77 002c FFF7FEFF 		bl	CyDelay
  78              	.LVL6:
  40:main.c        ****        display_clear();    
  79              		.loc 1 40 0
  80 0030 FFF7FEFF 		bl	display_clear
  81              	.LVL7:
  41:main.c        ****         display_update();    
  82              		.loc 1 41 0
  83 0034 FFF7FEFF 		bl	display_update
  84              	.LVL8:
  42:main.c        **** 
  43:main.c        ****         
  44:main.c        ****         // line drawing
  45:main.c        ****         int16_t i = 0;
  46:main.c        ****         for( i = 0 ; i < gfx_width(); i+=4) {
  85              		.loc 1 46 0
  86 0038 0024     		movs	r4, #0
  87 003a 0EE0     		b	.L2
  88              	.LVL9:
  89              	.L3:
  47:main.c        ****             gfx_drawLine(0, 0, i, gfx_height()-1, WHITE);
  90              		.loc 1 47 0 discriminator 3
  91 003c FFF7FEFF 		bl	gfx_height
  92              	.LVL10:
  93 0040 431E     		subs	r3, r0, #1
  94 0042 0122     		movs	r2, #1
  95 0044 0092     		str	r2, [sp]
  96 0046 1BB2     		sxth	r3, r3
  97 0048 2246     		mov	r2, r4
  98 004a 0021     		movs	r1, #0
  99 004c 0846     		mov	r0, r1
 100 004e FFF7FEFF 		bl	gfx_drawLine
 101              	.LVL11:
  48:main.c        ****             display_update();
 102              		.loc 1 48 0 discriminator 3
 103 0052 FFF7FEFF 		bl	display_update
 104              	.LVL12:
  46:main.c        ****             gfx_drawLine(0, 0, i, gfx_height()-1, WHITE);
 105              		.loc 1 46 0 discriminator 3
 106 0056 0434     		adds	r4, r4, #4
 107              	.LVL13:
 108 0058 24B2     		sxth	r4, r4
 109              	.LVL14:
 110              	.L2:
  46:main.c        ****             gfx_drawLine(0, 0, i, gfx_height()-1, WHITE);
 111              		.loc 1 46 0 is_stmt 0 discriminator 1
 112 005a FFF7FEFF 		bl	gfx_width
 113              	.LVL15:
 114 005e 8442     		cmp	r4, r0
 115 0060 ECDB     		blt	.L3
 116 0062 0024     		movs	r4, #0
 117              	.LVL16:
 118 0064 0EE0     		b	.L4
 119              	.LVL17:
 120              	.L5:
  49:main.c        ****         }
ARM GAS  C:\Users\jdrd3\AppData\Local\Temp\cc1weASj.s 			page 4


  50:main.c        ****         for( i = 0 ; i < gfx_height() ; i += 4 ){
  51:main.c        ****             gfx_drawLine(0, 0, gfx_width()-1, i, WHITE);
 121              		.loc 1 51 0 is_stmt 1 discriminator 3
 122 0066 FFF7FEFF 		bl	gfx_width
 123              	.LVL18:
 124 006a 421E     		subs	r2, r0, #1
 125 006c 0123     		movs	r3, #1
 126 006e 0093     		str	r3, [sp]
 127 0070 2346     		mov	r3, r4
 128 0072 12B2     		sxth	r2, r2
 129 0074 0021     		movs	r1, #0
 130 0076 0846     		mov	r0, r1
 131 0078 FFF7FEFF 		bl	gfx_drawLine
 132              	.LVL19:
  52:main.c        ****             display_update();
 133              		.loc 1 52 0 discriminator 3
 134 007c FFF7FEFF 		bl	display_update
 135              	.LVL20:
  50:main.c        ****             gfx_drawLine(0, 0, gfx_width()-1, i, WHITE);
 136              		.loc 1 50 0 discriminator 3
 137 0080 0434     		adds	r4, r4, #4
 138              	.LVL21:
 139 0082 24B2     		sxth	r4, r4
 140              	.LVL22:
 141              	.L4:
  50:main.c        ****             gfx_drawLine(0, 0, gfx_width()-1, i, WHITE);
 142              		.loc 1 50 0 is_stmt 0 discriminator 1
 143 0084 FFF7FEFF 		bl	gfx_height
 144              	.LVL23:
 145 0088 8442     		cmp	r4, r0
 146 008a ECDB     		blt	.L5
  53:main.c        ****         }    
  54:main.c        ****      
  55:main.c        ****         CyDelay(3000);
 147              		.loc 1 55 0 is_stmt 1
 148 008c 40F6B830 		movw	r0, #3000
 149 0090 FFF7FEFF 		bl	CyDelay
 150              	.LVL24:
  56:main.c        ****         display_clear();    
 151              		.loc 1 56 0
 152 0094 FFF7FEFF 		bl	display_clear
 153              	.LVL25:
  57:main.c        ****         display_update();    
 154              		.loc 1 57 0
 155 0098 FFF7FEFF 		bl	display_update
 156              	.LVL26:
  58:main.c        **** 
  59:main.c        ****         // text settings
  60:main.c        ****         gfx_setTextSize(1);
 157              		.loc 1 60 0
 158 009c 0120     		movs	r0, #1
 159 009e FFF7FEFF 		bl	gfx_setTextSize
 160              	.LVL27:
  61:main.c        ****         gfx_setTextColor(WHITE);
 161              		.loc 1 61 0
 162 00a2 0120     		movs	r0, #1
 163 00a4 FFF7FEFF 		bl	gfx_setTextColor
ARM GAS  C:\Users\jdrd3\AppData\Local\Temp\cc1weASj.s 			page 5


 164              	.LVL28:
  62:main.c        ****         gfx_setCursor(0,0);
 165              		.loc 1 62 0
 166 00a8 0021     		movs	r1, #0
 167 00aa 0846     		mov	r0, r1
 168 00ac FFF7FEFF 		bl	gfx_setCursor
 169              	.LVL29:
  63:main.c        **** 
  64:main.c        ****         // text display
  65:main.c        ****         for( i = 0 ; i < 168 ; i++){
 170              		.loc 1 65 0
 171 00b0 0024     		movs	r4, #0
 172 00b2 06E0     		b	.L6
 173              	.LVL30:
 174              	.L8:
  66:main.c        ****             if( i == '\n' ) 
 175              		.loc 1 66 0
 176 00b4 0A2C     		cmp	r4, #10
 177 00b6 02D0     		beq	.L7
  67:main.c        ****                 continue;
  68:main.c        ****             gfx_write(i);
 178              		.loc 1 68 0
 179 00b8 E0B2     		uxtb	r0, r4
 180 00ba FFF7FEFF 		bl	gfx_write
 181              	.LVL31:
 182              	.L7:
  65:main.c        ****             if( i == '\n' ) 
 183              		.loc 1 65 0 discriminator 2
 184 00be 0134     		adds	r4, r4, #1
 185              	.LVL32:
 186 00c0 24B2     		sxth	r4, r4
 187              	.LVL33:
 188              	.L6:
  65:main.c        ****             if( i == '\n' ) 
 189              		.loc 1 65 0 is_stmt 0 discriminator 1
 190 00c2 A72C     		cmp	r4, #167
 191 00c4 F6DD     		ble	.L8
  69:main.c        ****           }    
  70:main.c        ****         display_update(); 
 192              		.loc 1 70 0 is_stmt 1
 193 00c6 FFF7FEFF 		bl	display_update
 194              	.LVL34:
  71:main.c        ****         
  72:main.c        ****         CyDelay(3000);
 195              		.loc 1 72 0
 196 00ca 40F6B830 		movw	r0, #3000
 197 00ce FFF7FEFF 		bl	CyDelay
 198              	.LVL35:
  73:main.c        ****         display_clear();    
 199              		.loc 1 73 0
 200 00d2 FFF7FEFF 		bl	display_clear
 201              	.LVL36:
  74:main.c        ****         display_update();    
 202              		.loc 1 74 0
 203 00d6 FFF7FEFF 		bl	display_update
 204              	.LVL37:
  75:main.c        ****         
ARM GAS  C:\Users\jdrd3\AppData\Local\Temp\cc1weASj.s 			page 6


  76:main.c        ****         // cursor
  77:main.c        ****         gfx_setCursor( 0, 0 );
 205              		.loc 1 77 0
 206 00da 0021     		movs	r1, #0
 207 00dc 0846     		mov	r0, r1
 208 00de FFF7FEFF 		bl	gfx_setCursor
 209              	.LVL38:
  78:main.c        ****         
  79:main.c        ****         // text sizes
  80:main.c        ****         gfx_setTextSize(2);
 210              		.loc 1 80 0
 211 00e2 0220     		movs	r0, #2
 212 00e4 FFF7FEFF 		bl	gfx_setTextSize
 213              	.LVL39:
  81:main.c        ****         gfx_write( '8' );
 214              		.loc 1 81 0
 215 00e8 3820     		movs	r0, #56
 216 00ea FFF7FEFF 		bl	gfx_write
 217              	.LVL40:
  82:main.c        ****         gfx_setTextSize(3);
 218              		.loc 1 82 0
 219 00ee 0320     		movs	r0, #3
 220 00f0 FFF7FEFF 		bl	gfx_setTextSize
 221              	.LVL41:
  83:main.c        ****         gfx_write( '8' );
 222              		.loc 1 83 0
 223 00f4 3820     		movs	r0, #56
 224 00f6 FFF7FEFF 		bl	gfx_write
 225              	.LVL42:
  84:main.c        ****         gfx_setTextSize(4);
 226              		.loc 1 84 0
 227 00fa 0420     		movs	r0, #4
 228 00fc FFF7FEFF 		bl	gfx_setTextSize
 229              	.LVL43:
  85:main.c        ****         gfx_write( '8' );
 230              		.loc 1 85 0
 231 0100 3820     		movs	r0, #56
 232 0102 FFF7FEFF 		bl	gfx_write
 233              	.LVL44:
  86:main.c        ****         display_update(); 
 234              		.loc 1 86 0
 235 0106 FFF7FEFF 		bl	display_update
 236              	.LVL45:
  87:main.c        ****         
  88:main.c        ****         CyDelay(3000);
 237              		.loc 1 88 0
 238 010a 40F6B830 		movw	r0, #3000
 239 010e FFF7FEFF 		bl	CyDelay
 240              	.LVL46:
  89:main.c        ****         display_clear();    
 241              		.loc 1 89 0
 242 0112 FFF7FEFF 		bl	display_clear
 243              	.LVL47:
  90:main.c        ****         display_update();    
 244              		.loc 1 90 0
 245 0116 FFF7FEFF 		bl	display_update
 246              	.LVL48:
ARM GAS  C:\Users\jdrd3\AppData\Local\Temp\cc1weASj.s 			page 7


  91:main.c        **** 
  92:main.c        ****         // line printing
  93:main.c        ****         gfx_setTextSize(1);
 247              		.loc 1 93 0
 248 011a 0120     		movs	r0, #1
 249 011c FFF7FEFF 		bl	gfx_setTextSize
 250              	.LVL49:
  94:main.c        ****         gfx_setTextColor(WHITE);
 251              		.loc 1 94 0
 252 0120 0120     		movs	r0, #1
 253 0122 FFF7FEFF 		bl	gfx_setTextColor
 254              	.LVL50:
  95:main.c        ****         gfx_setCursor(0,0);
 255              		.loc 1 95 0
 256 0126 0021     		movs	r1, #0
 257 0128 0846     		mov	r0, r1
 258 012a FFF7FEFF 		bl	gfx_setCursor
 259              	.LVL51:
  96:main.c        ****         gfx_println("HOLA PERROS ...");
 260              		.loc 1 96 0
 261 012e D148     		ldr	r0, .L33
 262 0130 FFF7FEFF 		bl	gfx_println
 263              	.LVL52:
  97:main.c        ****         gfx_println("YA ESCRIBE LA PSOC :V ...");
 264              		.loc 1 97 0
 265 0134 D048     		ldr	r0, .L33+4
 266 0136 FFF7FEFF 		bl	gfx_println
 267              	.LVL53:
  98:main.c        ****         display_update();    
 268              		.loc 1 98 0
 269 013a FFF7FEFF 		bl	display_update
 270              	.LVL54:
  99:main.c        **** 
 100:main.c        ****         CyDelay(3000);
 271              		.loc 1 100 0
 272 013e 40F6B830 		movw	r0, #3000
 273 0142 FFF7FEFF 		bl	CyDelay
 274              	.LVL55:
 101:main.c        ****         display_clear();    
 275              		.loc 1 101 0
 276 0146 FFF7FEFF 		bl	display_clear
 277              	.LVL56:
 102:main.c        ****         display_update();    
 278              		.loc 1 102 0
 279 014a FFF7FEFF 		bl	display_update
 280              	.LVL57:
 103:main.c        **** 
 104:main.c        ****         
 105:main.c        ****         // scrolling
 106:main.c        ****         gfx_setTextSize(1);
 281              		.loc 1 106 0
 282 014e 0120     		movs	r0, #1
 283 0150 FFF7FEFF 		bl	gfx_setTextSize
 284              	.LVL58:
 107:main.c        ****         gfx_setTextColor(WHITE);
 285              		.loc 1 107 0
 286 0154 0120     		movs	r0, #1
ARM GAS  C:\Users\jdrd3\AppData\Local\Temp\cc1weASj.s 			page 8


 287 0156 FFF7FEFF 		bl	gfx_setTextColor
 288              	.LVL59:
 108:main.c        ****         gfx_setCursor(0,0);
 289              		.loc 1 108 0
 290 015a 0021     		movs	r1, #0
 291 015c 0846     		mov	r0, r1
 292 015e FFF7FEFF 		bl	gfx_setCursor
 293              	.LVL60:
 109:main.c        **** 
 110:main.c        ****         for( i = 1 ; i < 16 ; i++ ){
 294              		.loc 1 110 0
 295 0162 0124     		movs	r4, #1
 296 0164 04E0     		b	.L9
 297              	.LVL61:
 298              	.L10:
 111:main.c        ****             gfx_println("scroll");
 299              		.loc 1 111 0 discriminator 3
 300 0166 C548     		ldr	r0, .L33+8
 301 0168 FFF7FEFF 		bl	gfx_println
 302              	.LVL62:
 110:main.c        ****             gfx_println("scroll");
 303              		.loc 1 110 0 discriminator 3
 304 016c 0134     		adds	r4, r4, #1
 305              	.LVL63:
 306 016e 24B2     		sxth	r4, r4
 307              	.LVL64:
 308              	.L9:
 110:main.c        ****             gfx_println("scroll");
 309              		.loc 1 110 0 is_stmt 0 discriminator 1
 310 0170 0F2C     		cmp	r4, #15
 311 0172 F8DD     		ble	.L10
 112:main.c        ****         
 113:main.c        ****         }
 114:main.c        ****         display_update();    
 312              		.loc 1 114 0 is_stmt 1
 313 0174 FFF7FEFF 		bl	display_update
 314              	.LVL65:
 115:main.c        ****         
 116:main.c        ****         
 117:main.c        ****         
 118:main.c        ****         display_scroll(SCROLL_PAGE_0,SCROLL_PAGE_7,SCROLL_RIGHT,SCROLL_SPEED_7);
 315              		.loc 1 118 0
 316 0178 0723     		movs	r3, #7
 317 017a 2622     		movs	r2, #38
 318 017c 1946     		mov	r1, r3
 319 017e 0020     		movs	r0, #0
 320 0180 FFF7FEFF 		bl	display_scroll
 321              	.LVL66:
 119:main.c        ****         CyDelay(2000);
 322              		.loc 1 119 0
 323 0184 4FF4FA60 		mov	r0, #2000
 324 0188 FFF7FEFF 		bl	CyDelay
 325              	.LVL67:
 120:main.c        ****         display_stopscroll();
 326              		.loc 1 120 0
 327 018c FFF7FEFF 		bl	display_stopscroll
 328              	.LVL68:
ARM GAS  C:\Users\jdrd3\AppData\Local\Temp\cc1weASj.s 			page 9


 121:main.c        ****         display_scroll(SCROLL_PAGE_2,SCROLL_PAGE_4,SCROLL_LEFT,SCROLL_SPEED_3);
 329              		.loc 1 121 0
 330 0190 0623     		movs	r3, #6
 331 0192 2A22     		movs	r2, #42
 332 0194 0421     		movs	r1, #4
 333 0196 0220     		movs	r0, #2
 334 0198 FFF7FEFF 		bl	display_scroll
 335              	.LVL69:
 122:main.c        ****         CyDelay(2000);
 336              		.loc 1 122 0
 337 019c 4FF4FA60 		mov	r0, #2000
 338 01a0 FFF7FEFF 		bl	CyDelay
 339              	.LVL70:
 123:main.c        ****         display_stopscroll();
 340              		.loc 1 123 0
 341 01a4 FFF7FEFF 		bl	display_stopscroll
 342              	.LVL71:
 124:main.c        ****         
 125:main.c        ****         
 126:main.c        **** 
 127:main.c        ****         CyDelay(3000);
 343              		.loc 1 127 0
 344 01a8 40F6B830 		movw	r0, #3000
 345 01ac FFF7FEFF 		bl	CyDelay
 346              	.LVL72:
 128:main.c        ****         display_clear();    
 347              		.loc 1 128 0
 348 01b0 FFF7FEFF 		bl	display_clear
 349              	.LVL73:
 129:main.c        ****         display_update();    
 350              		.loc 1 129 0
 351 01b4 FFF7FEFF 		bl	display_update
 352              	.LVL74:
 130:main.c        ****         
 131:main.c        ****         
 132:main.c        ****         // rectangles
 133:main.c        ****         for( i = 0 ; i < gfx_height()/2 ; i += 2 ){
 353              		.loc 1 133 0
 354 01b8 0024     		movs	r4, #0
 355 01ba 15E0     		b	.L11
 356              	.LVL75:
 357              	.L12:
 134:main.c        ****             gfx_drawRect(i, i, gfx_width()-2*i, gfx_height()-2*i, WHITE);
 358              		.loc 1 134 0 discriminator 3
 359 01bc FFF7FEFF 		bl	gfx_width
 360              	.LVL76:
 361 01c0 0746     		mov	r7, r0
 362 01c2 A5B2     		uxth	r5, r4
 363 01c4 6E00     		lsls	r6, r5, #1
 364 01c6 B6B2     		uxth	r6, r6
 365 01c8 FFF7FEFF 		bl	gfx_height
 366              	.LVL77:
 367 01cc 831B     		subs	r3, r0, r6
 368 01ce BA1B     		subs	r2, r7, r6
 369 01d0 0121     		movs	r1, #1
 370 01d2 0091     		str	r1, [sp]
 371 01d4 1BB2     		sxth	r3, r3
ARM GAS  C:\Users\jdrd3\AppData\Local\Temp\cc1weASj.s 			page 10


 372 01d6 12B2     		sxth	r2, r2
 373 01d8 2146     		mov	r1, r4
 374 01da 2046     		mov	r0, r4
 375 01dc FFF7FEFF 		bl	gfx_drawRect
 376              	.LVL78:
 135:main.c        ****             display_update();   
 377              		.loc 1 135 0 discriminator 3
 378 01e0 FFF7FEFF 		bl	display_update
 379              	.LVL79:
 133:main.c        ****             gfx_drawRect(i, i, gfx_width()-2*i, gfx_height()-2*i, WHITE);
 380              		.loc 1 133 0 discriminator 3
 381 01e4 AC1C     		adds	r4, r5, #2
 382              	.LVL80:
 383 01e6 24B2     		sxth	r4, r4
 384              	.LVL81:
 385              	.L11:
 133:main.c        ****             gfx_drawRect(i, i, gfx_width()-2*i, gfx_height()-2*i, WHITE);
 386              		.loc 1 133 0 is_stmt 0 discriminator 1
 387 01e8 FFF7FEFF 		bl	gfx_height
 388              	.LVL82:
 389 01ec 00EBD070 		add	r0, r0, r0, lsr #31
 390 01f0 40F34F00 		sbfx	r0, r0, #1, #16
 391 01f4 8442     		cmp	r4, r0
 392 01f6 E1DB     		blt	.L12
 136:main.c        ****         }
 137:main.c        ****         
 138:main.c        ****         CyDelay(3000);
 393              		.loc 1 138 0 is_stmt 1
 394 01f8 40F6B830 		movw	r0, #3000
 395 01fc FFF7FEFF 		bl	CyDelay
 396              	.LVL83:
 139:main.c        ****         display_clear();    
 397              		.loc 1 139 0
 398 0200 FFF7FEFF 		bl	display_clear
 399              	.LVL84:
 140:main.c        ****         display_update();    
 400              		.loc 1 140 0
 401 0204 FFF7FEFF 		bl	display_update
 402              	.LVL85:
 141:main.c        **** 
 142:main.c        ****         // filled rectangles
 143:main.c        ****         uint8_t color = 1;
 403              		.loc 1 143 0
 404 0208 0125     		movs	r5, #1
 144:main.c        ****         for( i = 0 ; i < gfx_height()/2 ; i += 3 ){
 405              		.loc 1 144 0
 406 020a 0024     		movs	r4, #0
 407 020c 19E0     		b	.L13
 408              	.LVL86:
 409              	.L14:
 145:main.c        ****             // alternate colors
 146:main.c        ****             gfx_fillRect(i, i, gfx_width()-i*2, gfx_height()-i*2, color%2);
 410              		.loc 1 146 0 discriminator 3
 411 020e FFF7FEFF 		bl	gfx_width
 412              	.LVL87:
 413 0212 8046     		mov	r8, r0
 414 0214 A6B2     		uxth	r6, r4
ARM GAS  C:\Users\jdrd3\AppData\Local\Temp\cc1weASj.s 			page 11


 415 0216 7700     		lsls	r7, r6, #1
 416 0218 BFB2     		uxth	r7, r7
 417 021a FFF7FEFF 		bl	gfx_height
 418              	.LVL88:
 419 021e C31B     		subs	r3, r0, r7
 420 0220 C7EB0802 		rsb	r2, r7, r8
 421 0224 05F00101 		and	r1, r5, #1
 422 0228 0091     		str	r1, [sp]
 423 022a 1BB2     		sxth	r3, r3
 424 022c 12B2     		sxth	r2, r2
 425 022e 2146     		mov	r1, r4
 426 0230 2046     		mov	r0, r4
 427 0232 FFF7FEFF 		bl	gfx_fillRect
 428              	.LVL89:
 147:main.c        ****             display_update();    
 429              		.loc 1 147 0 discriminator 3
 430 0236 FFF7FEFF 		bl	display_update
 431              	.LVL90:
 148:main.c        ****             color++;
 432              		.loc 1 148 0 discriminator 3
 433 023a 0135     		adds	r5, r5, #1
 434              	.LVL91:
 435 023c EDB2     		uxtb	r5, r5
 436              	.LVL92:
 144:main.c        ****             // alternate colors
 437              		.loc 1 144 0 discriminator 3
 438 023e F41C     		adds	r4, r6, #3
 439              	.LVL93:
 440 0240 24B2     		sxth	r4, r4
 441              	.LVL94:
 442              	.L13:
 144:main.c        ****             // alternate colors
 443              		.loc 1 144 0 is_stmt 0 discriminator 1
 444 0242 FFF7FEFF 		bl	gfx_height
 445              	.LVL95:
 446 0246 00EBD070 		add	r0, r0, r0, lsr #31
 447 024a 40F34F00 		sbfx	r0, r0, #1, #16
 448 024e 8442     		cmp	r4, r0
 449 0250 DDDB     		blt	.L14
 149:main.c        ****         }    
 150:main.c        **** 
 151:main.c        ****         CyDelay(3000);
 450              		.loc 1 151 0 is_stmt 1
 451 0252 40F6B830 		movw	r0, #3000
 452 0256 FFF7FEFF 		bl	CyDelay
 453              	.LVL96:
 152:main.c        ****         display_clear();    
 454              		.loc 1 152 0
 455 025a FFF7FEFF 		bl	display_clear
 456              	.LVL97:
 153:main.c        ****         display_update();    
 457              		.loc 1 153 0
 458 025e FFF7FEFF 		bl	display_update
 459              	.LVL98:
 154:main.c        ****         
 155:main.c        ****         // circles
 156:main.c        ****         for( i = 0 ; i < gfx_height() ; i += 2 ){
ARM GAS  C:\Users\jdrd3\AppData\Local\Temp\cc1weASj.s 			page 12


 460              		.loc 1 156 0
 461 0262 0024     		movs	r4, #0
 462 0264 14E0     		b	.L15
 463              	.LVL99:
 464              	.L16:
 157:main.c        ****             gfx_drawCircle( gfx_width()/2, gfx_height()/2, i, WHITE );
 465              		.loc 1 157 0 discriminator 3
 466 0266 FFF7FEFF 		bl	gfx_width
 467              	.LVL100:
 468 026a 0546     		mov	r5, r0
 469 026c FFF7FEFF 		bl	gfx_height
 470              	.LVL101:
 471 0270 00EBD070 		add	r0, r0, r0, lsr #31
 472 0274 05EBD575 		add	r5, r5, r5, lsr #31
 473 0278 0123     		movs	r3, #1
 474 027a 2246     		mov	r2, r4
 475 027c 40F34F01 		sbfx	r1, r0, #1, #16
 476 0280 45F34F00 		sbfx	r0, r5, #1, #16
 477 0284 FFF7FEFF 		bl	gfx_drawCircle
 478              	.LVL102:
 158:main.c        ****             display_update();    
 479              		.loc 1 158 0 discriminator 3
 480 0288 FFF7FEFF 		bl	display_update
 481              	.LVL103:
 156:main.c        ****             gfx_drawCircle( gfx_width()/2, gfx_height()/2, i, WHITE );
 482              		.loc 1 156 0 discriminator 3
 483 028c 0234     		adds	r4, r4, #2
 484              	.LVL104:
 485 028e 24B2     		sxth	r4, r4
 486              	.LVL105:
 487              	.L15:
 156:main.c        ****             gfx_drawCircle( gfx_width()/2, gfx_height()/2, i, WHITE );
 488              		.loc 1 156 0 is_stmt 0 discriminator 1
 489 0290 FFF7FEFF 		bl	gfx_height
 490              	.LVL106:
 491 0294 8442     		cmp	r4, r0
 492 0296 E6DB     		blt	.L16
 159:main.c        ****         }    
 160:main.c        **** 
 161:main.c        ****         CyDelay(3000);
 493              		.loc 1 161 0 is_stmt 1
 494 0298 40F6B830 		movw	r0, #3000
 495 029c FFF7FEFF 		bl	CyDelay
 496              	.LVL107:
 162:main.c        ****         display_clear();    
 497              		.loc 1 162 0
 498 02a0 FFF7FEFF 		bl	display_clear
 499              	.LVL108:
 163:main.c        ****         display_update();    
 500              		.loc 1 163 0
 501 02a4 FFF7FEFF 		bl	display_update
 502              	.LVL109:
 164:main.c        ****         
 165:main.c        ****         
 166:main.c        ****     #define MIN(x, y) (((x) < (y)) ? (x) : (y))
 167:main.c        ****         
 168:main.c        ****         // triangles
ARM GAS  C:\Users\jdrd3\AppData\Local\Temp\cc1weASj.s 			page 13


 169:main.c        ****         for( i = 0 ; i < MIN(gfx_width(),gfx_height())/2; i+=5) {
 503              		.loc 1 169 0
 504 02a8 0024     		movs	r4, #0
 505 02aa 38E0     		b	.L17
 506              	.LVL110:
 507              	.L20:
 170:main.c        ****             gfx_drawTriangle(gfx_width()/2, gfx_height()/2-i,
 508              		.loc 1 170 0 discriminator 7
 509 02ac FFF7FEFF 		bl	gfx_width
 510              	.LVL111:
 511 02b0 0746     		mov	r7, r0
 512 02b2 FFF7FEFF 		bl	gfx_height
 513              	.LVL112:
 514 02b6 0646     		mov	r6, r0
 515 02b8 A4B2     		uxth	r4, r4
 171:main.c        ****                              gfx_width()/2-i, gfx_height()/2+i,
 516              		.loc 1 171 0 discriminator 7
 517 02ba FFF7FEFF 		bl	gfx_width
 518              	.LVL113:
 519 02be 8046     		mov	r8, r0
 520 02c0 FFF7FEFF 		bl	gfx_height
 521              	.LVL114:
 522 02c4 8146     		mov	r9, r0
 172:main.c        ****                              gfx_width()/2+i, gfx_height()/2+i, WHITE);
 523              		.loc 1 172 0 discriminator 7
 524 02c6 FFF7FEFF 		bl	gfx_width
 525              	.LVL115:
 526 02ca 0546     		mov	r5, r0
 527 02cc FFF7FEFF 		bl	gfx_height
 528              	.LVL116:
 170:main.c        ****             gfx_drawTriangle(gfx_width()/2, gfx_height()/2-i,
 529              		.loc 1 170 0 discriminator 7
 530 02d0 09EBD979 		add	r9, r9, r9, lsr #31
 531 02d4 04EB6903 		add	r3, r4, r9, asr #1
 532 02d8 08EBD878 		add	r8, r8, r8, lsr #31
 533 02dc C4EB6802 		rsb	r2, r4, r8, asr #1
 534 02e0 06EBD676 		add	r6, r6, r6, lsr #31
 535 02e4 C4EB6601 		rsb	r1, r4, r6, asr #1
 536 02e8 07EBD777 		add	r7, r7, r7, lsr #31
 537 02ec 0126     		movs	r6, #1
 538 02ee 0296     		str	r6, [sp, #8]
 539 02f0 00EBD070 		add	r0, r0, r0, lsr #31
 540 02f4 04EB6006 		add	r6, r4, r0, asr #1
 541 02f8 36B2     		sxth	r6, r6
 542 02fa 0196     		str	r6, [sp, #4]
 543 02fc 05EBD575 		add	r5, r5, r5, lsr #31
 544 0300 04EB6505 		add	r5, r4, r5, asr #1
 545 0304 2DB2     		sxth	r5, r5
 546 0306 0095     		str	r5, [sp]
 547 0308 1BB2     		sxth	r3, r3
 548 030a 12B2     		sxth	r2, r2
 549 030c 09B2     		sxth	r1, r1
 550 030e 47F34F00 		sbfx	r0, r7, #1, #16
 551 0312 FFF7FEFF 		bl	gfx_drawTriangle
 552              	.LVL117:
 173:main.c        ****             display_update();    
 553              		.loc 1 173 0 discriminator 7
ARM GAS  C:\Users\jdrd3\AppData\Local\Temp\cc1weASj.s 			page 14


 554 0316 FFF7FEFF 		bl	display_update
 555              	.LVL118:
 169:main.c        ****             gfx_drawTriangle(gfx_width()/2, gfx_height()/2-i,
 556              		.loc 1 169 0 discriminator 7
 557 031a 0534     		adds	r4, r4, #5
 558              	.LVL119:
 559 031c 24B2     		sxth	r4, r4
 560              	.LVL120:
 561              	.L17:
 169:main.c        ****             gfx_drawTriangle(gfx_width()/2, gfx_height()/2-i,
 562              		.loc 1 169 0 is_stmt 0 discriminator 1
 563 031e 2546     		mov	r5, r4
 564 0320 FFF7FEFF 		bl	gfx_width
 565              	.LVL121:
 566 0324 0646     		mov	r6, r0
 567 0326 FFF7FEFF 		bl	gfx_height
 568              	.LVL122:
 569 032a 8642     		cmp	r6, r0
 570 032c 05DA     		bge	.L18
 169:main.c        ****             gfx_drawTriangle(gfx_width()/2, gfx_height()/2-i,
 571              		.loc 1 169 0 discriminator 3
 572 032e FFF7FEFF 		bl	gfx_width
 573              	.LVL123:
 574 0332 00EBD070 		add	r0, r0, r0, lsr #31
 575 0336 4010     		asrs	r0, r0, #1
 576 0338 04E0     		b	.L19
 577              	.L18:
 169:main.c        ****             gfx_drawTriangle(gfx_width()/2, gfx_height()/2-i,
 578              		.loc 1 169 0 discriminator 4
 579 033a FFF7FEFF 		bl	gfx_height
 580              	.LVL124:
 581 033e 00EBD070 		add	r0, r0, r0, lsr #31
 582 0342 4010     		asrs	r0, r0, #1
 583              	.L19:
 169:main.c        ****             gfx_drawTriangle(gfx_width()/2, gfx_height()/2-i,
 584              		.loc 1 169 0 discriminator 6
 585 0344 A842     		cmp	r0, r5
 586 0346 B1DC     		bgt	.L20
 174:main.c        ****         }    
 175:main.c        **** 
 176:main.c        ****         
 177:main.c        ****         CyDelay(3000);
 587              		.loc 1 177 0 is_stmt 1
 588 0348 40F6B830 		movw	r0, #3000
 589 034c FFF7FEFF 		bl	CyDelay
 590              	.LVL125:
 178:main.c        ****         display_clear();    
 591              		.loc 1 178 0
 592 0350 FFF7FEFF 		bl	display_clear
 593              	.LVL126:
 179:main.c        ****         display_update();    
 594              		.loc 1 179 0
 595 0354 FFF7FEFF 		bl	display_update
 596              	.LVL127:
 180:main.c        ****        
 181:main.c        ****         // rotation
 182:main.c        ****         int16_t j = 0;
ARM GAS  C:\Users\jdrd3\AppData\Local\Temp\cc1weASj.s 			page 15


 183:main.c        ****         for( j = 0 ; j < 4 ; j++ ){
 597              		.loc 1 183 0
 598 0358 0026     		movs	r6, #0
 599 035a 59E0     		b	.L21
 600              	.LVL128:
 601              	.L26:
 184:main.c        ****             gfx_setRotation(j);
 602              		.loc 1 184 0
 603 035c F0B2     		uxtb	r0, r6
 604 035e FFF7FEFF 		bl	gfx_setRotation
 605              	.LVL129:
 185:main.c        ****             for( i = 0 ; i < MIN(gfx_width(),gfx_height())/2; i+=5) {
 606              		.loc 1 185 0
 607 0362 0024     		movs	r4, #0
 608 0364 3DE0     		b	.L22
 609              	.LVL130:
 610              	.L25:
 186:main.c        ****                 gfx_drawTriangle(gfx_width()/2, gfx_height()/2-i,
 611              		.loc 1 186 0 discriminator 7
 612 0366 FFF7FEFF 		bl	gfx_width
 613              	.LVL131:
 614 036a 0746     		mov	r7, r0
 615 036c FFF7FEFF 		bl	gfx_height
 616              	.LVL132:
 617 0370 8046     		mov	r8, r0
 618 0372 A4B2     		uxth	r4, r4
 187:main.c        ****                                  gfx_width()/2-i, gfx_height()/2+i,
 619              		.loc 1 187 0 discriminator 7
 620 0374 FFF7FEFF 		bl	gfx_width
 621              	.LVL133:
 622 0378 8146     		mov	r9, r0
 623 037a FFF7FEFF 		bl	gfx_height
 624              	.LVL134:
 625 037e 8246     		mov	r10, r0
 188:main.c        ****                                  gfx_width()/2+i, gfx_height()/2+i, WHITE);
 626              		.loc 1 188 0 discriminator 7
 627 0380 FFF7FEFF 		bl	gfx_width
 628              	.LVL135:
 629 0384 0546     		mov	r5, r0
 630 0386 FFF7FEFF 		bl	gfx_height
 631              	.LVL136:
 186:main.c        ****                 gfx_drawTriangle(gfx_width()/2, gfx_height()/2-i,
 632              		.loc 1 186 0 discriminator 7
 633 038a 0AEBDA7A 		add	r10, r10, r10, lsr #31
 634 038e 04EB6A03 		add	r3, r4, r10, asr #1
 635 0392 09EBD979 		add	r9, r9, r9, lsr #31
 636 0396 C4EB6902 		rsb	r2, r4, r9, asr #1
 637 039a 08EBD878 		add	r8, r8, r8, lsr #31
 638 039e C4EB6801 		rsb	r1, r4, r8, asr #1
 639 03a2 07EBD777 		add	r7, r7, r7, lsr #31
 640 03a6 4FF0010E 		mov	lr, #1
 641 03aa CDF808E0 		str	lr, [sp, #8]
 642 03ae 00EBD070 		add	r0, r0, r0, lsr #31
 643 03b2 04EB6000 		add	r0, r4, r0, asr #1
 644 03b6 00B2     		sxth	r0, r0
 645 03b8 0190     		str	r0, [sp, #4]
 646 03ba 05EBD575 		add	r5, r5, r5, lsr #31
ARM GAS  C:\Users\jdrd3\AppData\Local\Temp\cc1weASj.s 			page 16


 647 03be 04EB6505 		add	r5, r4, r5, asr #1
 648 03c2 2DB2     		sxth	r5, r5
 649 03c4 0095     		str	r5, [sp]
 650 03c6 1BB2     		sxth	r3, r3
 651 03c8 12B2     		sxth	r2, r2
 652 03ca 09B2     		sxth	r1, r1
 653 03cc 47F34F00 		sbfx	r0, r7, #1, #16
 654 03d0 FFF7FEFF 		bl	gfx_drawTriangle
 655              	.LVL137:
 189:main.c        ****                 display_update(); 
 656              		.loc 1 189 0 discriminator 7
 657 03d4 FFF7FEFF 		bl	display_update
 658              	.LVL138:
 190:main.c        ****                 CyDelay(200);
 659              		.loc 1 190 0 discriminator 7
 660 03d8 C820     		movs	r0, #200
 661 03da FFF7FEFF 		bl	CyDelay
 662              	.LVL139:
 185:main.c        ****                 gfx_drawTriangle(gfx_width()/2, gfx_height()/2-i,
 663              		.loc 1 185 0 discriminator 7
 664 03de 0534     		adds	r4, r4, #5
 665              	.LVL140:
 666 03e0 24B2     		sxth	r4, r4
 667              	.LVL141:
 668              	.L22:
 185:main.c        ****                 gfx_drawTriangle(gfx_width()/2, gfx_height()/2-i,
 669              		.loc 1 185 0 is_stmt 0 discriminator 1
 670 03e2 2546     		mov	r5, r4
 671 03e4 FFF7FEFF 		bl	gfx_width
 672              	.LVL142:
 673 03e8 0746     		mov	r7, r0
 674 03ea FFF7FEFF 		bl	gfx_height
 675              	.LVL143:
 676 03ee 8742     		cmp	r7, r0
 677 03f0 05DA     		bge	.L23
 185:main.c        ****                 gfx_drawTriangle(gfx_width()/2, gfx_height()/2-i,
 678              		.loc 1 185 0 discriminator 3
 679 03f2 FFF7FEFF 		bl	gfx_width
 680              	.LVL144:
 681 03f6 00EBD070 		add	r0, r0, r0, lsr #31
 682 03fa 4010     		asrs	r0, r0, #1
 683 03fc 04E0     		b	.L24
 684              	.L23:
 185:main.c        ****                 gfx_drawTriangle(gfx_width()/2, gfx_height()/2-i,
 685              		.loc 1 185 0 discriminator 4
 686 03fe FFF7FEFF 		bl	gfx_height
 687              	.LVL145:
 688 0402 00EBD070 		add	r0, r0, r0, lsr #31
 689 0406 4010     		asrs	r0, r0, #1
 690              	.L24:
 185:main.c        ****                 gfx_drawTriangle(gfx_width()/2, gfx_height()/2-i,
 691              		.loc 1 185 0 discriminator 6
 692 0408 A842     		cmp	r0, r5
 693 040a ACDC     		bgt	.L25
 183:main.c        ****             gfx_setRotation(j);
 694              		.loc 1 183 0 is_stmt 1 discriminator 2
 695 040c 0136     		adds	r6, r6, #1
ARM GAS  C:\Users\jdrd3\AppData\Local\Temp\cc1weASj.s 			page 17


 696              	.LVL146:
 697 040e 36B2     		sxth	r6, r6
 698              	.LVL147:
 699              	.L21:
 183:main.c        ****             gfx_setRotation(j);
 700              		.loc 1 183 0 is_stmt 0 discriminator 1
 701 0410 032E     		cmp	r6, #3
 702 0412 A3DD     		ble	.L26
 191:main.c        ****             }    
 192:main.c        ****         }
 193:main.c        ****         
 194:main.c        ****         CyDelay(3000);
 703              		.loc 1 194 0 is_stmt 1
 704 0414 40F6B830 		movw	r0, #3000
 705 0418 FFF7FEFF 		bl	CyDelay
 706              	.LVL148:
 195:main.c        ****        
 196:main.c        ****         // invert and dim
 197:main.c        ****         display_invert(1);
 707              		.loc 1 197 0
 708 041c 0120     		movs	r0, #1
 709 041e FFF7FEFF 		bl	display_invert
 710              	.LVL149:
 198:main.c        ****         CyDelay(1000);
 711              		.loc 1 198 0
 712 0422 4FF47A70 		mov	r0, #1000
 713 0426 FFF7FEFF 		bl	CyDelay
 714              	.LVL150:
 199:main.c        ****         
 200:main.c        ****         for( i = 256 ; i >= 0 ; i-- ){
 715              		.loc 1 200 0
 716 042a 4FF48074 		mov	r4, #256
 717 042e 07E0     		b	.L27
 718              	.LVL151:
 719              	.L28:
 201:main.c        ****             display_contrast(i); 
 720              		.loc 1 201 0 discriminator 3
 721 0430 E0B2     		uxtb	r0, r4
 722 0432 FFF7FEFF 		bl	display_contrast
 723              	.LVL152:
 202:main.c        ****             CyDelay(10);
 724              		.loc 1 202 0 discriminator 3
 725 0436 0A20     		movs	r0, #10
 726 0438 FFF7FEFF 		bl	CyDelay
 727              	.LVL153:
 200:main.c        ****             display_contrast(i); 
 728              		.loc 1 200 0 discriminator 3
 729 043c 013C     		subs	r4, r4, #1
 730              	.LVL154:
 731 043e 24B2     		sxth	r4, r4
 732              	.LVL155:
 733              	.L27:
 200:main.c        ****             display_contrast(i); 
 734              		.loc 1 200 0 is_stmt 0 discriminator 1
 735 0440 002C     		cmp	r4, #0
 736 0442 F5DA     		bge	.L28
 203:main.c        ****         }
ARM GAS  C:\Users\jdrd3\AppData\Local\Temp\cc1weASj.s 			page 18


 204:main.c        ****         
 205:main.c        ****         
 206:main.c        ****         
 207:main.c        ****         display_invert(0);
 737              		.loc 1 207 0 is_stmt 1
 738 0444 0020     		movs	r0, #0
 739 0446 FFF7FEFF 		bl	display_invert
 740              	.LVL156:
 208:main.c        ****         CyDelay(1000);
 741              		.loc 1 208 0
 742 044a 4FF47A70 		mov	r0, #1000
 743 044e FFF7FEFF 		bl	CyDelay
 744              	.LVL157:
 209:main.c        ****         for( i = 0 ; i < 256 ; i++ ){
 745              		.loc 1 209 0
 746 0452 0024     		movs	r4, #0
 747 0454 07E0     		b	.L29
 748              	.LVL158:
 749              	.L30:
 210:main.c        ****             display_contrast(i); 
 750              		.loc 1 210 0 discriminator 3
 751 0456 E0B2     		uxtb	r0, r4
 752 0458 FFF7FEFF 		bl	display_contrast
 753              	.LVL159:
 211:main.c        ****             CyDelay(10);
 754              		.loc 1 211 0 discriminator 3
 755 045c 0A20     		movs	r0, #10
 756 045e FFF7FEFF 		bl	CyDelay
 757              	.LVL160:
 209:main.c        ****         for( i = 0 ; i < 256 ; i++ ){
 758              		.loc 1 209 0 discriminator 3
 759 0462 0134     		adds	r4, r4, #1
 760              	.LVL161:
 761 0464 24B2     		sxth	r4, r4
 762              	.LVL162:
 763              	.L29:
 209:main.c        ****         for( i = 0 ; i < 256 ; i++ ){
 764              		.loc 1 209 0 is_stmt 0 discriminator 1
 765 0466 FF2C     		cmp	r4, #255
 766 0468 F5DD     		ble	.L30
 212:main.c        ****         }
 213:main.c        ****         
 214:main.c        ****     
 215:main.c        ****         CyDelay(3000);
 767              		.loc 1 215 0 is_stmt 1
 768 046a 40F6B830 		movw	r0, #3000
 769 046e FFF7FEFF 		bl	CyDelay
 770              	.LVL163:
 771              	.LBE2:
 216:main.c        **** 
 217:main.c        ****     
 218:main.c        ****     
 219:main.c        ****     
 220:main.c        ****     }
 772              		.loc 1 220 0
 773 0472 CEE5     		b	.L31
 774              	.L34:
ARM GAS  C:\Users\jdrd3\AppData\Local\Temp\cc1weASj.s 			page 19


 775              		.align	2
 776              	.L33:
 777 0474 00000000 		.word	.LC0
 778 0478 10000000 		.word	.LC1
 779 047c 2C000000 		.word	.LC2
 780              		.cfi_endproc
 781              	.LFE63:
 782              		.size	main, .-main
 783              		.section	.rodata.str1.4,"aMS",%progbits,1
 784              		.align	2
 785              	.LC0:
 786 0000 484F4C41 		.ascii	"HOLA PERROS ...\000"
 786      20504552 
 786      524F5320 
 786      2E2E2E00 
 787              	.LC1:
 788 0010 59412045 		.ascii	"YA ESCRIBE LA PSOC :V ...\000"
 788      53435249 
 788      4245204C 
 788      41205053 
 788      4F43203A 
 789 002a 0000     		.space	2
 790              	.LC2:
 791 002c 7363726F 		.ascii	"scroll\000"
 791      6C6C00
 792              		.text
 793              	.Letext0:
 794              		.file 2 "c:\\program files (x86)\\cypress\\psoc creator\\4.2\\psoc creator\\import\\gnu\\arm\\5.4.
 795              		.file 3 "c:\\program files (x86)\\cypress\\psoc creator\\4.2\\psoc creator\\import\\gnu\\arm\\5.4.
 796              		.file 4 "ssd1306.h"
 797              		.file 5 "Generated_Source\\PSoC5/CyLib.h"
 798              		.file 6 "Generated_Source\\PSoC5/I2COLED.h"
 799              		.file 7 "Generated_Source\\PSoC5/core_cm3.h"