ARM GAS  C:\Users\jdrd3\AppData\Local\Temp\ccKeNcx3.s 			page 1


   1              		.syntax unified
   2              		.cpu cortex-m0
   3              		.fpu softvfp
   4              		.eabi_attribute 20, 1
   5              		.eabi_attribute 21, 1
   6              		.eabi_attribute 23, 3
   7              		.eabi_attribute 24, 1
   8              		.eabi_attribute 25, 1
   9              		.eabi_attribute 26, 1
  10              		.eabi_attribute 30, 6
  11              		.eabi_attribute 34, 0
  12              		.eabi_attribute 18, 4
  13              		.thumb
  14              		.syntax unified
  15              		.file	"CyFlash.c"
  16              		.text
  17              	.Ltext0:
  18              		.cfi_sections	.debug_frame
  19              		.bss
  20              		.align	2
  21              	cySysFlashBackup:
  22 0000 00000000 		.space	4
  23              		.section	.text.CySysFlashWriteRow,"ax",%progbits
  24              		.align	2
  25              		.global	CySysFlashWriteRow
  26              		.code	16
  27              		.thumb_func
  28              		.type	CySysFlashWriteRow, %function
  29              	CySysFlashWriteRow:
  30              	.LFB0:
  31              		.file 1 "Generated_Source\\PSoC4\\CyFlash.c"
   1:Generated_Source\PSoC4/CyFlash.c **** /*******************************************************************************
   2:Generated_Source\PSoC4/CyFlash.c **** * File Name: CyFlash.c
   3:Generated_Source\PSoC4/CyFlash.c **** * Version 4.20
   4:Generated_Source\PSoC4/CyFlash.c **** *
   5:Generated_Source\PSoC4/CyFlash.c **** *  Description:
   6:Generated_Source\PSoC4/CyFlash.c **** *   Provides an API for the FLASH.
   7:Generated_Source\PSoC4/CyFlash.c **** *
   8:Generated_Source\PSoC4/CyFlash.c **** *  Note:
   9:Generated_Source\PSoC4/CyFlash.c **** *   This code is endian agnostic.
  10:Generated_Source\PSoC4/CyFlash.c **** *
  11:Generated_Source\PSoC4/CyFlash.c **** *  Note:
  12:Generated_Source\PSoC4/CyFlash.c **** *   Documentation of the API's in this file is located in the
  13:Generated_Source\PSoC4/CyFlash.c **** *   System Reference Guide provided with PSoC Creator.
  14:Generated_Source\PSoC4/CyFlash.c **** *
  15:Generated_Source\PSoC4/CyFlash.c **** ********************************************************************************
  16:Generated_Source\PSoC4/CyFlash.c **** * Copyright 2010-2014, Cypress Semiconductor Corporation.  All rights reserved.
  17:Generated_Source\PSoC4/CyFlash.c **** * You may use this file only in accordance with the license, terms, conditions,
  18:Generated_Source\PSoC4/CyFlash.c **** * disclaimers, and limitations in the end user license agreement accompanying
  19:Generated_Source\PSoC4/CyFlash.c **** * the software package with which this file was provided.
  20:Generated_Source\PSoC4/CyFlash.c **** *******************************************************************************/
  21:Generated_Source\PSoC4/CyFlash.c **** 
  22:Generated_Source\PSoC4/CyFlash.c **** #include "CyFlash.h"
  23:Generated_Source\PSoC4/CyFlash.c **** 
  24:Generated_Source\PSoC4/CyFlash.c **** static CY_SYS_FLASH_CLOCK_BACKUP_STRUCT cySysFlashBackup;
  25:Generated_Source\PSoC4/CyFlash.c **** 
  26:Generated_Source\PSoC4/CyFlash.c **** static cystatus CySysFlashClockBackup(void);
ARM GAS  C:\Users\jdrd3\AppData\Local\Temp\ccKeNcx3.s 			page 2


  27:Generated_Source\PSoC4/CyFlash.c **** static cystatus CySysFlashClockRestore(void);
  28:Generated_Source\PSoC4/CyFlash.c **** #if(CY_IP_FMLT)
  29:Generated_Source\PSoC4/CyFlash.c ****     static cystatus CySysFlashClockConfig(void);
  30:Generated_Source\PSoC4/CyFlash.c **** #endif  /* (CY_IP_FMLT) */
  31:Generated_Source\PSoC4/CyFlash.c **** 
  32:Generated_Source\PSoC4/CyFlash.c **** 
  33:Generated_Source\PSoC4/CyFlash.c **** /*******************************************************************************
  34:Generated_Source\PSoC4/CyFlash.c **** * Function Name: CySysFlashWriteRow
  35:Generated_Source\PSoC4/CyFlash.c **** ********************************************************************************
  36:Generated_Source\PSoC4/CyFlash.c **** *
  37:Generated_Source\PSoC4/CyFlash.c **** * Summary:
  38:Generated_Source\PSoC4/CyFlash.c **** *  Erases a row of Flash and programs it with the new data.
  39:Generated_Source\PSoC4/CyFlash.c **** *
  40:Generated_Source\PSoC4/CyFlash.c **** * Parameters:
  41:Generated_Source\PSoC4/CyFlash.c **** *  uint16 rowNum:
  42:Generated_Source\PSoC4/CyFlash.c **** *   The flash row number. The number of the flash rows is defined by the
  43:Generated_Source\PSoC4/CyFlash.c **** *   CY_FLASH_NUMBER_ROWS macro for the selected device. Refer to the device
  44:Generated_Source\PSoC4/CyFlash.c **** *   datasheet for the details.
  45:Generated_Source\PSoC4/CyFlash.c **** *
  46:Generated_Source\PSoC4/CyFlash.c **** *  uint8* rowData:
  47:Generated_Source\PSoC4/CyFlash.c **** *   Array of bytes to write. The size of the array must be equal to the flash
  48:Generated_Source\PSoC4/CyFlash.c **** *   row size. The flash row size for the selected device is defined by
  49:Generated_Source\PSoC4/CyFlash.c **** *   the CY_FLASH_SIZEOF_ROW macro. Refer to the device datasheet for the
  50:Generated_Source\PSoC4/CyFlash.c **** *   details.
  51:Generated_Source\PSoC4/CyFlash.c **** *
  52:Generated_Source\PSoC4/CyFlash.c **** * Return:
  53:Generated_Source\PSoC4/CyFlash.c **** *  Status
  54:Generated_Source\PSoC4/CyFlash.c **** *     Value                     Description
  55:Generated_Source\PSoC4/CyFlash.c **** *    CY_SYS_FLASH_SUCCESS           Successful
  56:Generated_Source\PSoC4/CyFlash.c **** *    CY_SYS_FLASH_INVALID_ADDR      Specified flash row address is invalid
  57:Generated_Source\PSoC4/CyFlash.c **** *    CY_SYS_FLASH_PROTECTED         Specified flash row is protected
  58:Generated_Source\PSoC4/CyFlash.c **** *    Other non-zero                 Failure
  59:Generated_Source\PSoC4/CyFlash.c **** *
  60:Generated_Source\PSoC4/CyFlash.c **** * Side Effects:
  61:Generated_Source\PSoC4/CyFlash.c **** *   The IMO must be enabled before calling this function. The operation of the
  62:Generated_Source\PSoC4/CyFlash.c **** *   flash writing hardware is dependent on the IMO.
  63:Generated_Source\PSoC4/CyFlash.c **** *
  64:Generated_Source\PSoC4/CyFlash.c **** *   For PSoC 4000 devices this API will automatically modify the clock settings
  65:Generated_Source\PSoC4/CyFlash.c **** *   for the device. Writing to flash requires that changes be made to the IMO
  66:Generated_Source\PSoC4/CyFlash.c **** *   and HFCLK settings. The configuration is restored before returning. HFCLK
  67:Generated_Source\PSoC4/CyFlash.c **** *   will have several frequency changes during the operation of this API between
  68:Generated_Source\PSoC4/CyFlash.c **** *   a minimum frequency of the current IMO frequency divided by 8 and a maximum
  69:Generated_Source\PSoC4/CyFlash.c **** *   frequency of 12 MHz. This will impact the operation of most of the hardware
  70:Generated_Source\PSoC4/CyFlash.c **** *   in the device.
  71:Generated_Source\PSoC4/CyFlash.c **** *
  72:Generated_Source\PSoC4/CyFlash.c **** *******************************************************************************/
  73:Generated_Source\PSoC4/CyFlash.c **** uint32 CySysFlashWriteRow(uint32 rowNum, const uint8 rowData[])
  74:Generated_Source\PSoC4/CyFlash.c **** {
  32              		.loc 1 74 0
  33              		.cfi_startproc
  34              		@ args = 0, pretend = 0, frame = 312
  35              		@ frame_needed = 1, uses_anonymous_args = 0
  36 0000 90B5     		push	{r4, r7, lr}
  37              		.cfi_def_cfa_offset 12
  38              		.cfi_offset 4, -12
  39              		.cfi_offset 7, -8
  40              		.cfi_offset 14, -4
ARM GAS  C:\Users\jdrd3\AppData\Local\Temp\ccKeNcx3.s 			page 3


  41 0002 CFB0     		sub	sp, sp, #316
  42              		.cfi_def_cfa_offset 328
  43 0004 00AF     		add	r7, sp, #0
  44              		.cfi_def_cfa_register 7
  45 0006 7860     		str	r0, [r7, #4]
  46 0008 3960     		str	r1, [r7]
  75:Generated_Source\PSoC4/CyFlash.c ****     volatile uint32 retValue = CY_SYS_FLASH_SUCCESS;
  47              		.loc 1 75 0
  48 000a 0023     		movs	r3, #0
  49 000c 8A22     		movs	r2, #138
  50 000e 5200     		lsls	r2, r2, #1
  51 0010 BA18     		adds	r2, r7, r2
  52 0012 1360     		str	r3, [r2]
  76:Generated_Source\PSoC4/CyFlash.c ****     volatile uint32 clkCnfRetValue = CY_SYS_FLASH_SUCCESS;
  53              		.loc 1 76 0
  54 0014 0023     		movs	r3, #0
  55 0016 8822     		movs	r2, #136
  56 0018 5200     		lsls	r2, r2, #1
  57 001a BA18     		adds	r2, r7, r2
  58 001c 1360     		str	r3, [r2]
  77:Generated_Source\PSoC4/CyFlash.c ****     volatile uint32   parameters[(CY_FLASH_SIZEOF_ROW + CY_FLASH_SRAM_ROM_DATA)/4u];
  78:Generated_Source\PSoC4/CyFlash.c ****     uint8  interruptState;
  79:Generated_Source\PSoC4/CyFlash.c **** 
  80:Generated_Source\PSoC4/CyFlash.c ****     #if (CY_PSOC4_4000 || CY_PSOC4_4100 || CY_PSOC4_4200)
  81:Generated_Source\PSoC4/CyFlash.c ****         uint32 rowDataTmp[CY_FLASH_SIZEOF_ROW / sizeof(uint32)];
  82:Generated_Source\PSoC4/CyFlash.c **** 
  83:Generated_Source\PSoC4/CyFlash.c ****         uint32 needChecksumWorkaround = 0u;
  59              		.loc 1 83 0
  60 001e 0023     		movs	r3, #0
  61 0020 9022     		movs	r2, #144
  62 0022 5200     		lsls	r2, r2, #1
  63 0024 BA18     		adds	r2, r7, r2
  64 0026 1360     		str	r3, [r2]
  84:Generated_Source\PSoC4/CyFlash.c ****         uint32 savedIndex = 0u;
  65              		.loc 1 84 0
  66 0028 0023     		movs	r3, #0
  67 002a 9A22     		movs	r2, #154
  68 002c 5200     		lsls	r2, r2, #1
  69 002e BA18     		adds	r2, r7, r2
  70 0030 1360     		str	r3, [r2]
  85:Generated_Source\PSoC4/CyFlash.c ****         uint32 savedValue = 0u;
  71              		.loc 1 85 0
  72 0032 0023     		movs	r3, #0
  73 0034 9822     		movs	r2, #152
  74 0036 5200     		lsls	r2, r2, #1
  75 0038 BA18     		adds	r2, r7, r2
  76 003a 1360     		str	r3, [r2]
  86:Generated_Source\PSoC4/CyFlash.c ****         uint32 checksum = 0u;
  77              		.loc 1 86 0
  78 003c 0023     		movs	r3, #0
  79 003e 9622     		movs	r2, #150
  80 0040 5200     		lsls	r2, r2, #1
  81 0042 BA18     		adds	r2, r7, r2
  82 0044 1360     		str	r3, [r2]
  87:Generated_Source\PSoC4/CyFlash.c ****         uint32 bits = 0u;
  83              		.loc 1 87 0
  84 0046 0023     		movs	r3, #0
ARM GAS  C:\Users\jdrd3\AppData\Local\Temp\ccKeNcx3.s 			page 4


  85 0048 9422     		movs	r2, #148
  86 004a 5200     		lsls	r2, r2, #1
  87 004c BA18     		adds	r2, r7, r2
  88 004e 1360     		str	r3, [r2]
  88:Generated_Source\PSoC4/CyFlash.c ****         uint32 i;
  89:Generated_Source\PSoC4/CyFlash.c ****     #endif  /* (CY_PSOC4_4000 || CY_PSOC4_4100 || CY_PSOC4_4200) */
  90:Generated_Source\PSoC4/CyFlash.c **** 
  91:Generated_Source\PSoC4/CyFlash.c ****     if ((rowNum < CY_FLASH_NUMBER_ROWS) && (rowData != 0u))
  89              		.loc 1 91 0
  90 0050 7B68     		ldr	r3, [r7, #4]
  91 0052 FF2B     		cmp	r3, #255
  92 0054 00D9     		bls	.LCB52
  93 0056 91E1     		b	.L2	@long jump
  94              	.LCB52:
  95              		.loc 1 91 0 is_stmt 0 discriminator 1
  96 0058 3B68     		ldr	r3, [r7]
  97 005a 002B     		cmp	r3, #0
  98 005c 00D1     		bne	.LCB55
  99 005e 8DE1     		b	.L2	@long jump
 100              	.LCB55:
  92:Generated_Source\PSoC4/CyFlash.c ****     {
  93:Generated_Source\PSoC4/CyFlash.c ****         #if (CY_PSOC4_4000 || CY_PSOC4_4100 || CY_PSOC4_4200)
  94:Generated_Source\PSoC4/CyFlash.c **** 
  95:Generated_Source\PSoC4/CyFlash.c ****             (void) memcpy((void *)rowDataTmp, rowData, CY_FLASH_SIZEOF_ROW);
 101              		.loc 1 95 0 is_stmt 1
 102 0060 3968     		ldr	r1, [r7]
 103 0062 0823     		movs	r3, #8
 104 0064 FB18     		adds	r3, r7, r3
 105 0066 8022     		movs	r2, #128
 106 0068 1800     		movs	r0, r3
 107 006a FFF7FEFF 		bl	memcpy
  96:Generated_Source\PSoC4/CyFlash.c **** 
  97:Generated_Source\PSoC4/CyFlash.c ****             for (i = 0u; i < (CY_FLASH_SIZEOF_ROW / sizeof(uint32)); i++)
 108              		.loc 1 97 0
 109 006e 0023     		movs	r3, #0
 110 0070 9222     		movs	r2, #146
 111 0072 5200     		lsls	r2, r2, #1
 112 0074 BA18     		adds	r2, r7, r2
 113 0076 1360     		str	r3, [r2]
 114 0078 40E0     		b	.L3
 115              	.L5:
 116              	.LBB2:
  98:Generated_Source\PSoC4/CyFlash.c ****             {
  99:Generated_Source\PSoC4/CyFlash.c ****                 uint32 tmp = rowDataTmp[i];
 117              		.loc 1 99 0
 118 007a C74B     		ldr	r3, .L23
 119 007c 9C22     		movs	r2, #156
 120 007e 5200     		lsls	r2, r2, #1
 121 0080 9446     		mov	ip, r2
 122 0082 BC44     		add	ip, ip, r7
 123 0084 6344     		add	r3, r3, ip
 124 0086 9222     		movs	r2, #146
 125 0088 5200     		lsls	r2, r2, #1
 126 008a BA18     		adds	r2, r7, r2
 127 008c 1268     		ldr	r2, [r2]
 128 008e 9200     		lsls	r2, r2, #2
 129 0090 D358     		ldr	r3, [r2, r3]
ARM GAS  C:\Users\jdrd3\AppData\Local\Temp\ccKeNcx3.s 			page 5


 130 0092 8E22     		movs	r2, #142
 131 0094 5200     		lsls	r2, r2, #1
 132 0096 BA18     		adds	r2, r7, r2
 133 0098 1360     		str	r3, [r2]
 100:Generated_Source\PSoC4/CyFlash.c ****                 if (tmp != 0u)
 134              		.loc 1 100 0
 135 009a 8E23     		movs	r3, #142
 136 009c 5B00     		lsls	r3, r3, #1
 137 009e FB18     		adds	r3, r7, r3
 138 00a0 1B68     		ldr	r3, [r3]
 139 00a2 002B     		cmp	r3, #0
 140 00a4 21D0     		beq	.L4
 101:Generated_Source\PSoC4/CyFlash.c ****                 {
 102:Generated_Source\PSoC4/CyFlash.c ****                     checksum += tmp;
 141              		.loc 1 102 0
 142 00a6 9623     		movs	r3, #150
 143 00a8 5B00     		lsls	r3, r3, #1
 144 00aa FB18     		adds	r3, r7, r3
 145 00ac 1A68     		ldr	r2, [r3]
 146 00ae 8E23     		movs	r3, #142
 147 00b0 5B00     		lsls	r3, r3, #1
 148 00b2 FB18     		adds	r3, r7, r3
 149 00b4 1B68     		ldr	r3, [r3]
 150 00b6 D318     		adds	r3, r2, r3
 151 00b8 9622     		movs	r2, #150
 152 00ba 5200     		lsls	r2, r2, #1
 153 00bc BA18     		adds	r2, r7, r2
 154 00be 1360     		str	r3, [r2]
 103:Generated_Source\PSoC4/CyFlash.c ****                     bits |= tmp;
 155              		.loc 1 103 0
 156 00c0 9423     		movs	r3, #148
 157 00c2 5B00     		lsls	r3, r3, #1
 158 00c4 FB18     		adds	r3, r7, r3
 159 00c6 1A68     		ldr	r2, [r3]
 160 00c8 8E23     		movs	r3, #142
 161 00ca 5B00     		lsls	r3, r3, #1
 162 00cc FB18     		adds	r3, r7, r3
 163 00ce 1B68     		ldr	r3, [r3]
 164 00d0 1343     		orrs	r3, r2
 165 00d2 9422     		movs	r2, #148
 166 00d4 5200     		lsls	r2, r2, #1
 167 00d6 BA18     		adds	r2, r7, r2
 168 00d8 1360     		str	r3, [r2]
 104:Generated_Source\PSoC4/CyFlash.c ****                     savedIndex = i;
 169              		.loc 1 104 0
 170 00da 9223     		movs	r3, #146
 171 00dc 5B00     		lsls	r3, r3, #1
 172 00de FB18     		adds	r3, r7, r3
 173 00e0 1B68     		ldr	r3, [r3]
 174 00e2 9A22     		movs	r2, #154
 175 00e4 5200     		lsls	r2, r2, #1
 176 00e6 BA18     		adds	r2, r7, r2
 177 00e8 1360     		str	r3, [r2]
 178              	.L4:
 179              	.LBE2:
  97:Generated_Source\PSoC4/CyFlash.c ****             {
 180              		.loc 1 97 0 discriminator 2
ARM GAS  C:\Users\jdrd3\AppData\Local\Temp\ccKeNcx3.s 			page 6


 181 00ea 9223     		movs	r3, #146
 182 00ec 5B00     		lsls	r3, r3, #1
 183 00ee FB18     		adds	r3, r7, r3
 184 00f0 1B68     		ldr	r3, [r3]
 185 00f2 0133     		adds	r3, r3, #1
 186 00f4 9222     		movs	r2, #146
 187 00f6 5200     		lsls	r2, r2, #1
 188 00f8 BA18     		adds	r2, r7, r2
 189 00fa 1360     		str	r3, [r2]
 190              	.L3:
  97:Generated_Source\PSoC4/CyFlash.c ****             {
 191              		.loc 1 97 0 is_stmt 0 discriminator 1
 192 00fc 9223     		movs	r3, #146
 193 00fe 5B00     		lsls	r3, r3, #1
 194 0100 FB18     		adds	r3, r7, r3
 195 0102 1B68     		ldr	r3, [r3]
 196 0104 1F2B     		cmp	r3, #31
 197 0106 B8D9     		bls	.L5
 105:Generated_Source\PSoC4/CyFlash.c ****                 }
 106:Generated_Source\PSoC4/CyFlash.c ****             }
 107:Generated_Source\PSoC4/CyFlash.c **** 
 108:Generated_Source\PSoC4/CyFlash.c ****             needChecksumWorkaround = ((checksum == 0u) && (bits != 0u)) ? 1u : 0u;
 198              		.loc 1 108 0 is_stmt 1
 199 0108 9623     		movs	r3, #150
 200 010a 5B00     		lsls	r3, r3, #1
 201 010c FB18     		adds	r3, r7, r3
 202 010e 1B68     		ldr	r3, [r3]
 203 0110 002B     		cmp	r3, #0
 204 0112 07D1     		bne	.L6
 205              		.loc 1 108 0 is_stmt 0 discriminator 1
 206 0114 9423     		movs	r3, #148
 207 0116 5B00     		lsls	r3, r3, #1
 208 0118 FB18     		adds	r3, r7, r3
 209 011a 1B68     		ldr	r3, [r3]
 210 011c 002B     		cmp	r3, #0
 211 011e 01D0     		beq	.L6
 212              		.loc 1 108 0 discriminator 3
 213 0120 0123     		movs	r3, #1
 214 0122 00E0     		b	.L7
 215              	.L6:
 216              		.loc 1 108 0 discriminator 4
 217 0124 0023     		movs	r3, #0
 218              	.L7:
 219              		.loc 1 108 0 discriminator 6
 220 0126 9022     		movs	r2, #144
 221 0128 5200     		lsls	r2, r2, #1
 222 012a BA18     		adds	r2, r7, r2
 223 012c 1360     		str	r3, [r2]
 109:Generated_Source\PSoC4/CyFlash.c ****             if (needChecksumWorkaround != 0u)
 224              		.loc 1 109 0 is_stmt 1 discriminator 6
 225 012e 9023     		movs	r3, #144
 226 0130 5B00     		lsls	r3, r3, #1
 227 0132 FB18     		adds	r3, r7, r3
 228 0134 1B68     		ldr	r3, [r3]
 229 0136 002B     		cmp	r3, #0
 230 0138 1CD0     		beq	.L8
 110:Generated_Source\PSoC4/CyFlash.c ****             {
ARM GAS  C:\Users\jdrd3\AppData\Local\Temp\ccKeNcx3.s 			page 7


 111:Generated_Source\PSoC4/CyFlash.c ****                 savedValue = rowDataTmp[savedIndex];
 231              		.loc 1 111 0
 232 013a 974B     		ldr	r3, .L23
 233 013c 9C22     		movs	r2, #156
 234 013e 5200     		lsls	r2, r2, #1
 235 0140 9446     		mov	ip, r2
 236 0142 BC44     		add	ip, ip, r7
 237 0144 6344     		add	r3, r3, ip
 238 0146 9A22     		movs	r2, #154
 239 0148 5200     		lsls	r2, r2, #1
 240 014a BA18     		adds	r2, r7, r2
 241 014c 1268     		ldr	r2, [r2]
 242 014e 9200     		lsls	r2, r2, #2
 243 0150 D358     		ldr	r3, [r2, r3]
 244 0152 9822     		movs	r2, #152
 245 0154 5200     		lsls	r2, r2, #1
 246 0156 BA18     		adds	r2, r7, r2
 247 0158 1360     		str	r3, [r2]
 112:Generated_Source\PSoC4/CyFlash.c ****                 rowDataTmp[savedIndex] = 0u;
 248              		.loc 1 112 0
 249 015a 8F4B     		ldr	r3, .L23
 250 015c 9C22     		movs	r2, #156
 251 015e 5200     		lsls	r2, r2, #1
 252 0160 9446     		mov	ip, r2
 253 0162 BC44     		add	ip, ip, r7
 254 0164 6344     		add	r3, r3, ip
 255 0166 9A22     		movs	r2, #154
 256 0168 5200     		lsls	r2, r2, #1
 257 016a BA18     		adds	r2, r7, r2
 258 016c 1268     		ldr	r2, [r2]
 259 016e 9200     		lsls	r2, r2, #2
 260 0170 0021     		movs	r1, #0
 261 0172 D150     		str	r1, [r2, r3]
 262              	.L8:
 113:Generated_Source\PSoC4/CyFlash.c ****             }
 114:Generated_Source\PSoC4/CyFlash.c ****         #endif  /* (CY_PSOC4_4000 || CY_PSOC4_4100 || CY_PSOC4_4200) */
 115:Generated_Source\PSoC4/CyFlash.c **** 
 116:Generated_Source\PSoC4/CyFlash.c ****         /* Load Flash Bytes */
 117:Generated_Source\PSoC4/CyFlash.c ****         parameters[0u] = (uint32) (CY_FLASH_GET_MACRO_FROM_ROW(rowNum)        << CY_FLASH_PARAM_MAC
 263              		.loc 1 117 0
 264 0174 8823     		movs	r3, #136
 265 0176 FB18     		adds	r3, r7, r3
 266 0178 884A     		ldr	r2, .L23+4
 267 017a 1A60     		str	r2, [r3]
 118:Generated_Source\PSoC4/CyFlash.c ****                          (uint32) (CY_FLASH_PAGE_LATCH_START_ADDR             << CY_FLASH_PARAM_ADD
 119:Generated_Source\PSoC4/CyFlash.c ****                          (uint32) (CY_FLASH_KEY_TWO(CY_FLASH_API_OPCODE_LOAD) << CY_FLASH_PARAM_KEY
 120:Generated_Source\PSoC4/CyFlash.c ****                          CY_FLASH_KEY_ONE;
 121:Generated_Source\PSoC4/CyFlash.c ****         parameters[1u] = CY_FLASH_SIZEOF_ROW - 1u;
 268              		.loc 1 121 0
 269 017c 8823     		movs	r3, #136
 270 017e FB18     		adds	r3, r7, r3
 271 0180 7F22     		movs	r2, #127
 272 0182 5A60     		str	r2, [r3, #4]
 122:Generated_Source\PSoC4/CyFlash.c ****     #if (CY_PSOC4_4000 || CY_PSOC4_4100 || CY_PSOC4_4200)
 123:Generated_Source\PSoC4/CyFlash.c ****         (void)memcpy((void *)&parameters[2u], rowDataTmp, CY_FLASH_SIZEOF_ROW);
 273              		.loc 1 123 0
 274 0184 8823     		movs	r3, #136
ARM GAS  C:\Users\jdrd3\AppData\Local\Temp\ccKeNcx3.s 			page 8


 275 0186 FB18     		adds	r3, r7, r3
 276 0188 834A     		ldr	r2, .L23
 277 018a 9C21     		movs	r1, #156
 278 018c 4900     		lsls	r1, r1, #1
 279 018e 8C46     		mov	ip, r1
 280 0190 BC44     		add	ip, ip, r7
 281 0192 6244     		add	r2, r2, ip
 282 0194 0833     		adds	r3, r3, #8
 283 0196 1100     		movs	r1, r2
 284 0198 8022     		movs	r2, #128
 285 019a 1800     		movs	r0, r3
 286 019c FFF7FEFF 		bl	memcpy
 124:Generated_Source\PSoC4/CyFlash.c ****     #else
 125:Generated_Source\PSoC4/CyFlash.c ****         (void)memcpy((void *)&parameters[2u], rowData, CY_FLASH_SIZEOF_ROW);
 126:Generated_Source\PSoC4/CyFlash.c ****     #endif /* (CY_PSOC4_4000 || CY_PSOC4_4100 || CY_PSOC4_4200) */
 127:Generated_Source\PSoC4/CyFlash.c ****         CY_FLASH_CPUSS_SYSARG_REG = (uint32) &parameters[0u];
 287              		.loc 1 127 0
 288 01a0 7F4B     		ldr	r3, .L23+8
 289 01a2 8822     		movs	r2, #136
 290 01a4 BA18     		adds	r2, r7, r2
 291 01a6 1A60     		str	r2, [r3]
 128:Generated_Source\PSoC4/CyFlash.c ****         CY_FLASH_CPUSS_SYSREQ_REG = CY_FLASH_CPUSS_REQ_START | CY_FLASH_API_OPCODE_LOAD;
 292              		.loc 1 128 0
 293 01a8 7E4B     		ldr	r3, .L23+12
 294 01aa 7F4A     		ldr	r2, .L23+16
 295 01ac 1A60     		str	r2, [r3]
 129:Generated_Source\PSoC4/CyFlash.c ****         retValue = CY_FLASH_API_RETURN;
 296              		.loc 1 129 0
 297 01ae 7C4B     		ldr	r3, .L23+8
 298 01b0 1B68     		ldr	r3, [r3]
 299 01b2 1B0F     		lsrs	r3, r3, #28
 300 01b4 1A07     		lsls	r2, r3, #28
 301 01b6 A023     		movs	r3, #160
 302 01b8 1B06     		lsls	r3, r3, #24
 303 01ba 9A42     		cmp	r2, r3
 304 01bc 04D0     		beq	.L9
 305              		.loc 1 129 0 is_stmt 0 discriminator 1
 306 01be 784B     		ldr	r3, .L23+8
 307 01c0 1B68     		ldr	r3, [r3]
 308 01c2 0F22     		movs	r2, #15
 309 01c4 1340     		ands	r3, r2
 310 01c6 00E0     		b	.L10
 311              	.L9:
 312              		.loc 1 129 0 discriminator 2
 313 01c8 0023     		movs	r3, #0
 314              	.L10:
 315              		.loc 1 129 0 discriminator 4
 316 01ca 8A22     		movs	r2, #138
 317 01cc 5200     		lsls	r2, r2, #1
 318 01ce BA18     		adds	r2, r7, r2
 319 01d0 1360     		str	r3, [r2]
 130:Generated_Source\PSoC4/CyFlash.c **** 
 131:Generated_Source\PSoC4/CyFlash.c ****         if(retValue == CY_SYS_FLASH_SUCCESS)
 320              		.loc 1 131 0 is_stmt 1 discriminator 4
 321 01d2 8A23     		movs	r3, #138
 322 01d4 5B00     		lsls	r3, r3, #1
 323 01d6 FB18     		adds	r3, r7, r3
ARM GAS  C:\Users\jdrd3\AppData\Local\Temp\ccKeNcx3.s 			page 9


 324 01d8 1B68     		ldr	r3, [r3]
 325 01da 002B     		cmp	r3, #0
 326 01dc 00D0     		beq	.LCB265
 327 01de D2E0     		b	.L21	@long jump
 328              	.LCB265:
 132:Generated_Source\PSoC4/CyFlash.c ****         {
 133:Generated_Source\PSoC4/CyFlash.c ****             /***************************************************************
 134:Generated_Source\PSoC4/CyFlash.c ****             * Mask all the exceptions to guarantee that Flash write will
 135:Generated_Source\PSoC4/CyFlash.c ****             * occur in the atomic way. It will not affect system call
 136:Generated_Source\PSoC4/CyFlash.c ****             * execution (flash row write) since it is executed in the NMI
 137:Generated_Source\PSoC4/CyFlash.c ****             * context.
 138:Generated_Source\PSoC4/CyFlash.c ****             ***************************************************************/
 139:Generated_Source\PSoC4/CyFlash.c ****             interruptState = CyEnterCriticalSection();
 329              		.loc 1 139 0
 330 01e0 1C23     		movs	r3, #28
 331 01e2 FF33     		adds	r3, r3, #255
 332 01e4 FC18     		adds	r4, r7, r3
 333 01e6 FFF7FEFF 		bl	CyEnterCriticalSection
 334 01ea 0300     		movs	r3, r0
 335 01ec 2370     		strb	r3, [r4]
 140:Generated_Source\PSoC4/CyFlash.c **** 
 141:Generated_Source\PSoC4/CyFlash.c ****             clkCnfRetValue = CySysFlashClockBackup();
 336              		.loc 1 141 0
 337 01ee FFF7FEFF 		bl	CySysFlashClockBackup
 338 01f2 0300     		movs	r3, r0
 339 01f4 8822     		movs	r2, #136
 340 01f6 5200     		lsls	r2, r2, #1
 341 01f8 BA18     		adds	r2, r7, r2
 342 01fa 1360     		str	r3, [r2]
 142:Generated_Source\PSoC4/CyFlash.c **** 
 143:Generated_Source\PSoC4/CyFlash.c ****         #if(CY_IP_FMLT)
 144:Generated_Source\PSoC4/CyFlash.c ****             if(clkCnfRetValue == CY_SYS_FLASH_SUCCESS)
 145:Generated_Source\PSoC4/CyFlash.c ****             {
 146:Generated_Source\PSoC4/CyFlash.c ****                 retValue = CySysFlashClockConfig();
 147:Generated_Source\PSoC4/CyFlash.c ****             }
 148:Generated_Source\PSoC4/CyFlash.c ****         #endif  /* (CY_IP_FMLT) */
 149:Generated_Source\PSoC4/CyFlash.c **** 
 150:Generated_Source\PSoC4/CyFlash.c ****             if(retValue == CY_SYS_FLASH_SUCCESS)
 343              		.loc 1 150 0
 344 01fc 8A23     		movs	r3, #138
 345 01fe 5B00     		lsls	r3, r3, #1
 346 0200 FB18     		adds	r3, r7, r3
 347 0202 1B68     		ldr	r3, [r3]
 348 0204 002B     		cmp	r3, #0
 349 0206 25D1     		bne	.L12
 151:Generated_Source\PSoC4/CyFlash.c ****             {
 152:Generated_Source\PSoC4/CyFlash.c ****                 /* Write Row */
 153:Generated_Source\PSoC4/CyFlash.c ****                 parameters[0u]  = (uint32) (((uint32) CY_FLASH_KEY_TWO(CY_FLASH_API_OPCODE_WRITE_RO
 350              		.loc 1 153 0
 351 0208 8823     		movs	r3, #136
 352 020a FB18     		adds	r3, r7, r3
 353 020c 674A     		ldr	r2, .L23+20
 354 020e 1A60     		str	r2, [r3]
 154:Generated_Source\PSoC4/CyFlash.c ****                 parameters[0u] |= (uint32)(rowNum << 16u);
 355              		.loc 1 154 0
 356 0210 8823     		movs	r3, #136
 357 0212 FB18     		adds	r3, r7, r3
ARM GAS  C:\Users\jdrd3\AppData\Local\Temp\ccKeNcx3.s 			page 10


 358 0214 1A68     		ldr	r2, [r3]
 359 0216 7B68     		ldr	r3, [r7, #4]
 360 0218 1B04     		lsls	r3, r3, #16
 361 021a 1A43     		orrs	r2, r3
 362 021c 8823     		movs	r3, #136
 363 021e FB18     		adds	r3, r7, r3
 364 0220 1A60     		str	r2, [r3]
 155:Generated_Source\PSoC4/CyFlash.c **** 
 156:Generated_Source\PSoC4/CyFlash.c ****                 CY_FLASH_CPUSS_SYSARG_REG = (uint32) &parameters[0u];
 365              		.loc 1 156 0
 366 0222 5F4B     		ldr	r3, .L23+8
 367 0224 8822     		movs	r2, #136
 368 0226 BA18     		adds	r2, r7, r2
 369 0228 1A60     		str	r2, [r3]
 157:Generated_Source\PSoC4/CyFlash.c ****                 CY_FLASH_CPUSS_SYSREQ_REG = CY_FLASH_CPUSS_REQ_START | CY_FLASH_API_OPCODE_WRITE_RO
 370              		.loc 1 157 0
 371 022a 5E4B     		ldr	r3, .L23+12
 372 022c 604A     		ldr	r2, .L23+24
 373 022e 1A60     		str	r2, [r3]
 158:Generated_Source\PSoC4/CyFlash.c ****                 retValue = CY_FLASH_API_RETURN;
 374              		.loc 1 158 0
 375 0230 5B4B     		ldr	r3, .L23+8
 376 0232 1B68     		ldr	r3, [r3]
 377 0234 1B0F     		lsrs	r3, r3, #28
 378 0236 1A07     		lsls	r2, r3, #28
 379 0238 A023     		movs	r3, #160
 380 023a 1B06     		lsls	r3, r3, #24
 381 023c 9A42     		cmp	r2, r3
 382 023e 04D0     		beq	.L13
 383              		.loc 1 158 0 is_stmt 0 discriminator 1
 384 0240 574B     		ldr	r3, .L23+8
 385 0242 1B68     		ldr	r3, [r3]
 386 0244 0F22     		movs	r2, #15
 387 0246 1340     		ands	r3, r2
 388 0248 00E0     		b	.L14
 389              	.L13:
 390              		.loc 1 158 0 discriminator 2
 391 024a 0023     		movs	r3, #0
 392              	.L14:
 393              		.loc 1 158 0 discriminator 4
 394 024c 8A22     		movs	r2, #138
 395 024e 5200     		lsls	r2, r2, #1
 396 0250 BA18     		adds	r2, r7, r2
 397 0252 1360     		str	r3, [r2]
 398              	.L12:
 159:Generated_Source\PSoC4/CyFlash.c ****             }
 160:Generated_Source\PSoC4/CyFlash.c **** 
 161:Generated_Source\PSoC4/CyFlash.c ****             #if (CY_PSOC4_4000 || CY_PSOC4_4100 || CY_PSOC4_4200)
 162:Generated_Source\PSoC4/CyFlash.c **** 
 163:Generated_Source\PSoC4/CyFlash.c ****                 if ((retValue == CYRET_SUCCESS) && (needChecksumWorkaround != 0u))
 399              		.loc 1 163 0 is_stmt 1
 400 0254 8A23     		movs	r3, #138
 401 0256 5B00     		lsls	r3, r3, #1
 402 0258 FB18     		adds	r3, r7, r3
 403 025a 1B68     		ldr	r3, [r3]
 404 025c 002B     		cmp	r3, #0
 405 025e 00D0     		beq	.LCB334
ARM GAS  C:\Users\jdrd3\AppData\Local\Temp\ccKeNcx3.s 			page 11


 406 0260 77E0     		b	.L15	@long jump
 407              	.LCB334:
 408              		.loc 1 163 0 is_stmt 0 discriminator 1
 409 0262 9023     		movs	r3, #144
 410 0264 5B00     		lsls	r3, r3, #1
 411 0266 FB18     		adds	r3, r7, r3
 412 0268 1B68     		ldr	r3, [r3]
 413 026a 002B     		cmp	r3, #0
 414 026c 71D0     		beq	.L15
 164:Generated_Source\PSoC4/CyFlash.c ****                 {
 165:Generated_Source\PSoC4/CyFlash.c ****                     (void)memset((void *)rowDataTmp, 0, CY_FLASH_SIZEOF_ROW);
 415              		.loc 1 165 0 is_stmt 1
 416 026e 0823     		movs	r3, #8
 417 0270 FB18     		adds	r3, r7, r3
 418 0272 8022     		movs	r2, #128
 419 0274 0021     		movs	r1, #0
 420 0276 1800     		movs	r0, r3
 421 0278 FFF7FEFF 		bl	memset
 166:Generated_Source\PSoC4/CyFlash.c ****                     rowDataTmp[savedIndex] = savedValue;
 422              		.loc 1 166 0
 423 027c 464B     		ldr	r3, .L23
 424 027e 9C22     		movs	r2, #156
 425 0280 5200     		lsls	r2, r2, #1
 426 0282 9446     		mov	ip, r2
 427 0284 BC44     		add	ip, ip, r7
 428 0286 6344     		add	r3, r3, ip
 429 0288 9A22     		movs	r2, #154
 430 028a 5200     		lsls	r2, r2, #1
 431 028c BA18     		adds	r2, r7, r2
 432 028e 1268     		ldr	r2, [r2]
 433 0290 9200     		lsls	r2, r2, #2
 434 0292 9821     		movs	r1, #152
 435 0294 4900     		lsls	r1, r1, #1
 436 0296 7918     		adds	r1, r7, r1
 437 0298 0968     		ldr	r1, [r1]
 438 029a D150     		str	r1, [r2, r3]
 167:Generated_Source\PSoC4/CyFlash.c **** 
 168:Generated_Source\PSoC4/CyFlash.c ****                     /* Load Flash Bytes */
 169:Generated_Source\PSoC4/CyFlash.c ****                     parameters[0u] = (uint32) (CY_FLASH_GET_MACRO_FROM_ROW(rowNum)        << CY_FLA
 439              		.loc 1 169 0
 440 029c 8823     		movs	r3, #136
 441 029e FB18     		adds	r3, r7, r3
 442 02a0 3E4A     		ldr	r2, .L23+4
 443 02a2 1A60     		str	r2, [r3]
 170:Generated_Source\PSoC4/CyFlash.c ****                                      (uint32) (CY_FLASH_PAGE_LATCH_START_ADDR             << CY_FLA
 171:Generated_Source\PSoC4/CyFlash.c ****                                      (uint32) (CY_FLASH_KEY_TWO(CY_FLASH_API_OPCODE_LOAD) << CY_FLA
 172:Generated_Source\PSoC4/CyFlash.c ****                                      CY_FLASH_KEY_ONE;
 173:Generated_Source\PSoC4/CyFlash.c ****                     parameters[1u] = CY_FLASH_SIZEOF_ROW - 1u;
 444              		.loc 1 173 0
 445 02a4 8823     		movs	r3, #136
 446 02a6 FB18     		adds	r3, r7, r3
 447 02a8 7F22     		movs	r2, #127
 448 02aa 5A60     		str	r2, [r3, #4]
 174:Generated_Source\PSoC4/CyFlash.c ****                     (void)memcpy((void *)&parameters[2u], rowDataTmp, CY_FLASH_SIZEOF_ROW);
 449              		.loc 1 174 0
 450 02ac 8823     		movs	r3, #136
 451 02ae FB18     		adds	r3, r7, r3
ARM GAS  C:\Users\jdrd3\AppData\Local\Temp\ccKeNcx3.s 			page 12


 452 02b0 394A     		ldr	r2, .L23
 453 02b2 9C21     		movs	r1, #156
 454 02b4 4900     		lsls	r1, r1, #1
 455 02b6 8C46     		mov	ip, r1
 456 02b8 BC44     		add	ip, ip, r7
 457 02ba 6244     		add	r2, r2, ip
 458 02bc 0833     		adds	r3, r3, #8
 459 02be 1100     		movs	r1, r2
 460 02c0 8022     		movs	r2, #128
 461 02c2 1800     		movs	r0, r3
 462 02c4 FFF7FEFF 		bl	memcpy
 175:Generated_Source\PSoC4/CyFlash.c ****                     CY_FLASH_CPUSS_SYSARG_REG = (uint32) &parameters[0u];
 463              		.loc 1 175 0
 464 02c8 354B     		ldr	r3, .L23+8
 465 02ca 8822     		movs	r2, #136
 466 02cc BA18     		adds	r2, r7, r2
 467 02ce 1A60     		str	r2, [r3]
 176:Generated_Source\PSoC4/CyFlash.c ****                     CY_FLASH_CPUSS_SYSREQ_REG = CY_FLASH_CPUSS_REQ_START | CY_FLASH_API_OPCODE_LOAD
 468              		.loc 1 176 0
 469 02d0 344B     		ldr	r3, .L23+12
 470 02d2 354A     		ldr	r2, .L23+16
 471 02d4 1A60     		str	r2, [r3]
 177:Generated_Source\PSoC4/CyFlash.c ****                     retValue = CY_FLASH_API_RETURN;
 472              		.loc 1 177 0
 473 02d6 324B     		ldr	r3, .L23+8
 474 02d8 1B68     		ldr	r3, [r3]
 475 02da 1B0F     		lsrs	r3, r3, #28
 476 02dc 1A07     		lsls	r2, r3, #28
 477 02de A023     		movs	r3, #160
 478 02e0 1B06     		lsls	r3, r3, #24
 479 02e2 9A42     		cmp	r2, r3
 480 02e4 04D0     		beq	.L16
 481              		.loc 1 177 0 is_stmt 0 discriminator 1
 482 02e6 2E4B     		ldr	r3, .L23+8
 483 02e8 1B68     		ldr	r3, [r3]
 484 02ea 0F22     		movs	r2, #15
 485 02ec 1340     		ands	r3, r2
 486 02ee 00E0     		b	.L17
 487              	.L16:
 488              		.loc 1 177 0 discriminator 2
 489 02f0 0023     		movs	r3, #0
 490              	.L17:
 491              		.loc 1 177 0 discriminator 4
 492 02f2 8A22     		movs	r2, #138
 493 02f4 5200     		lsls	r2, r2, #1
 494 02f6 BA18     		adds	r2, r7, r2
 495 02f8 1360     		str	r3, [r2]
 178:Generated_Source\PSoC4/CyFlash.c **** 
 179:Generated_Source\PSoC4/CyFlash.c **** 
 180:Generated_Source\PSoC4/CyFlash.c ****                     if(retValue == CY_SYS_FLASH_SUCCESS)
 496              		.loc 1 180 0 is_stmt 1 discriminator 4
 497 02fa 8A23     		movs	r3, #138
 498 02fc 5B00     		lsls	r3, r3, #1
 499 02fe FB18     		adds	r3, r7, r3
 500 0300 1B68     		ldr	r3, [r3]
 501 0302 002B     		cmp	r3, #0
 502 0304 25D1     		bne	.L15
ARM GAS  C:\Users\jdrd3\AppData\Local\Temp\ccKeNcx3.s 			page 13


 181:Generated_Source\PSoC4/CyFlash.c ****                     {
 182:Generated_Source\PSoC4/CyFlash.c ****                         /* Program Row */
 183:Generated_Source\PSoC4/CyFlash.c ****                         parameters[0u]  = (uint32) (((uint32) CY_FLASH_KEY_TWO(CY_FLASH_API_OPCODE_
 503              		.loc 1 183 0
 504 0306 8823     		movs	r3, #136
 505 0308 FB18     		adds	r3, r7, r3
 506 030a 2A4A     		ldr	r2, .L23+28
 507 030c 1A60     		str	r2, [r3]
 184:Generated_Source\PSoC4/CyFlash.c ****                         parameters[0u] |= (uint32)(rowNum << 16u);
 508              		.loc 1 184 0
 509 030e 8823     		movs	r3, #136
 510 0310 FB18     		adds	r3, r7, r3
 511 0312 1A68     		ldr	r2, [r3]
 512 0314 7B68     		ldr	r3, [r7, #4]
 513 0316 1B04     		lsls	r3, r3, #16
 514 0318 1A43     		orrs	r2, r3
 515 031a 8823     		movs	r3, #136
 516 031c FB18     		adds	r3, r7, r3
 517 031e 1A60     		str	r2, [r3]
 185:Generated_Source\PSoC4/CyFlash.c **** 
 186:Generated_Source\PSoC4/CyFlash.c ****                         CY_FLASH_CPUSS_SYSARG_REG = (uint32) &parameters[0u];
 518              		.loc 1 186 0
 519 0320 1F4B     		ldr	r3, .L23+8
 520 0322 8822     		movs	r2, #136
 521 0324 BA18     		adds	r2, r7, r2
 522 0326 1A60     		str	r2, [r3]
 187:Generated_Source\PSoC4/CyFlash.c ****                         CY_FLASH_CPUSS_SYSREQ_REG = CY_FLASH_CPUSS_REQ_START | CY_FLASH_API_OPCODE_
 523              		.loc 1 187 0
 524 0328 1E4B     		ldr	r3, .L23+12
 525 032a 234A     		ldr	r2, .L23+32
 526 032c 1A60     		str	r2, [r3]
 188:Generated_Source\PSoC4/CyFlash.c ****                         retValue = CY_FLASH_API_RETURN;
 527              		.loc 1 188 0
 528 032e 1C4B     		ldr	r3, .L23+8
 529 0330 1B68     		ldr	r3, [r3]
 530 0332 1B0F     		lsrs	r3, r3, #28
 531 0334 1A07     		lsls	r2, r3, #28
 532 0336 A023     		movs	r3, #160
 533 0338 1B06     		lsls	r3, r3, #24
 534 033a 9A42     		cmp	r2, r3
 535 033c 04D0     		beq	.L18
 536              		.loc 1 188 0 is_stmt 0 discriminator 1
 537 033e 184B     		ldr	r3, .L23+8
 538 0340 1B68     		ldr	r3, [r3]
 539 0342 0F22     		movs	r2, #15
 540 0344 1340     		ands	r3, r2
 541 0346 00E0     		b	.L19
 542              	.L18:
 543              		.loc 1 188 0 discriminator 2
 544 0348 0023     		movs	r3, #0
 545              	.L19:
 546              		.loc 1 188 0 discriminator 4
 547 034a 8A22     		movs	r2, #138
 548 034c 5200     		lsls	r2, r2, #1
 549 034e BA18     		adds	r2, r7, r2
 550 0350 1360     		str	r3, [r2]
 551              	.L15:
ARM GAS  C:\Users\jdrd3\AppData\Local\Temp\ccKeNcx3.s 			page 14


 189:Generated_Source\PSoC4/CyFlash.c ****                     }
 190:Generated_Source\PSoC4/CyFlash.c ****                 }
 191:Generated_Source\PSoC4/CyFlash.c ****             #endif  /* (CY_PSOC4_4000 || CY_PSOC4_4100 || CY_PSOC4_4200) */
 192:Generated_Source\PSoC4/CyFlash.c **** 
 193:Generated_Source\PSoC4/CyFlash.c ****             if(clkCnfRetValue == CY_SYS_FLASH_SUCCESS)
 552              		.loc 1 193 0 is_stmt 1
 553 0352 8823     		movs	r3, #136
 554 0354 5B00     		lsls	r3, r3, #1
 555 0356 FB18     		adds	r3, r7, r3
 556 0358 1B68     		ldr	r3, [r3]
 557 035a 002B     		cmp	r3, #0
 558 035c 06D1     		bne	.L20
 194:Generated_Source\PSoC4/CyFlash.c ****             {
 195:Generated_Source\PSoC4/CyFlash.c ****                 clkCnfRetValue = CySysFlashClockRestore();
 559              		.loc 1 195 0
 560 035e FFF7FEFF 		bl	CySysFlashClockRestore
 561 0362 0300     		movs	r3, r0
 562 0364 8822     		movs	r2, #136
 563 0366 5200     		lsls	r2, r2, #1
 564 0368 BA18     		adds	r2, r7, r2
 565 036a 1360     		str	r3, [r2]
 566              	.L20:
 196:Generated_Source\PSoC4/CyFlash.c ****             }
 197:Generated_Source\PSoC4/CyFlash.c **** 
 198:Generated_Source\PSoC4/CyFlash.c ****             CyExitCriticalSection(interruptState);
 567              		.loc 1 198 0
 568 036c 1C23     		movs	r3, #28
 569 036e FF33     		adds	r3, r3, #255
 570 0370 FB18     		adds	r3, r7, r3
 571 0372 1B78     		ldrb	r3, [r3]
 572 0374 1800     		movs	r0, r3
 573 0376 FFF7FEFF 		bl	CyExitCriticalSection
 131:Generated_Source\PSoC4/CyFlash.c ****         {
 574              		.loc 1 131 0
 575 037a 04E0     		b	.L21
 576              	.L2:
 199:Generated_Source\PSoC4/CyFlash.c ****         }
 200:Generated_Source\PSoC4/CyFlash.c ****     }
 201:Generated_Source\PSoC4/CyFlash.c ****     else
 202:Generated_Source\PSoC4/CyFlash.c ****     {
 203:Generated_Source\PSoC4/CyFlash.c ****         retValue = CY_SYS_FLASH_INVALID_ADDR;
 577              		.loc 1 203 0
 578 037c 0423     		movs	r3, #4
 579 037e 8A22     		movs	r2, #138
 580 0380 5200     		lsls	r2, r2, #1
 581 0382 BA18     		adds	r2, r7, r2
 582 0384 1360     		str	r3, [r2]
 583              	.L21:
 204:Generated_Source\PSoC4/CyFlash.c ****     }
 205:Generated_Source\PSoC4/CyFlash.c **** 
 206:Generated_Source\PSoC4/CyFlash.c ****     return (retValue);
 584              		.loc 1 206 0
 585 0386 8A23     		movs	r3, #138
 586 0388 5B00     		lsls	r3, r3, #1
 587 038a FB18     		adds	r3, r7, r3
 588 038c 1B68     		ldr	r3, [r3]
 207:Generated_Source\PSoC4/CyFlash.c **** }
ARM GAS  C:\Users\jdrd3\AppData\Local\Temp\ccKeNcx3.s 			page 15


 589              		.loc 1 207 0
 590 038e 1800     		movs	r0, r3
 591 0390 BD46     		mov	sp, r7
 592 0392 4FB0     		add	sp, sp, #316
 593              		@ sp needed
 594 0394 90BD     		pop	{r4, r7, pc}
 595              	.L24:
 596 0396 C046     		.align	2
 597              	.L23:
 598 0398 D0FEFFFF 		.word	-304
 599 039c B6D70000 		.word	55222
 600 03a0 08000040 		.word	1073741832
 601 03a4 04000040 		.word	1073741828
 602 03a8 04000080 		.word	-2147483644
 603 03ac B6D80000 		.word	55478
 604 03b0 05000080 		.word	-2147483643
 605 03b4 B6D90000 		.word	55734
 606 03b8 06000080 		.word	-2147483642
 607              		.cfi_endproc
 608              	.LFE0:
 609              		.size	CySysFlashWriteRow, .-CySysFlashWriteRow
 610              		.section	.text.CySysFlashSetWaitCycles,"ax",%progbits
 611              		.align	2
 612              		.global	CySysFlashSetWaitCycles
 613              		.code	16
 614              		.thumb_func
 615              		.type	CySysFlashSetWaitCycles, %function
 616              	CySysFlashSetWaitCycles:
 617              	.LFB1:
 208:Generated_Source\PSoC4/CyFlash.c **** 
 209:Generated_Source\PSoC4/CyFlash.c **** 
 210:Generated_Source\PSoC4/CyFlash.c **** 
 211:Generated_Source\PSoC4/CyFlash.c **** 
 212:Generated_Source\PSoC4/CyFlash.c **** 
 213:Generated_Source\PSoC4/CyFlash.c **** /*******************************************************************************
 214:Generated_Source\PSoC4/CyFlash.c **** * Function Name: CySysFlashSetWaitCycles
 215:Generated_Source\PSoC4/CyFlash.c **** ********************************************************************************
 216:Generated_Source\PSoC4/CyFlash.c **** *
 217:Generated_Source\PSoC4/CyFlash.c **** * Summary:
 218:Generated_Source\PSoC4/CyFlash.c **** *  Sets the number of clock cycles the cache will wait before it samples data
 219:Generated_Source\PSoC4/CyFlash.c **** *  coming back from Flash. This function must be called before increasing the
 220:Generated_Source\PSoC4/CyFlash.c **** *  SYSCLK clock frequency. It can optionally be called after lowering SYSCLK
 221:Generated_Source\PSoC4/CyFlash.c **** *  clock frequency in order to improve the CPU performance.
 222:Generated_Source\PSoC4/CyFlash.c **** *
 223:Generated_Source\PSoC4/CyFlash.c **** * Parameters:
 224:Generated_Source\PSoC4/CyFlash.c **** *  freq: The System clock frequency in MHz. Note: Invalid frequency will be
 225:Generated_Source\PSoC4/CyFlash.c **** *  ignored in Release mode and the CPU will be halted if project is compiled in
 226:Generated_Source\PSoC4/CyFlash.c **** *  Debug mode.
 227:Generated_Source\PSoC4/CyFlash.c **** *
 228:Generated_Source\PSoC4/CyFlash.c **** * Return:
 229:Generated_Source\PSoC4/CyFlash.c **** *  None
 230:Generated_Source\PSoC4/CyFlash.c **** *
 231:Generated_Source\PSoC4/CyFlash.c **** *******************************************************************************/
 232:Generated_Source\PSoC4/CyFlash.c **** void CySysFlashSetWaitCycles(uint32 freq)
 233:Generated_Source\PSoC4/CyFlash.c **** {
 618              		.loc 1 233 0
 619              		.cfi_startproc
ARM GAS  C:\Users\jdrd3\AppData\Local\Temp\ccKeNcx3.s 			page 16


 620              		@ args = 0, pretend = 0, frame = 16
 621              		@ frame_needed = 1, uses_anonymous_args = 0
 622 0000 90B5     		push	{r4, r7, lr}
 623              		.cfi_def_cfa_offset 12
 624              		.cfi_offset 4, -12
 625              		.cfi_offset 7, -8
 626              		.cfi_offset 14, -4
 627 0002 85B0     		sub	sp, sp, #20
 628              		.cfi_def_cfa_offset 32
 629 0004 00AF     		add	r7, sp, #0
 630              		.cfi_def_cfa_register 7
 631 0006 7860     		str	r0, [r7, #4]
 234:Generated_Source\PSoC4/CyFlash.c ****     uint8  interruptState;
 235:Generated_Source\PSoC4/CyFlash.c **** 
 236:Generated_Source\PSoC4/CyFlash.c ****     #if (CY_IP_CPUSS)
 237:Generated_Source\PSoC4/CyFlash.c **** 
 238:Generated_Source\PSoC4/CyFlash.c ****         interruptState = CyEnterCriticalSection();
 632              		.loc 1 238 0
 633 0008 0F23     		movs	r3, #15
 634 000a FC18     		adds	r4, r7, r3
 635 000c FFF7FEFF 		bl	CyEnterCriticalSection
 636 0010 0300     		movs	r3, r0
 637 0012 2370     		strb	r3, [r4]
 239:Generated_Source\PSoC4/CyFlash.c **** 
 240:Generated_Source\PSoC4/CyFlash.c ****         if ( freq <= CY_FLASH_SYSCLK_BOUNDARY_MHZ )
 638              		.loc 1 240 0
 639 0014 7B68     		ldr	r3, [r7, #4]
 640 0016 182B     		cmp	r3, #24
 641 0018 06D8     		bhi	.L26
 241:Generated_Source\PSoC4/CyFlash.c ****         {
 242:Generated_Source\PSoC4/CyFlash.c ****             CY_SYS_CLK_SELECT_REG &= (uint32)(~CY_FLASH_WAIT_STATE_EN);
 642              		.loc 1 242 0
 643 001a 0C4B     		ldr	r3, .L28
 644 001c 0B4A     		ldr	r2, .L28
 645 001e 1268     		ldr	r2, [r2]
 646 0020 0B49     		ldr	r1, .L28+4
 647 0022 0A40     		ands	r2, r1
 648 0024 1A60     		str	r2, [r3]
 649 0026 06E0     		b	.L27
 650              	.L26:
 243:Generated_Source\PSoC4/CyFlash.c ****         }
 244:Generated_Source\PSoC4/CyFlash.c ****         else
 245:Generated_Source\PSoC4/CyFlash.c ****         {
 246:Generated_Source\PSoC4/CyFlash.c ****             CY_SYS_CLK_SELECT_REG |= CY_FLASH_WAIT_STATE_EN;
 651              		.loc 1 246 0
 652 0028 084B     		ldr	r3, .L28
 653 002a 084A     		ldr	r2, .L28
 654 002c 1268     		ldr	r2, [r2]
 655 002e 8021     		movs	r1, #128
 656 0030 C902     		lsls	r1, r1, #11
 657 0032 0A43     		orrs	r2, r1
 658 0034 1A60     		str	r2, [r3]
 659              	.L27:
 247:Generated_Source\PSoC4/CyFlash.c ****         }
 248:Generated_Source\PSoC4/CyFlash.c **** 
 249:Generated_Source\PSoC4/CyFlash.c ****         CyExitCriticalSection(interruptState);
 660              		.loc 1 249 0
ARM GAS  C:\Users\jdrd3\AppData\Local\Temp\ccKeNcx3.s 			page 17


 661 0036 0F23     		movs	r3, #15
 662 0038 FB18     		adds	r3, r7, r3
 663 003a 1B78     		ldrb	r3, [r3]
 664 003c 1800     		movs	r0, r3
 665 003e FFF7FEFF 		bl	CyExitCriticalSection
 250:Generated_Source\PSoC4/CyFlash.c **** 
 251:Generated_Source\PSoC4/CyFlash.c ****     #else
 252:Generated_Source\PSoC4/CyFlash.c ****         interruptState = CyEnterCriticalSection();
 253:Generated_Source\PSoC4/CyFlash.c **** 
 254:Generated_Source\PSoC4/CyFlash.c ****         if (freq <= CY_FLASH_CTL_WS_0_FREQ_MAX)
 255:Generated_Source\PSoC4/CyFlash.c ****         {
 256:Generated_Source\PSoC4/CyFlash.c ****             CY_FLASH_CTL_REG = (CY_FLASH_CTL_REG & ~CY_FLASH_CTL_WS_MASK) | CY_FLASH_CTL_WS_0_VALUE
 257:Generated_Source\PSoC4/CyFlash.c ****         } else
 258:Generated_Source\PSoC4/CyFlash.c ****         if (freq <= CY_FLASH_CTL_WS_1_FREQ_MAX)
 259:Generated_Source\PSoC4/CyFlash.c ****         {
 260:Generated_Source\PSoC4/CyFlash.c ****             CY_FLASH_CTL_REG = (CY_FLASH_CTL_REG & ~CY_FLASH_CTL_WS_MASK) | CY_FLASH_CTL_WS_1_VALUE
 261:Generated_Source\PSoC4/CyFlash.c ****         } else
 262:Generated_Source\PSoC4/CyFlash.c ****     #if (CY_IP_FMLT)
 263:Generated_Source\PSoC4/CyFlash.c ****         if (freq <= CY_FLASH_CTL_WS_2_FREQ_MAX)
 264:Generated_Source\PSoC4/CyFlash.c ****         {
 265:Generated_Source\PSoC4/CyFlash.c ****             CY_FLASH_CTL_REG = (CY_FLASH_CTL_REG & ~CY_FLASH_CTL_WS_MASK) | CY_FLASH_CTL_WS_2_VALUE
 266:Generated_Source\PSoC4/CyFlash.c ****         }
 267:Generated_Source\PSoC4/CyFlash.c ****     #endif  /* (CY_IP_FMLT) */
 268:Generated_Source\PSoC4/CyFlash.c ****         else
 269:Generated_Source\PSoC4/CyFlash.c ****         {
 270:Generated_Source\PSoC4/CyFlash.c ****             /* Halt CPU in debug mode if frequency is invalid */
 271:Generated_Source\PSoC4/CyFlash.c ****             CYASSERT(0u != 0u);
 272:Generated_Source\PSoC4/CyFlash.c ****         }
 273:Generated_Source\PSoC4/CyFlash.c **** 
 274:Generated_Source\PSoC4/CyFlash.c ****         CyExitCriticalSection(interruptState);
 275:Generated_Source\PSoC4/CyFlash.c **** 
 276:Generated_Source\PSoC4/CyFlash.c ****     #endif  /* (CY_IP_CPUSS) */
 277:Generated_Source\PSoC4/CyFlash.c **** }
 666              		.loc 1 277 0
 667 0042 C046     		nop
 668 0044 BD46     		mov	sp, r7
 669 0046 05B0     		add	sp, sp, #20
 670              		@ sp needed
 671 0048 90BD     		pop	{r4, r7, pc}
 672              	.L29:
 673 004a C046     		.align	2
 674              	.L28:
 675 004c 00010B40 		.word	1074462976
 676 0050 FFFFFBFF 		.word	-262145
 677              		.cfi_endproc
 678              	.LFE1:
 679              		.size	CySysFlashSetWaitCycles, .-CySysFlashSetWaitCycles
 680              		.section	.text.CySysFlashClockBackup,"ax",%progbits
 681              		.align	2
 682              		.code	16
 683              		.thumb_func
 684              		.type	CySysFlashClockBackup, %function
 685              	CySysFlashClockBackup:
 686              	.LFB2:
 278:Generated_Source\PSoC4/CyFlash.c **** 
 279:Generated_Source\PSoC4/CyFlash.c **** 
 280:Generated_Source\PSoC4/CyFlash.c **** /*******************************************************************************
ARM GAS  C:\Users\jdrd3\AppData\Local\Temp\ccKeNcx3.s 			page 18


 281:Generated_Source\PSoC4/CyFlash.c **** * Function Name: CySysFlashClockBackup
 282:Generated_Source\PSoC4/CyFlash.c **** ********************************************************************************
 283:Generated_Source\PSoC4/CyFlash.c **** *
 284:Generated_Source\PSoC4/CyFlash.c **** * Summary:
 285:Generated_Source\PSoC4/CyFlash.c **** *  Backups the device clock configuration.
 286:Generated_Source\PSoC4/CyFlash.c **** *
 287:Generated_Source\PSoC4/CyFlash.c **** * Parameters:
 288:Generated_Source\PSoC4/CyFlash.c **** *  None
 289:Generated_Source\PSoC4/CyFlash.c **** *
 290:Generated_Source\PSoC4/CyFlash.c **** * Return:
 291:Generated_Source\PSoC4/CyFlash.c **** *  The same as CySysFlashWriteRow().
 292:Generated_Source\PSoC4/CyFlash.c **** *
 293:Generated_Source\PSoC4/CyFlash.c **** *******************************************************************************/
 294:Generated_Source\PSoC4/CyFlash.c **** static cystatus CySysFlashClockBackup(void)
 295:Generated_Source\PSoC4/CyFlash.c **** {
 687              		.loc 1 295 0
 688              		.cfi_startproc
 689              		@ args = 0, pretend = 0, frame = 8
 690              		@ frame_needed = 1, uses_anonymous_args = 0
 691 0000 80B5     		push	{r7, lr}
 692              		.cfi_def_cfa_offset 8
 693              		.cfi_offset 7, -8
 694              		.cfi_offset 14, -4
 695 0002 82B0     		sub	sp, sp, #8
 696              		.cfi_def_cfa_offset 16
 697 0004 00AF     		add	r7, sp, #0
 698              		.cfi_def_cfa_register 7
 296:Generated_Source\PSoC4/CyFlash.c ****     cystatus retValue = CY_SYS_FLASH_SUCCESS;
 699              		.loc 1 296 0
 700 0006 0023     		movs	r3, #0
 701 0008 7B60     		str	r3, [r7, #4]
 297:Generated_Source\PSoC4/CyFlash.c **** #if(!CY_IP_FM)
 298:Generated_Source\PSoC4/CyFlash.c ****     #if !(CY_PSOC4_4000)
 299:Generated_Source\PSoC4/CyFlash.c ****         volatile uint32   parameters[2u];
 300:Generated_Source\PSoC4/CyFlash.c ****     #endif  /* !(CY_PSOC4_4000) */
 301:Generated_Source\PSoC4/CyFlash.c **** #endif  /* (!CY_IP_FM) */
 302:Generated_Source\PSoC4/CyFlash.c **** 
 303:Generated_Source\PSoC4/CyFlash.c **** #if(CY_IP_FM)
 304:Generated_Source\PSoC4/CyFlash.c **** 
 305:Generated_Source\PSoC4/CyFlash.c ****     /***************************************************************
 306:Generated_Source\PSoC4/CyFlash.c ****     * Preserve IMO configuration that could be changed during
 307:Generated_Source\PSoC4/CyFlash.c ****     * system call execution (Cypress ID #150448).
 308:Generated_Source\PSoC4/CyFlash.c ****     ***************************************************************/
 309:Generated_Source\PSoC4/CyFlash.c ****     cySysFlashBackup.imoConfigReg = CY_SYS_CLK_IMO_CONFIG_REG;
 702              		.loc 1 309 0
 703 000a 044B     		ldr	r3, .L32
 704 000c 1A68     		ldr	r2, [r3]
 705 000e 044B     		ldr	r3, .L32+4
 706 0010 1A60     		str	r2, [r3]
 310:Generated_Source\PSoC4/CyFlash.c **** 
 311:Generated_Source\PSoC4/CyFlash.c **** #else   /* (CY_IP_FMLT) */
 312:Generated_Source\PSoC4/CyFlash.c **** 
 313:Generated_Source\PSoC4/CyFlash.c ****     #if (CY_PSOC4_4000)
 314:Generated_Source\PSoC4/CyFlash.c **** 
 315:Generated_Source\PSoC4/CyFlash.c ****         /***************************************************************************
 316:Generated_Source\PSoC4/CyFlash.c ****         * Perform firmware clock settings backup for the PSOC4 4000 devices (the
 317:Generated_Source\PSoC4/CyFlash.c ****         * corresponding system call is not available).
ARM GAS  C:\Users\jdrd3\AppData\Local\Temp\ccKeNcx3.s 			page 19


 318:Generated_Source\PSoC4/CyFlash.c ****         ***************************************************************************/
 319:Generated_Source\PSoC4/CyFlash.c **** 
 320:Generated_Source\PSoC4/CyFlash.c ****         /***************************************************************************
 321:Generated_Source\PSoC4/CyFlash.c ****         * The registers listed below are modified by CySysFlashClockConfig().
 322:Generated_Source\PSoC4/CyFlash.c ****         *
 323:Generated_Source\PSoC4/CyFlash.c ****         * The registers to be saved:
 324:Generated_Source\PSoC4/CyFlash.c ****         * - CY_SYS_CLK_IMO_CONFIG_REG - IMO enable state.
 325:Generated_Source\PSoC4/CyFlash.c ****         * - CY_SYS_CLK_SELECT_REG     - HFCLK source, divider, pump source. Save
 326:Generated_Source\PSoC4/CyFlash.c ****         *                               entire register as it can be directly
 327:Generated_Source\PSoC4/CyFlash.c ****         *                               written on restore (no special
 328:Generated_Source\PSoC4/CyFlash.c ****         *                               requirements).
 329:Generated_Source\PSoC4/CyFlash.c ****         * - CY_SYS_CLK_IMO_SELECT_REG - Save IMO frequency.
 330:Generated_Source\PSoC4/CyFlash.c ****         *
 331:Generated_Source\PSoC4/CyFlash.c ****         * The registers not to be saved:
 332:Generated_Source\PSoC4/CyFlash.c ****         * - CY_SYS_CLK_IMO_TRIM1_REG  - No need to save. Function of frequency.
 333:Generated_Source\PSoC4/CyFlash.c ****         *                               Restored by CySysClkWriteImoFreq().
 334:Generated_Source\PSoC4/CyFlash.c ****         * - CY_SYS_CLK_IMO_TRIM3_REG  - No need to save. Function of frequency.
 335:Generated_Source\PSoC4/CyFlash.c ****         *                               Restored by CySysClkWriteImoFreq().
 336:Generated_Source\PSoC4/CyFlash.c ****         * - REG_CPUSS_FLASH_CTL       - Flash wait cycles. Unmodified due to system
 337:Generated_Source\PSoC4/CyFlash.c ****         *                               clock 16 MHz limit.
 338:Generated_Source\PSoC4/CyFlash.c ****         ***************************************************************************/
 339:Generated_Source\PSoC4/CyFlash.c **** 
 340:Generated_Source\PSoC4/CyFlash.c ****         cySysFlashBackup.clkSelectReg = CY_SYS_CLK_SELECT_REG;
 341:Generated_Source\PSoC4/CyFlash.c ****         cySysFlashBackup.clkImoEna    = CY_SYS_CLK_IMO_CONFIG_REG & CY_SYS_CLK_IMO_CONFIG_ENABLE;
 342:Generated_Source\PSoC4/CyFlash.c ****         cySysFlashBackup.clkImoFreq   = CY_SYS_CLK_IMO_MIN_FREQ_MHZ + (CY_SYS_CLK_IMO_SELECT_REG <<
 343:Generated_Source\PSoC4/CyFlash.c **** 
 344:Generated_Source\PSoC4/CyFlash.c ****     #else
 345:Generated_Source\PSoC4/CyFlash.c **** 
 346:Generated_Source\PSoC4/CyFlash.c ****         /* FM-Lite Clock Backup System Call */
 347:Generated_Source\PSoC4/CyFlash.c ****         parameters[0u] = (uint32) ((CY_FLASH_KEY_TWO(CY_FLASH_API_OPCODE_CLK_BACKUP) <<  CY_FLASH_P
 348:Generated_Source\PSoC4/CyFlash.c ****         parameters[1u] = (uint32) &cySysFlashBackup.clockSettings[0u];
 349:Generated_Source\PSoC4/CyFlash.c ****         CY_FLASH_CPUSS_SYSARG_REG = (uint32) &parameters[0u];
 350:Generated_Source\PSoC4/CyFlash.c ****         CY_FLASH_CPUSS_SYSREQ_REG = CY_FLASH_CPUSS_REQ_START | CY_FLASH_API_OPCODE_CLK_BACKUP;
 351:Generated_Source\PSoC4/CyFlash.c ****         retValue = CY_FLASH_API_RETURN;
 352:Generated_Source\PSoC4/CyFlash.c **** 
 353:Generated_Source\PSoC4/CyFlash.c ****     #endif  /* (CY_PSOC4_4000) */
 354:Generated_Source\PSoC4/CyFlash.c **** 
 355:Generated_Source\PSoC4/CyFlash.c **** #endif  /* (CY_IP_FM) */
 356:Generated_Source\PSoC4/CyFlash.c **** 
 357:Generated_Source\PSoC4/CyFlash.c ****     return (retValue);
 707              		.loc 1 357 0
 708 0012 7B68     		ldr	r3, [r7, #4]
 358:Generated_Source\PSoC4/CyFlash.c **** }
 709              		.loc 1 358 0
 710 0014 1800     		movs	r0, r3
 711 0016 BD46     		mov	sp, r7
 712 0018 02B0     		add	sp, sp, #8
 713              		@ sp needed
 714 001a 80BD     		pop	{r7, pc}
 715              	.L33:
 716              		.align	2
 717              	.L32:
 718 001c 08010B40 		.word	1074462984
 719 0020 00000000 		.word	cySysFlashBackup
 720              		.cfi_endproc
 721              	.LFE2:
 722              		.size	CySysFlashClockBackup, .-CySysFlashClockBackup
ARM GAS  C:\Users\jdrd3\AppData\Local\Temp\ccKeNcx3.s 			page 20


 723              		.section	.text.CySysFlashClockRestore,"ax",%progbits
 724              		.align	2
 725              		.code	16
 726              		.thumb_func
 727              		.type	CySysFlashClockRestore, %function
 728              	CySysFlashClockRestore:
 729              	.LFB3:
 359:Generated_Source\PSoC4/CyFlash.c **** 
 360:Generated_Source\PSoC4/CyFlash.c **** 
 361:Generated_Source\PSoC4/CyFlash.c **** #if(CY_IP_FMLT)
 362:Generated_Source\PSoC4/CyFlash.c **** /*******************************************************************************
 363:Generated_Source\PSoC4/CyFlash.c **** * Function Name: CySysFlashClockConfig
 364:Generated_Source\PSoC4/CyFlash.c **** ********************************************************************************
 365:Generated_Source\PSoC4/CyFlash.c **** *
 366:Generated_Source\PSoC4/CyFlash.c **** * Summary:
 367:Generated_Source\PSoC4/CyFlash.c **** *  Configures the device clocks for the flash writing.
 368:Generated_Source\PSoC4/CyFlash.c **** *
 369:Generated_Source\PSoC4/CyFlash.c **** * Parameters:
 370:Generated_Source\PSoC4/CyFlash.c **** *  None
 371:Generated_Source\PSoC4/CyFlash.c **** *
 372:Generated_Source\PSoC4/CyFlash.c **** * Return:
 373:Generated_Source\PSoC4/CyFlash.c **** *  The same as CySysFlashWriteRow().
 374:Generated_Source\PSoC4/CyFlash.c **** *
 375:Generated_Source\PSoC4/CyFlash.c **** *******************************************************************************/
 376:Generated_Source\PSoC4/CyFlash.c **** static cystatus CySysFlashClockConfig(void)
 377:Generated_Source\PSoC4/CyFlash.c **** {
 378:Generated_Source\PSoC4/CyFlash.c ****     cystatus retValue = CY_SYS_FLASH_SUCCESS;
 379:Generated_Source\PSoC4/CyFlash.c **** 
 380:Generated_Source\PSoC4/CyFlash.c ****     /***************************************************************************
 381:Generated_Source\PSoC4/CyFlash.c ****     * The FM-Lite IP uses the IMO at 48MHz for the pump clock and SPC timer
 382:Generated_Source\PSoC4/CyFlash.c ****     * clock. The PUMP_SEL and HF clock must be set to IMO before calling Flash
 383:Generated_Source\PSoC4/CyFlash.c ****     * write or erase operation.
 384:Generated_Source\PSoC4/CyFlash.c ****     ***************************************************************************/
 385:Generated_Source\PSoC4/CyFlash.c **** #if (CY_PSOC4_4000)
 386:Generated_Source\PSoC4/CyFlash.c **** 
 387:Generated_Source\PSoC4/CyFlash.c ****     /***************************************************************************
 388:Generated_Source\PSoC4/CyFlash.c ****     * Perform firmware clock settings setup for the PSOC4 4000 devices (the
 389:Generated_Source\PSoC4/CyFlash.c ****     * corresponding system call is not reliable):
 390:Generated_Source\PSoC4/CyFlash.c ****     * - The IMO frequency should be 48 MHz
 391:Generated_Source\PSoC4/CyFlash.c ****     * - The IMO should be source for the HFCLK
 392:Generated_Source\PSoC4/CyFlash.c ****     * - The IMO should be the source for the charge pump clock
 393:Generated_Source\PSoC4/CyFlash.c ****     *
 394:Generated_Source\PSoC4/CyFlash.c ****     * Note The structure members used below are initialized by
 395:Generated_Source\PSoC4/CyFlash.c ****     * the CySysFlashClockBackup() function.
 396:Generated_Source\PSoC4/CyFlash.c ****     ***************************************************************************/
 397:Generated_Source\PSoC4/CyFlash.c ****     if ((cySysFlashBackup.clkImoFreq != 48u) ||
 398:Generated_Source\PSoC4/CyFlash.c ****         ((cySysFlashBackup.clkSelectReg & CY_SYS_CLK_SELECT_DIRECT_SEL_MASK) != CY_SYS_CLK_HFCLK_IM
 399:Generated_Source\PSoC4/CyFlash.c ****         (((cySysFlashBackup.clkSelectReg >> CY_SYS_CLK_SELECT_PUMP_SEL_SHIFT) & CY_SYS_CLK_SELECT_P
 400:Generated_Source\PSoC4/CyFlash.c ****             CY_SYS_CLK_SELECT_PUMP_SEL_IMO))
 401:Generated_Source\PSoC4/CyFlash.c ****     {
 402:Generated_Source\PSoC4/CyFlash.c ****         /***********************************************************************
 403:Generated_Source\PSoC4/CyFlash.c ****          Set HFCLK divider to divide-by-4 to ensure that System clock frequency
 404:Generated_Source\PSoC4/CyFlash.c ****         * is within the valid limit (16 MHz for the PSoC4 4000).
 405:Generated_Source\PSoC4/CyFlash.c ****         ***********************************************************************/
 406:Generated_Source\PSoC4/CyFlash.c ****         CySysClkWriteHfclkDiv(CY_SYS_CLK_HFCLK_DIV_4);
 407:Generated_Source\PSoC4/CyFlash.c **** 
 408:Generated_Source\PSoC4/CyFlash.c ****         /* The IMO frequency should be 48 MHz */
ARM GAS  C:\Users\jdrd3\AppData\Local\Temp\ccKeNcx3.s 			page 21


 409:Generated_Source\PSoC4/CyFlash.c ****         if (cySysFlashBackup.clkImoFreq != 48u)
 410:Generated_Source\PSoC4/CyFlash.c ****         {
 411:Generated_Source\PSoC4/CyFlash.c ****             CySysClkWriteImoFreq(48u);
 412:Generated_Source\PSoC4/CyFlash.c ****         }
 413:Generated_Source\PSoC4/CyFlash.c ****         CySysClkImoStart();
 414:Generated_Source\PSoC4/CyFlash.c **** 
 415:Generated_Source\PSoC4/CyFlash.c ****         /* The IMO should be source for the HFCLK */
 416:Generated_Source\PSoC4/CyFlash.c ****         CySysClkWriteHfclkDirect(CY_SYS_CLK_HFCLK_IMO);
 417:Generated_Source\PSoC4/CyFlash.c **** 
 418:Generated_Source\PSoC4/CyFlash.c ****         /* The IMO should be the source for the charge pump clock */
 419:Generated_Source\PSoC4/CyFlash.c ****         CY_SYS_CLK_SELECT_REG =  (CY_SYS_CLK_SELECT_REG &
 420:Generated_Source\PSoC4/CyFlash.c ****             ((uint32)~(uint32)(CY_SYS_CLK_SELECT_PUMP_SEL_MASK << CY_SYS_CLK_SELECT_PUMP_SEL_SHIFT)
 421:Generated_Source\PSoC4/CyFlash.c ****             ((uint32)((uint32)1u << CY_SYS_CLK_SELECT_PUMP_SEL_SHIFT));
 422:Generated_Source\PSoC4/CyFlash.c ****     }
 423:Generated_Source\PSoC4/CyFlash.c **** 
 424:Generated_Source\PSoC4/CyFlash.c **** #else
 425:Generated_Source\PSoC4/CyFlash.c **** 
 426:Generated_Source\PSoC4/CyFlash.c ****     /* FM-Lite Clock Configuration */
 427:Generated_Source\PSoC4/CyFlash.c ****     CY_FLASH_CPUSS_SYSARG_REG = (uint32) ((CY_FLASH_KEY_TWO(CY_FLASH_API_OPCODE_CLK_CONFIG) <<  CY_
 428:Generated_Source\PSoC4/CyFlash.c ****     CY_FLASH_CPUSS_SYSREQ_REG = CY_FLASH_CPUSS_REQ_START | CY_FLASH_API_OPCODE_CLK_CONFIG;
 429:Generated_Source\PSoC4/CyFlash.c ****     retValue = CY_FLASH_API_RETURN;
 430:Generated_Source\PSoC4/CyFlash.c **** 
 431:Generated_Source\PSoC4/CyFlash.c **** #endif  /* (CY_PSOC4_4000) */
 432:Generated_Source\PSoC4/CyFlash.c **** 
 433:Generated_Source\PSoC4/CyFlash.c ****     return (retValue);
 434:Generated_Source\PSoC4/CyFlash.c **** }
 435:Generated_Source\PSoC4/CyFlash.c **** #endif  /* (CY_IP_FMLT) */
 436:Generated_Source\PSoC4/CyFlash.c **** 
 437:Generated_Source\PSoC4/CyFlash.c **** 
 438:Generated_Source\PSoC4/CyFlash.c **** /*******************************************************************************
 439:Generated_Source\PSoC4/CyFlash.c **** * Function Name: CySysFlashClockRestore
 440:Generated_Source\PSoC4/CyFlash.c **** ********************************************************************************
 441:Generated_Source\PSoC4/CyFlash.c **** *
 442:Generated_Source\PSoC4/CyFlash.c **** * Summary:
 443:Generated_Source\PSoC4/CyFlash.c **** *  Restores the device clock configuration.
 444:Generated_Source\PSoC4/CyFlash.c **** *
 445:Generated_Source\PSoC4/CyFlash.c **** * Parameters:
 446:Generated_Source\PSoC4/CyFlash.c **** *  None
 447:Generated_Source\PSoC4/CyFlash.c **** *
 448:Generated_Source\PSoC4/CyFlash.c **** * Return:
 449:Generated_Source\PSoC4/CyFlash.c **** *  The same as CySysFlashWriteRow().
 450:Generated_Source\PSoC4/CyFlash.c **** *
 451:Generated_Source\PSoC4/CyFlash.c **** *******************************************************************************/
 452:Generated_Source\PSoC4/CyFlash.c **** static cystatus CySysFlashClockRestore(void)
 453:Generated_Source\PSoC4/CyFlash.c **** {
 730              		.loc 1 453 0
 731              		.cfi_startproc
 732              		@ args = 0, pretend = 0, frame = 8
 733              		@ frame_needed = 1, uses_anonymous_args = 0
 734 0000 80B5     		push	{r7, lr}
 735              		.cfi_def_cfa_offset 8
 736              		.cfi_offset 7, -8
 737              		.cfi_offset 14, -4
 738 0002 82B0     		sub	sp, sp, #8
 739              		.cfi_def_cfa_offset 16
 740 0004 00AF     		add	r7, sp, #0
 741              		.cfi_def_cfa_register 7
ARM GAS  C:\Users\jdrd3\AppData\Local\Temp\ccKeNcx3.s 			page 22


 454:Generated_Source\PSoC4/CyFlash.c ****     cystatus retValue = CY_SYS_FLASH_SUCCESS;
 742              		.loc 1 454 0
 743 0006 0023     		movs	r3, #0
 744 0008 7B60     		str	r3, [r7, #4]
 455:Generated_Source\PSoC4/CyFlash.c **** #if(!CY_IP_FM)
 456:Generated_Source\PSoC4/CyFlash.c ****     #if !(CY_PSOC4_4000)
 457:Generated_Source\PSoC4/CyFlash.c ****         volatile uint32   parameters[2u];
 458:Generated_Source\PSoC4/CyFlash.c ****     #endif  /* !(CY_PSOC4_4000) */
 459:Generated_Source\PSoC4/CyFlash.c **** #endif  /* (!CY_IP_FM) */
 460:Generated_Source\PSoC4/CyFlash.c **** 
 461:Generated_Source\PSoC4/CyFlash.c **** #if(CY_IP_FM)
 462:Generated_Source\PSoC4/CyFlash.c **** 
 463:Generated_Source\PSoC4/CyFlash.c ****     /***************************************************************
 464:Generated_Source\PSoC4/CyFlash.c ****     * Restore IMO configuration that could be changed during
 465:Generated_Source\PSoC4/CyFlash.c ****     * system call execution (Cypress ID #150448).
 466:Generated_Source\PSoC4/CyFlash.c ****     ***************************************************************/
 467:Generated_Source\PSoC4/CyFlash.c ****     CY_SYS_CLK_IMO_CONFIG_REG = cySysFlashBackup.imoConfigReg;
 745              		.loc 1 467 0
 746 000a 044A     		ldr	r2, .L36
 747 000c 044B     		ldr	r3, .L36+4
 748 000e 1B68     		ldr	r3, [r3]
 749 0010 1360     		str	r3, [r2]
 468:Generated_Source\PSoC4/CyFlash.c **** 
 469:Generated_Source\PSoC4/CyFlash.c **** #else
 470:Generated_Source\PSoC4/CyFlash.c **** 
 471:Generated_Source\PSoC4/CyFlash.c ****     #if (CY_PSOC4_4000)
 472:Generated_Source\PSoC4/CyFlash.c **** 
 473:Generated_Source\PSoC4/CyFlash.c ****         /***************************************************************************
 474:Generated_Source\PSoC4/CyFlash.c ****         * Perform firmware clock settings restore for the PSOC4 4000 devices (the
 475:Generated_Source\PSoC4/CyFlash.c ****         * corresponding system call is not available).
 476:Generated_Source\PSoC4/CyFlash.c ****         ***************************************************************************/
 477:Generated_Source\PSoC4/CyFlash.c **** 
 478:Generated_Source\PSoC4/CyFlash.c ****         /* Restore clock settings */
 479:Generated_Source\PSoC4/CyFlash.c ****         if ((cySysFlashBackup.clkImoFreq != 48u) ||
 480:Generated_Source\PSoC4/CyFlash.c ****             ((cySysFlashBackup.clkSelectReg & CY_SYS_CLK_SELECT_DIRECT_SEL_MASK) != CY_SYS_CLK_HFCL
 481:Generated_Source\PSoC4/CyFlash.c ****             (((cySysFlashBackup.clkSelectReg >> CY_SYS_CLK_SELECT_PUMP_SEL_SHIFT) & CY_SYS_CLK_SELE
 482:Generated_Source\PSoC4/CyFlash.c ****                 CY_SYS_CLK_SELECT_PUMP_SEL_IMO))
 483:Generated_Source\PSoC4/CyFlash.c ****         {
 484:Generated_Source\PSoC4/CyFlash.c ****             /* Restore IMO frequency if needed */
 485:Generated_Source\PSoC4/CyFlash.c ****             if (cySysFlashBackup.clkImoFreq != 48u)
 486:Generated_Source\PSoC4/CyFlash.c ****             {
 487:Generated_Source\PSoC4/CyFlash.c ****                 CySysClkWriteImoFreq(cySysFlashBackup.clkImoFreq);
 488:Generated_Source\PSoC4/CyFlash.c ****             }
 489:Generated_Source\PSoC4/CyFlash.c **** 
 490:Generated_Source\PSoC4/CyFlash.c ****             /* Restore HFCLK clock source */
 491:Generated_Source\PSoC4/CyFlash.c ****             CySysClkWriteHfclkDirect(cySysFlashBackup.clkSelectReg & CY_SYS_CLK_SELECT_DIRECT_SEL_M
 492:Generated_Source\PSoC4/CyFlash.c **** 
 493:Generated_Source\PSoC4/CyFlash.c ****             /* Restore HFCLK divider and source for pump  */
 494:Generated_Source\PSoC4/CyFlash.c ****             CY_SYS_CLK_SELECT_REG = cySysFlashBackup.clkSelectReg;
 495:Generated_Source\PSoC4/CyFlash.c **** 
 496:Generated_Source\PSoC4/CyFlash.c ****             /* Stop IMO if needed */
 497:Generated_Source\PSoC4/CyFlash.c ****             if (0u == cySysFlashBackup.clkImoEna)
 498:Generated_Source\PSoC4/CyFlash.c ****             {
 499:Generated_Source\PSoC4/CyFlash.c ****                 CySysClkImoStop();
 500:Generated_Source\PSoC4/CyFlash.c ****             }
 501:Generated_Source\PSoC4/CyFlash.c ****         }
 502:Generated_Source\PSoC4/CyFlash.c **** 
ARM GAS  C:\Users\jdrd3\AppData\Local\Temp\ccKeNcx3.s 			page 23


 503:Generated_Source\PSoC4/CyFlash.c ****     #else
 504:Generated_Source\PSoC4/CyFlash.c **** 
 505:Generated_Source\PSoC4/CyFlash.c ****         /* FM-Lite Clock Restore */
 506:Generated_Source\PSoC4/CyFlash.c ****         parameters[0u] = (uint32) ((CY_FLASH_KEY_TWO(CY_FLASH_API_OPCODE_CLK_RESTORE) <<  CY_FLASH_
 507:Generated_Source\PSoC4/CyFlash.c ****         parameters[1u] = (uint32) &cySysFlashBackup.clockSettings[0u];
 508:Generated_Source\PSoC4/CyFlash.c ****         CY_FLASH_CPUSS_SYSARG_REG = (uint32) &parameters[0u];
 509:Generated_Source\PSoC4/CyFlash.c ****         CY_FLASH_CPUSS_SYSREQ_REG = CY_FLASH_CPUSS_REQ_START | CY_FLASH_API_OPCODE_CLK_RESTORE;
 510:Generated_Source\PSoC4/CyFlash.c ****         retValue = CY_FLASH_API_RETURN;
 511:Generated_Source\PSoC4/CyFlash.c **** 
 512:Generated_Source\PSoC4/CyFlash.c ****     #endif  /* (CY_PSOC4_4000) */
 513:Generated_Source\PSoC4/CyFlash.c **** 
 514:Generated_Source\PSoC4/CyFlash.c **** #endif  /* (CY_IP_FM) */
 515:Generated_Source\PSoC4/CyFlash.c **** 
 516:Generated_Source\PSoC4/CyFlash.c ****     return (retValue);
 750              		.loc 1 516 0
 751 0012 7B68     		ldr	r3, [r7, #4]
 517:Generated_Source\PSoC4/CyFlash.c **** }
 752              		.loc 1 517 0
 753 0014 1800     		movs	r0, r3
 754 0016 BD46     		mov	sp, r7
 755 0018 02B0     		add	sp, sp, #8
 756              		@ sp needed
 757 001a 80BD     		pop	{r7, pc}
 758              	.L37:
 759              		.align	2
 760              	.L36:
 761 001c 08010B40 		.word	1074462984
 762 0020 00000000 		.word	cySysFlashBackup
 763              		.cfi_endproc
 764              	.LFE3:
 765              		.size	CySysFlashClockRestore, .-CySysFlashClockRestore
 766              		.text
 767              	.Letext0:
 768              		.file 2 "Generated_Source\\PSoC4\\cytypes.h"
 769              		.file 3 "Generated_Source\\PSoC4\\CyFlash.h"