ARM GAS  C:\Users\jdrd3\AppData\Local\Temp\ccRHZt6s.s 			page 1


   1              		.syntax unified
   2              		.cpu cortex-m0
   3              		.fpu softvfp
   4              		.eabi_attribute 20, 1
   5              		.eabi_attribute 21, 1
   6              		.eabi_attribute 23, 3
   7              		.eabi_attribute 24, 1
   8              		.eabi_attribute 25, 1
   9              		.eabi_attribute 26, 1
  10              		.eabi_attribute 30, 6
  11              		.eabi_attribute 34, 0
  12              		.eabi_attribute 18, 4
  13              		.thumb
  14              		.syntax unified
  15              		.file	"CyLib.c"
  16              		.text
  17              	.Ltext0:
  18              		.cfi_sections	.debug_frame
  19              		.global	cydelayFreqHz
  20              		.data
  21              		.align	2
  22              		.type	cydelayFreqHz, %object
  23              		.size	cydelayFreqHz, 4
  24              	cydelayFreqHz:
  25 0000 00366E01 		.word	24000000
  26              		.global	cydelayFreqKhz
  27              		.align	2
  28              		.type	cydelayFreqKhz, %object
  29              		.size	cydelayFreqKhz, 4
  30              	cydelayFreqKhz:
  31 0004 C05D0000 		.word	24000
  32              		.global	cydelayFreqMhz
  33              		.type	cydelayFreqMhz, %object
  34              		.size	cydelayFreqMhz, 1
  35              	cydelayFreqMhz:
  36 0008 18       		.byte	24
  37              		.global	cydelay32kMs
  38 0009 000000   		.align	2
  39              		.type	cydelay32kMs, %object
  40              		.size	cydelay32kMs, 4
  41              	cydelay32kMs:
  42 000c 0000E02E 		.word	786432000
  43              		.global	lfclkPosedgeWdtCounter0Enabled
  44              		.bss
  45              		.align	2
  46              		.type	lfclkPosedgeWdtCounter0Enabled, %object
  47              		.size	lfclkPosedgeWdtCounter0Enabled, 4
  48              	lfclkPosedgeWdtCounter0Enabled:
  49 0000 00000000 		.space	4
  50              		.global	lfclkPosedgeEnabledWdtCounter
  51              		.align	2
  52              		.type	lfclkPosedgeEnabledWdtCounter, %object
  53              		.size	lfclkPosedgeEnabledWdtCounter, 4
  54              	lfclkPosedgeEnabledWdtCounter:
  55 0004 00000000 		.space	4
  56              		.global	lfclkPosedgeWdtCounter0Mode
  57              		.align	2
ARM GAS  C:\Users\jdrd3\AppData\Local\Temp\ccRHZt6s.s 			page 2


  58              		.type	lfclkPosedgeWdtCounter0Mode, %object
  59              		.size	lfclkPosedgeWdtCounter0Mode, 4
  60              	lfclkPosedgeWdtCounter0Mode:
  61 0008 00000000 		.space	4
  62              		.align	2
  63              	CySysTickCallbacks:
  64 000c 00000000 		.space	20
  64      00000000 
  64      00000000 
  64      00000000 
  64      00000000 
  65              		.global	CySysTickInitVar
  66              		.align	2
  67              		.type	CySysTickInitVar, %object
  68              		.size	CySysTickInitVar, 4
  69              	CySysTickInitVar:
  70 0020 00000000 		.space	4
  71              		.global	cyImoFreqMhz2Reg
  72              		.section	.rodata
  73              		.align	2
  74              		.type	cyImoFreqMhz2Reg, %object
  75              		.size	cyImoFreqMhz2Reg, 46
  76              	cyImoFreqMhz2Reg:
  77 0000 03       		.byte	3
  78 0001 04       		.byte	4
  79 0002 05       		.byte	5
  80 0003 06       		.byte	6
  81 0004 07       		.byte	7
  82 0005 08       		.byte	8
  83 0006 09       		.byte	9
  84 0007 0A       		.byte	10
  85 0008 0B       		.byte	11
  86 0009 0C       		.byte	12
  87 000a 0E       		.byte	14
  88 000b 0F       		.byte	15
  89 000c 10       		.byte	16
  90 000d 11       		.byte	17
  91 000e 12       		.byte	18
  92 000f 13       		.byte	19
  93 0010 14       		.byte	20
  94 0011 15       		.byte	21
  95 0012 16       		.byte	22
  96 0013 17       		.byte	23
  97 0014 18       		.byte	24
  98 0015 19       		.byte	25
  99 0016 1B       		.byte	27
 100 0017 1C       		.byte	28
 101 0018 1D       		.byte	29
 102 0019 1E       		.byte	30
 103 001a 1F       		.byte	31
 104 001b 20       		.byte	32
 105 001c 21       		.byte	33
 106 001d 22       		.byte	34
 107 001e 23       		.byte	35
 108 001f 25       		.byte	37
 109 0020 26       		.byte	38
 110 0021 27       		.byte	39
ARM GAS  C:\Users\jdrd3\AppData\Local\Temp\ccRHZt6s.s 			page 3


 111 0022 28       		.byte	40
 112 0023 29       		.byte	41
 113 0024 2A       		.byte	42
 114 0025 2B       		.byte	43
 115 0026 2E       		.byte	46
 116 0027 2F       		.byte	47
 117 0028 30       		.byte	48
 118 0029 31       		.byte	49
 119 002a 32       		.byte	50
 120 002b 33       		.byte	51
 121 002c 34       		.byte	52
 122 002d 35       		.byte	53
 123              		.section	.text.CySysClkImoStart,"ax",%progbits
 124              		.align	2
 125              		.global	CySysClkImoStart
 126              		.code	16
 127              		.thumb_func
 128              		.type	CySysClkImoStart, %function
 129              	CySysClkImoStart:
 130              	.LFB0:
 131              		.file 1 "Generated_Source\\PSoC4\\CyLib.c"
   1:Generated_Source\PSoC4/CyLib.c **** /*******************************************************************************
   2:Generated_Source\PSoC4/CyLib.c **** * File Name: CyLib.c
   3:Generated_Source\PSoC4/CyLib.c **** * Version 4.20
   4:Generated_Source\PSoC4/CyLib.c **** *
   5:Generated_Source\PSoC4/CyLib.c **** *  Description:
   6:Generated_Source\PSoC4/CyLib.c **** *   Provides a system API for the clocking, interrupts, and watchdog timer.
   7:Generated_Source\PSoC4/CyLib.c **** *
   8:Generated_Source\PSoC4/CyLib.c **** *  Note:
   9:Generated_Source\PSoC4/CyLib.c **** *   Documentation of the API's in this file is located in the
  10:Generated_Source\PSoC4/CyLib.c **** *   System Reference Guide provided with PSoC Creator.
  11:Generated_Source\PSoC4/CyLib.c **** *
  12:Generated_Source\PSoC4/CyLib.c **** ********************************************************************************
  13:Generated_Source\PSoC4/CyLib.c **** * Copyright 2010-2014, Cypress Semiconductor Corporation.  All rights reserved.
  14:Generated_Source\PSoC4/CyLib.c **** * You may use this file only in accordance with the license, terms, conditions,
  15:Generated_Source\PSoC4/CyLib.c **** * disclaimers, and limitations in the end user license agreement accompanying
  16:Generated_Source\PSoC4/CyLib.c **** * the software package with which this file was provided.
  17:Generated_Source\PSoC4/CyLib.c **** *******************************************************************************/
  18:Generated_Source\PSoC4/CyLib.c **** 
  19:Generated_Source\PSoC4/CyLib.c **** #include "CyLib.h"
  20:Generated_Source\PSoC4/CyLib.c **** 
  21:Generated_Source\PSoC4/CyLib.c **** 
  22:Generated_Source\PSoC4/CyLib.c **** /* Do not use these definitions directly in your application */
  23:Generated_Source\PSoC4/CyLib.c **** uint32 cydelayFreqHz  = CYDEV_BCLK__SYSCLK__HZ;
  24:Generated_Source\PSoC4/CyLib.c **** uint32 cydelayFreqKhz = (CYDEV_BCLK__SYSCLK__HZ + CY_DELAY_1K_MINUS_1_THRESHOLD) / CY_DELAY_1K_THRE
  25:Generated_Source\PSoC4/CyLib.c **** uint8  cydelayFreqMhz = (uint8)((CYDEV_BCLK__SYSCLK__HZ + CY_DELAY_1M_MINUS_1_THRESHOLD) / CY_DELAY
  26:Generated_Source\PSoC4/CyLib.c **** uint32 cydelay32kMs   = CY_DELAY_MS_OVERFLOW * ((CYDEV_BCLK__SYSCLK__HZ + CY_DELAY_1K_MINUS_1_THRES
  27:Generated_Source\PSoC4/CyLib.c ****                         CY_DELAY_1K_THRESHOLD);
  28:Generated_Source\PSoC4/CyLib.c **** 
  29:Generated_Source\PSoC4/CyLib.c **** #if (CY_IP_WCO)
  30:Generated_Source\PSoC4/CyLib.c ****     static uint32 CySysClkGetLfclkSource(void);
  31:Generated_Source\PSoC4/CyLib.c **** #endif /* (CY_IP_WCO) */
  32:Generated_Source\PSoC4/CyLib.c **** 
  33:Generated_Source\PSoC4/CyLib.c **** #if(CY_IP_SRSSV2)
  34:Generated_Source\PSoC4/CyLib.c ****     /* CySysClkLfclkPosedgeCatch() / CySysClkLfclkPosedgeRestore() */
  35:Generated_Source\PSoC4/CyLib.c ****     uint32 lfclkPosedgeWdtCounter0Enabled = 0u;
  36:Generated_Source\PSoC4/CyLib.c ****     uint32 lfclkPosedgeEnabledWdtCounter  = 0u;
ARM GAS  C:\Users\jdrd3\AppData\Local\Temp\ccRHZt6s.s 			page 4


  37:Generated_Source\PSoC4/CyLib.c ****     uint32 lfclkPosedgeWdtCounter0Mode    = CY_SYS_WDT_MODE_NONE;
  38:Generated_Source\PSoC4/CyLib.c **** 
  39:Generated_Source\PSoC4/CyLib.c ****     static void CySysClkLfclkPosedgeCatch(void);
  40:Generated_Source\PSoC4/CyLib.c ****     static void CySysClkLfclkPosedgeRestore(void);
  41:Generated_Source\PSoC4/CyLib.c **** 
  42:Generated_Source\PSoC4/CyLib.c ****     static uint32 CySysWdtLocked(void);
  43:Generated_Source\PSoC4/CyLib.c ****     static uint32 CySysClkIloEnabled(void);
  44:Generated_Source\PSoC4/CyLib.c ****     #if (CY_IP_WCO)
  45:Generated_Source\PSoC4/CyLib.c ****         static uint32 CySysClkWcoEnabled(void);
  46:Generated_Source\PSoC4/CyLib.c ****     #endif /* (CY_IP_WCO) */
  47:Generated_Source\PSoC4/CyLib.c **** #endif /* (CY_IP_SRSSV2) */
  48:Generated_Source\PSoC4/CyLib.c **** 
  49:Generated_Source\PSoC4/CyLib.c **** 
  50:Generated_Source\PSoC4/CyLib.c **** static cySysTickCallback CySysTickCallbacks[CY_SYS_SYST_NUM_OF_CALLBACKS];
  51:Generated_Source\PSoC4/CyLib.c **** static void CySysTickServiceCallbacks(void);
  52:Generated_Source\PSoC4/CyLib.c **** uint32 CySysTickInitVar = 0u;
  53:Generated_Source\PSoC4/CyLib.c **** 
  54:Generated_Source\PSoC4/CyLib.c **** 
  55:Generated_Source\PSoC4/CyLib.c **** #if(CY_IP_SRSSV2)
  56:Generated_Source\PSoC4/CyLib.c ****         /* Conversion between CySysClkWriteImoFreq() parameter and register's value */
  57:Generated_Source\PSoC4/CyLib.c ****         const uint8 cyImoFreqMhz2Reg[CY_SYS_CLK_IMO_FREQ_TABLE_SIZE] = {
  58:Generated_Source\PSoC4/CyLib.c ****             /*  3 MHz */ 0x03u,  /*  4 MHz */ 0x04u,  /*  5 MHz */ 0x05u,  /*  6 MHz */ 0x06u,
  59:Generated_Source\PSoC4/CyLib.c ****             /*  7 MHz */ 0x07u,  /*  8 MHz */ 0x08u,  /*  9 MHz */ 0x09u,  /* 10 MHz */ 0x0Au,
  60:Generated_Source\PSoC4/CyLib.c ****             /* 11 MHz */ 0x0Bu,  /* 12 MHz */ 0x0Cu,  /* 13 MHz */ 0x0Eu,  /* 14 MHz */ 0x0Fu,
  61:Generated_Source\PSoC4/CyLib.c ****             /* 15 MHz */ 0x10u,  /* 16 MHz */ 0x11u,  /* 17 MHz */ 0x12u,  /* 18 MHz */ 0x13u,
  62:Generated_Source\PSoC4/CyLib.c ****             /* 19 MHz */ 0x14u,  /* 20 MHz */ 0x15u,  /* 21 MHz */ 0x16u,  /* 22 MHz */ 0x17u,
  63:Generated_Source\PSoC4/CyLib.c ****             /* 23 MHz */ 0x18u,  /* 24 MHz */ 0x19u,  /* 25 MHz */ 0x1Bu,  /* 26 MHz */ 0x1Cu,
  64:Generated_Source\PSoC4/CyLib.c ****             /* 27 MHz */ 0x1Du,  /* 28 MHz */ 0x1Eu,  /* 29 MHz */ 0x1Fu,  /* 30 MHz */ 0x20u,
  65:Generated_Source\PSoC4/CyLib.c ****             /* 31 MHz */ 0x21u,  /* 32 MHz */ 0x22u,  /* 33 MHz */ 0x23u,  /* 34 MHz */ 0x25u,
  66:Generated_Source\PSoC4/CyLib.c ****             /* 35 MHz */ 0x26u,  /* 36 MHz */ 0x27u,  /* 37 MHz */ 0x28u,  /* 38 MHz */ 0x29u,
  67:Generated_Source\PSoC4/CyLib.c ****             /* 39 MHz */ 0x2Au,  /* 40 MHz */ 0x2Bu,  /* 41 MHz */ 0x2Eu,  /* 42 MHz */ 0x2Fu,
  68:Generated_Source\PSoC4/CyLib.c ****             /* 43 MHz */ 0x30u,  /* 44 MHz */ 0x31u,  /* 45 MHz */ 0x32u,  /* 46 MHz */ 0x33u,
  69:Generated_Source\PSoC4/CyLib.c ****             /* 47 MHz */ 0x34u,  /* 48 MHz */ 0x35u };
  70:Generated_Source\PSoC4/CyLib.c **** #endif /* (CY_IP_SRSSV2) */
  71:Generated_Source\PSoC4/CyLib.c **** 
  72:Generated_Source\PSoC4/CyLib.c **** 
  73:Generated_Source\PSoC4/CyLib.c **** /*******************************************************************************
  74:Generated_Source\PSoC4/CyLib.c **** * Function Name: CySysClkImoStart
  75:Generated_Source\PSoC4/CyLib.c **** ********************************************************************************
  76:Generated_Source\PSoC4/CyLib.c **** *
  77:Generated_Source\PSoC4/CyLib.c **** * Summary:
  78:Generated_Source\PSoC4/CyLib.c **** *  Enables the IMO.
  79:Generated_Source\PSoC4/CyLib.c **** *
  80:Generated_Source\PSoC4/CyLib.c **** * Parameters:
  81:Generated_Source\PSoC4/CyLib.c **** *  None
  82:Generated_Source\PSoC4/CyLib.c **** *
  83:Generated_Source\PSoC4/CyLib.c **** * Return:
  84:Generated_Source\PSoC4/CyLib.c **** *  None
  85:Generated_Source\PSoC4/CyLib.c **** *
  86:Generated_Source\PSoC4/CyLib.c **** *******************************************************************************/
  87:Generated_Source\PSoC4/CyLib.c **** void CySysClkImoStart(void)
  88:Generated_Source\PSoC4/CyLib.c **** {
 132              		.loc 1 88 0
 133              		.cfi_startproc
 134              		@ args = 0, pretend = 0, frame = 0
 135              		@ frame_needed = 1, uses_anonymous_args = 0
 136 0000 80B5     		push	{r7, lr}
ARM GAS  C:\Users\jdrd3\AppData\Local\Temp\ccRHZt6s.s 			page 5


 137              		.cfi_def_cfa_offset 8
 138              		.cfi_offset 7, -8
 139              		.cfi_offset 14, -4
 140 0002 00AF     		add	r7, sp, #0
 141              		.cfi_def_cfa_register 7
  89:Generated_Source\PSoC4/CyLib.c ****     CY_SYS_CLK_IMO_CONFIG_REG |= CY_SYS_CLK_IMO_CONFIG_ENABLE;
 142              		.loc 1 89 0
 143 0004 044B     		ldr	r3, .L2
 144 0006 044A     		ldr	r2, .L2
 145 0008 1268     		ldr	r2, [r2]
 146 000a 8021     		movs	r1, #128
 147 000c 0906     		lsls	r1, r1, #24
 148 000e 0A43     		orrs	r2, r1
 149 0010 1A60     		str	r2, [r3]
  90:Generated_Source\PSoC4/CyLib.c **** }
 150              		.loc 1 90 0
 151 0012 C046     		nop
 152 0014 BD46     		mov	sp, r7
 153              		@ sp needed
 154 0016 80BD     		pop	{r7, pc}
 155              	.L3:
 156              		.align	2
 157              	.L2:
 158 0018 08010B40 		.word	1074462984
 159              		.cfi_endproc
 160              	.LFE0:
 161              		.size	CySysClkImoStart, .-CySysClkImoStart
 162              		.section	.text.CySysClkImoStop,"ax",%progbits
 163              		.align	2
 164              		.global	CySysClkImoStop
 165              		.code	16
 166              		.thumb_func
 167              		.type	CySysClkImoStop, %function
 168              	CySysClkImoStop:
 169              	.LFB1:
  91:Generated_Source\PSoC4/CyLib.c **** 
  92:Generated_Source\PSoC4/CyLib.c **** 
  93:Generated_Source\PSoC4/CyLib.c **** /*******************************************************************************
  94:Generated_Source\PSoC4/CyLib.c **** * Function Name: CySysClkImoStop
  95:Generated_Source\PSoC4/CyLib.c **** ********************************************************************************
  96:Generated_Source\PSoC4/CyLib.c **** *
  97:Generated_Source\PSoC4/CyLib.c **** * Summary:
  98:Generated_Source\PSoC4/CyLib.c **** *  Disables the IMO.
  99:Generated_Source\PSoC4/CyLib.c **** *
 100:Generated_Source\PSoC4/CyLib.c **** * Parameters:
 101:Generated_Source\PSoC4/CyLib.c **** *  None
 102:Generated_Source\PSoC4/CyLib.c **** *
 103:Generated_Source\PSoC4/CyLib.c **** * Return:
 104:Generated_Source\PSoC4/CyLib.c **** *  None
 105:Generated_Source\PSoC4/CyLib.c **** *
 106:Generated_Source\PSoC4/CyLib.c **** *******************************************************************************/
 107:Generated_Source\PSoC4/CyLib.c **** void CySysClkImoStop(void)
 108:Generated_Source\PSoC4/CyLib.c **** {
 170              		.loc 1 108 0
 171              		.cfi_startproc
 172              		@ args = 0, pretend = 0, frame = 0
 173              		@ frame_needed = 1, uses_anonymous_args = 0
ARM GAS  C:\Users\jdrd3\AppData\Local\Temp\ccRHZt6s.s 			page 6


 174 0000 80B5     		push	{r7, lr}
 175              		.cfi_def_cfa_offset 8
 176              		.cfi_offset 7, -8
 177              		.cfi_offset 14, -4
 178 0002 00AF     		add	r7, sp, #0
 179              		.cfi_def_cfa_register 7
 109:Generated_Source\PSoC4/CyLib.c ****     CY_SYS_CLK_IMO_CONFIG_REG &= ( uint32 ) ( ~( uint32 )CY_SYS_CLK_IMO_CONFIG_ENABLE);
 180              		.loc 1 109 0
 181 0004 044B     		ldr	r3, .L5
 182 0006 044A     		ldr	r2, .L5
 183 0008 1268     		ldr	r2, [r2]
 184 000a 5200     		lsls	r2, r2, #1
 185 000c 5208     		lsrs	r2, r2, #1
 186 000e 1A60     		str	r2, [r3]
 110:Generated_Source\PSoC4/CyLib.c **** }
 187              		.loc 1 110 0
 188 0010 C046     		nop
 189 0012 BD46     		mov	sp, r7
 190              		@ sp needed
 191 0014 80BD     		pop	{r7, pc}
 192              	.L6:
 193 0016 C046     		.align	2
 194              	.L5:
 195 0018 08010B40 		.word	1074462984
 196              		.cfi_endproc
 197              	.LFE1:
 198              		.size	CySysClkImoStop, .-CySysClkImoStop
 199              		.section	.text.CySysClkIloStart,"ax",%progbits
 200              		.align	2
 201              		.global	CySysClkIloStart
 202              		.code	16
 203              		.thumb_func
 204              		.type	CySysClkIloStart, %function
 205              	CySysClkIloStart:
 206              	.LFB2:
 111:Generated_Source\PSoC4/CyLib.c **** 
 112:Generated_Source\PSoC4/CyLib.c **** 
 113:Generated_Source\PSoC4/CyLib.c **** /*******************************************************************************
 114:Generated_Source\PSoC4/CyLib.c **** * Function Name: CySysClkIloStart
 115:Generated_Source\PSoC4/CyLib.c **** ********************************************************************************
 116:Generated_Source\PSoC4/CyLib.c **** *
 117:Generated_Source\PSoC4/CyLib.c **** * Summary:
 118:Generated_Source\PSoC4/CyLib.c **** *  Enables the ILO. Refer to the device datasheet for the ILO startup time.
 119:Generated_Source\PSoC4/CyLib.c **** *
 120:Generated_Source\PSoC4/CyLib.c **** * Parameters:
 121:Generated_Source\PSoC4/CyLib.c **** *  None
 122:Generated_Source\PSoC4/CyLib.c **** *
 123:Generated_Source\PSoC4/CyLib.c **** * Return:
 124:Generated_Source\PSoC4/CyLib.c **** *  None
 125:Generated_Source\PSoC4/CyLib.c **** *
 126:Generated_Source\PSoC4/CyLib.c **** *******************************************************************************/
 127:Generated_Source\PSoC4/CyLib.c **** void CySysClkIloStart(void)
 128:Generated_Source\PSoC4/CyLib.c **** {
 207              		.loc 1 128 0
 208              		.cfi_startproc
 209              		@ args = 0, pretend = 0, frame = 0
 210              		@ frame_needed = 1, uses_anonymous_args = 0
ARM GAS  C:\Users\jdrd3\AppData\Local\Temp\ccRHZt6s.s 			page 7


 211 0000 80B5     		push	{r7, lr}
 212              		.cfi_def_cfa_offset 8
 213              		.cfi_offset 7, -8
 214              		.cfi_offset 14, -4
 215 0002 00AF     		add	r7, sp, #0
 216              		.cfi_def_cfa_register 7
 129:Generated_Source\PSoC4/CyLib.c ****     CY_SYS_CLK_ILO_CONFIG_REG |= CY_SYS_CLK_ILO_CONFIG_ENABLE;
 217              		.loc 1 129 0
 218 0004 044B     		ldr	r3, .L8
 219 0006 044A     		ldr	r2, .L8
 220 0008 1268     		ldr	r2, [r2]
 221 000a 8021     		movs	r1, #128
 222 000c 0906     		lsls	r1, r1, #24
 223 000e 0A43     		orrs	r2, r1
 224 0010 1A60     		str	r2, [r3]
 130:Generated_Source\PSoC4/CyLib.c **** }
 225              		.loc 1 130 0
 226 0012 C046     		nop
 227 0014 BD46     		mov	sp, r7
 228              		@ sp needed
 229 0016 80BD     		pop	{r7, pc}
 230              	.L9:
 231              		.align	2
 232              	.L8:
 233 0018 04010B40 		.word	1074462980
 234              		.cfi_endproc
 235              	.LFE2:
 236              		.size	CySysClkIloStart, .-CySysClkIloStart
 237              		.section	.text.CySysClkIloStop,"ax",%progbits
 238              		.align	2
 239              		.global	CySysClkIloStop
 240              		.code	16
 241              		.thumb_func
 242              		.type	CySysClkIloStop, %function
 243              	CySysClkIloStop:
 244              	.LFB3:
 131:Generated_Source\PSoC4/CyLib.c **** 
 132:Generated_Source\PSoC4/CyLib.c **** 
 133:Generated_Source\PSoC4/CyLib.c **** /*******************************************************************************
 134:Generated_Source\PSoC4/CyLib.c **** * Function Name: CySysClkIloStop
 135:Generated_Source\PSoC4/CyLib.c **** ********************************************************************************
 136:Generated_Source\PSoC4/CyLib.c **** *
 137:Generated_Source\PSoC4/CyLib.c **** * Summary:
 138:Generated_Source\PSoC4/CyLib.c **** *  Disables the ILO.
 139:Generated_Source\PSoC4/CyLib.c **** *
 140:Generated_Source\PSoC4/CyLib.c **** * Parameters:
 141:Generated_Source\PSoC4/CyLib.c **** *  None
 142:Generated_Source\PSoC4/CyLib.c **** *
 143:Generated_Source\PSoC4/CyLib.c **** * Return:
 144:Generated_Source\PSoC4/CyLib.c **** *  None
 145:Generated_Source\PSoC4/CyLib.c **** *
 146:Generated_Source\PSoC4/CyLib.c **** * Side Effects:
 147:Generated_Source\PSoC4/CyLib.c **** *  This function will have no effect if the WDT is locked (CySysWdtLock() is
 148:Generated_Source\PSoC4/CyLib.c **** *  called). Call CySysWdtUnlock() to unlock the WDT and be able to stop ILO.
 149:Generated_Source\PSoC4/CyLib.c **** *
 150:Generated_Source\PSoC4/CyLib.c **** *  PSoC 4100 / PSoC 4200: Note that ILO is required for WDT's operation.
 151:Generated_Source\PSoC4/CyLib.c **** *  The ILO is required for the WDT operation.
ARM GAS  C:\Users\jdrd3\AppData\Local\Temp\ccRHZt6s.s 			page 8


 152:Generated_Source\PSoC4/CyLib.c **** *
 153:Generated_Source\PSoC4/CyLib.c **** *  PSoC 4100-BL / PSoC 4200-BL:
 154:Generated_Source\PSoC4/CyLib.c **** *  Stopping the ILO will affect the peripheral clocked by the LFCLK, if the
 155:Generated_Source\PSoC4/CyLib.c **** *  LFCLK is configured to be sourced by the ILO.
 156:Generated_Source\PSoC4/CyLib.c **** *
 157:Generated_Source\PSoC4/CyLib.c **** *******************************************************************************/
 158:Generated_Source\PSoC4/CyLib.c **** void CySysClkIloStop(void)
 159:Generated_Source\PSoC4/CyLib.c **** {
 245              		.loc 1 159 0
 246              		.cfi_startproc
 247              		@ args = 0, pretend = 0, frame = 8
 248              		@ frame_needed = 1, uses_anonymous_args = 0
 249 0000 90B5     		push	{r4, r7, lr}
 250              		.cfi_def_cfa_offset 12
 251              		.cfi_offset 4, -12
 252              		.cfi_offset 7, -8
 253              		.cfi_offset 14, -4
 254 0002 83B0     		sub	sp, sp, #12
 255              		.cfi_def_cfa_offset 24
 256 0004 00AF     		add	r7, sp, #0
 257              		.cfi_def_cfa_register 7
 160:Generated_Source\PSoC4/CyLib.c ****     #if(CY_IP_SRSSV2)
 161:Generated_Source\PSoC4/CyLib.c ****         uint8  interruptState;
 162:Generated_Source\PSoC4/CyLib.c **** 
 163:Generated_Source\PSoC4/CyLib.c ****         /* Do nothing if WDT is locked or ILO is disabled */
 164:Generated_Source\PSoC4/CyLib.c ****         if (0u == CySysWdtLocked())
 258              		.loc 1 164 0
 259 0006 FFF7FEFF 		bl	CySysWdtLocked
 260 000a 031E     		subs	r3, r0, #0
 261 000c 17D1     		bne	.L12
 165:Generated_Source\PSoC4/CyLib.c ****         {
 166:Generated_Source\PSoC4/CyLib.c ****             if (0u != CySysClkIloEnabled())
 262              		.loc 1 166 0
 263 000e FFF7FEFF 		bl	CySysClkIloEnabled
 264 0012 031E     		subs	r3, r0, #0
 265 0014 13D0     		beq	.L12
 167:Generated_Source\PSoC4/CyLib.c ****             {
 168:Generated_Source\PSoC4/CyLib.c **** 
 169:Generated_Source\PSoC4/CyLib.c ****             #if (CY_IP_WCO)
 170:Generated_Source\PSoC4/CyLib.c ****                 if (CY_SYS_CLK_LFCLK_SRC_ILO == CySysClkGetLfclkSource())
 171:Generated_Source\PSoC4/CyLib.c ****                 {
 172:Generated_Source\PSoC4/CyLib.c ****             #endif /* (CY_IP_WCO) */
 173:Generated_Source\PSoC4/CyLib.c **** 
 174:Generated_Source\PSoC4/CyLib.c ****                 interruptState = CyEnterCriticalSection();
 266              		.loc 1 174 0
 267 0016 FC1D     		adds	r4, r7, #7
 268 0018 FFF7FEFF 		bl	CyEnterCriticalSection
 269 001c 0300     		movs	r3, r0
 270 001e 2370     		strb	r3, [r4]
 175:Generated_Source\PSoC4/CyLib.c ****                 CySysClkLfclkPosedgeCatch();
 271              		.loc 1 175 0
 272 0020 FFF7FEFF 		bl	CySysClkLfclkPosedgeCatch
 176:Generated_Source\PSoC4/CyLib.c ****                 CY_SYS_CLK_ILO_CONFIG_REG &= ( uint32 ) ( ~( uint32 )CY_SYS_CLK_ILO_CONFIG_ENABLE);
 273              		.loc 1 176 0
 274 0024 084B     		ldr	r3, .L13
 275 0026 084A     		ldr	r2, .L13
 276 0028 1268     		ldr	r2, [r2]
ARM GAS  C:\Users\jdrd3\AppData\Local\Temp\ccRHZt6s.s 			page 9


 277 002a 5200     		lsls	r2, r2, #1
 278 002c 5208     		lsrs	r2, r2, #1
 279 002e 1A60     		str	r2, [r3]
 177:Generated_Source\PSoC4/CyLib.c ****                 CySysClkLfclkPosedgeRestore();
 280              		.loc 1 177 0
 281 0030 FFF7FEFF 		bl	CySysClkLfclkPosedgeRestore
 178:Generated_Source\PSoC4/CyLib.c ****                 CyExitCriticalSection(interruptState);
 282              		.loc 1 178 0
 283 0034 FB1D     		adds	r3, r7, #7
 284 0036 1B78     		ldrb	r3, [r3]
 285 0038 1800     		movs	r0, r3
 286 003a FFF7FEFF 		bl	CyExitCriticalSection
 287              	.L12:
 179:Generated_Source\PSoC4/CyLib.c **** 
 180:Generated_Source\PSoC4/CyLib.c ****             #if (CY_IP_WCO)
 181:Generated_Source\PSoC4/CyLib.c ****                 }
 182:Generated_Source\PSoC4/CyLib.c ****                 else /* Safe to disable - shortened pulse does not impact peripheral */
 183:Generated_Source\PSoC4/CyLib.c ****                 {
 184:Generated_Source\PSoC4/CyLib.c ****                     CY_SYS_CLK_ILO_CONFIG_REG &= ( uint32 ) ( ~( uint32 )CY_SYS_CLK_ILO_CONFIG_ENAB
 185:Generated_Source\PSoC4/CyLib.c ****                 }
 186:Generated_Source\PSoC4/CyLib.c ****             #endif /* (CY_IP_WCO) */
 187:Generated_Source\PSoC4/CyLib.c **** 
 188:Generated_Source\PSoC4/CyLib.c ****             }
 189:Generated_Source\PSoC4/CyLib.c ****         }
 190:Generated_Source\PSoC4/CyLib.c ****     #else
 191:Generated_Source\PSoC4/CyLib.c ****         CY_SYS_CLK_ILO_CONFIG_REG &= ( uint32 ) ( ~( uint32 )CY_SYS_CLK_ILO_CONFIG_ENABLE);
 192:Generated_Source\PSoC4/CyLib.c ****     #endif /* (CY_IP_SRSSV2) */
 193:Generated_Source\PSoC4/CyLib.c **** }
 288              		.loc 1 193 0
 289 003e C046     		nop
 290 0040 BD46     		mov	sp, r7
 291 0042 03B0     		add	sp, sp, #12
 292              		@ sp needed
 293 0044 90BD     		pop	{r4, r7, pc}
 294              	.L14:
 295 0046 C046     		.align	2
 296              	.L13:
 297 0048 04010B40 		.word	1074462980
 298              		.cfi_endproc
 299              	.LFE3:
 300              		.size	CySysClkIloStop, .-CySysClkIloStop
 301              		.section	.text.CySysClkIloEnabled,"ax",%progbits
 302              		.align	2
 303              		.code	16
 304              		.thumb_func
 305              		.type	CySysClkIloEnabled, %function
 306              	CySysClkIloEnabled:
 307              	.LFB4:
 194:Generated_Source\PSoC4/CyLib.c **** 
 195:Generated_Source\PSoC4/CyLib.c **** #if(CY_IP_SRSSV2)
 196:Generated_Source\PSoC4/CyLib.c ****     /*******************************************************************************
 197:Generated_Source\PSoC4/CyLib.c ****     * Function Name: CySysClkIloEnabled
 198:Generated_Source\PSoC4/CyLib.c ****     ********************************************************************************
 199:Generated_Source\PSoC4/CyLib.c ****     *
 200:Generated_Source\PSoC4/CyLib.c ****     * Summary:
 201:Generated_Source\PSoC4/CyLib.c ****     *  Reports ILO enable state.
 202:Generated_Source\PSoC4/CyLib.c ****     *
ARM GAS  C:\Users\jdrd3\AppData\Local\Temp\ccRHZt6s.s 			page 10


 203:Generated_Source\PSoC4/CyLib.c ****     * Parameters:
 204:Generated_Source\PSoC4/CyLib.c ****     *  None
 205:Generated_Source\PSoC4/CyLib.c ****     *
 206:Generated_Source\PSoC4/CyLib.c ****     * Return:
 207:Generated_Source\PSoC4/CyLib.c ****     *  1 if ILO is enabled, and 0 if ILO is disabled.
 208:Generated_Source\PSoC4/CyLib.c ****     *
 209:Generated_Source\PSoC4/CyLib.c ****     *******************************************************************************/
 210:Generated_Source\PSoC4/CyLib.c ****     static uint32 CySysClkIloEnabled(void)
 211:Generated_Source\PSoC4/CyLib.c ****     {
 308              		.loc 1 211 0
 309              		.cfi_startproc
 310              		@ args = 0, pretend = 0, frame = 0
 311              		@ frame_needed = 1, uses_anonymous_args = 0
 312 0000 80B5     		push	{r7, lr}
 313              		.cfi_def_cfa_offset 8
 314              		.cfi_offset 7, -8
 315              		.cfi_offset 14, -4
 316 0002 00AF     		add	r7, sp, #0
 317              		.cfi_def_cfa_register 7
 212:Generated_Source\PSoC4/CyLib.c ****         /* Prohibits writing to WDT registers and ILO/WCO registers when not equal 0 */
 213:Generated_Source\PSoC4/CyLib.c ****         return ((0u != (CY_SYS_CLK_ILO_CONFIG_REG & (uint32)(CY_SYS_CLK_ILO_CONFIG_ENABLE))) ?
 318              		.loc 1 213 0
 319 0004 044B     		ldr	r3, .L19
 320 0006 1B68     		ldr	r3, [r3]
 214:Generated_Source\PSoC4/CyLib.c ****             (uint32) 1u :
 321              		.loc 1 214 0
 322 0008 002B     		cmp	r3, #0
 323 000a 01DA     		bge	.L16
 324              		.loc 1 214 0 is_stmt 0 discriminator 1
 325 000c 0123     		movs	r3, #1
 213:Generated_Source\PSoC4/CyLib.c ****             (uint32) 1u :
 326              		.loc 1 213 0 is_stmt 1 discriminator 1
 327 000e 00E0     		b	.L18
 328              	.L16:
 329              		.loc 1 214 0 discriminator 2
 330 0010 0023     		movs	r3, #0
 331              	.L18:
 215:Generated_Source\PSoC4/CyLib.c ****             (uint32) 0u);
 216:Generated_Source\PSoC4/CyLib.c ****     }
 332              		.loc 1 216 0 discriminator 1
 333 0012 1800     		movs	r0, r3
 334 0014 BD46     		mov	sp, r7
 335              		@ sp needed
 336 0016 80BD     		pop	{r7, pc}
 337              	.L20:
 338              		.align	2
 339              	.L19:
 340 0018 04010B40 		.word	1074462980
 341              		.cfi_endproc
 342              	.LFE4:
 343              		.size	CySysClkIloEnabled, .-CySysClkIloEnabled
 344              		.section	.text.CySysClkWriteHfclkDirect,"ax",%progbits
 345              		.align	2
 346              		.global	CySysClkWriteHfclkDirect
 347              		.code	16
 348              		.thumb_func
 349              		.type	CySysClkWriteHfclkDirect, %function
ARM GAS  C:\Users\jdrd3\AppData\Local\Temp\ccRHZt6s.s 			page 11


 350              	CySysClkWriteHfclkDirect:
 351              	.LFB5:
 217:Generated_Source\PSoC4/CyLib.c **** #endif /* (CY_IP_SRSSV2) */
 218:Generated_Source\PSoC4/CyLib.c **** 
 219:Generated_Source\PSoC4/CyLib.c **** 
 220:Generated_Source\PSoC4/CyLib.c **** /*******************************************************************************
 221:Generated_Source\PSoC4/CyLib.c **** * Function Name: CySysClkGetLfclkSource
 222:Generated_Source\PSoC4/CyLib.c **** ********************************************************************************
 223:Generated_Source\PSoC4/CyLib.c **** *
 224:Generated_Source\PSoC4/CyLib.c **** * Summary:
 225:Generated_Source\PSoC4/CyLib.c **** *  Gets the clock source for the LFCLK clock.
 226:Generated_Source\PSoC4/CyLib.c **** *  The function is applicable only for the PSoC 4100-BL and PSoC 4200-BL.
 227:Generated_Source\PSoC4/CyLib.c **** *
 228:Generated_Source\PSoC4/CyLib.c **** * Parameters:
 229:Generated_Source\PSoC4/CyLib.c **** *  None
 230:Generated_Source\PSoC4/CyLib.c **** *
 231:Generated_Source\PSoC4/CyLib.c **** * Return:
 232:Generated_Source\PSoC4/CyLib.c **** *  The LFCLK source:
 233:Generated_Source\PSoC4/CyLib.c **** *   CY_SYS_CLK_LFCLK_SRC_ILO    Internal Low Frequency (32 kHz) Oscillator (ILO)
 234:Generated_Source\PSoC4/CyLib.c **** *   CY_SYS_CLK_LFCLK_SRC_WCO    Low Frequency Watch Crystal Oscillator (WCO)
 235:Generated_Source\PSoC4/CyLib.c **** *
 236:Generated_Source\PSoC4/CyLib.c **** *******************************************************************************/
 237:Generated_Source\PSoC4/CyLib.c **** #if (CY_IP_WCO)
 238:Generated_Source\PSoC4/CyLib.c ****     static uint32 CySysClkGetLfclkSource(void)
 239:Generated_Source\PSoC4/CyLib.c ****     {
 240:Generated_Source\PSoC4/CyLib.c ****         uint32 lfclkSource;
 241:Generated_Source\PSoC4/CyLib.c ****         lfclkSource = CY_SYS_WDT_CONFIG_REG & CY_SYS_CLK_LFCLK_SEL_MASK;
 242:Generated_Source\PSoC4/CyLib.c ****         return (lfclkSource);
 243:Generated_Source\PSoC4/CyLib.c ****     }
 244:Generated_Source\PSoC4/CyLib.c **** #endif /* (CY_IP_WCO) */
 245:Generated_Source\PSoC4/CyLib.c **** 
 246:Generated_Source\PSoC4/CyLib.c **** 
 247:Generated_Source\PSoC4/CyLib.c **** /*******************************************************************************
 248:Generated_Source\PSoC4/CyLib.c **** * Function Name: CySysClkSetLfclkSource
 249:Generated_Source\PSoC4/CyLib.c **** ********************************************************************************
 250:Generated_Source\PSoC4/CyLib.c **** *
 251:Generated_Source\PSoC4/CyLib.c **** * Summary:
 252:Generated_Source\PSoC4/CyLib.c **** *  Sets the clock source for the LFCLK clock.
 253:Generated_Source\PSoC4/CyLib.c **** *
 254:Generated_Source\PSoC4/CyLib.c **** *  The switch between LFCLK sources must be done between positive edges of
 255:Generated_Source\PSoC4/CyLib.c **** *  the LFCLK, because the glitch risk is around LFCLK positive edge. To ensure
 256:Generated_Source\PSoC4/CyLib.c **** *  that the switch can be done safely, the WDT counter value is read until it
 257:Generated_Source\PSoC4/CyLib.c **** *  changes.
 258:Generated_Source\PSoC4/CyLib.c **** *
 259:Generated_Source\PSoC4/CyLib.c **** *  That means that the positive edge just finished and the switch is performed.
 260:Generated_Source\PSoC4/CyLib.c **** *  The enabled WDT counter is used for that purpose. If no counters are enabled,
 261:Generated_Source\PSoC4/CyLib.c **** *  the counter 0 is enabled. And after LFCLK source is switched, the counter 0
 262:Generated_Source\PSoC4/CyLib.c **** *  configuration is restored back.
 263:Generated_Source\PSoC4/CyLib.c **** *
 264:Generated_Source\PSoC4/CyLib.c **** *  The function is applicable only for the PSoC 4100-BL and PSoC 4200-BL.
 265:Generated_Source\PSoC4/CyLib.c **** *
 266:Generated_Source\PSoC4/CyLib.c **** * Parameters:
 267:Generated_Source\PSoC4/CyLib.c **** *  source: One of the available LFCLK sources.
 268:Generated_Source\PSoC4/CyLib.c **** *   CY_SYS_CLK_LFCLK_SRC_ILO    Internal Low Frequency (32 kHz) Oscillator (ILO)
 269:Generated_Source\PSoC4/CyLib.c **** *   CY_SYS_CLK_LFCLK_SRC_WCO    Low Frequency Watch Crystal Oscillator (WCO)
 270:Generated_Source\PSoC4/CyLib.c **** *
 271:Generated_Source\PSoC4/CyLib.c **** * Return:
ARM GAS  C:\Users\jdrd3\AppData\Local\Temp\ccRHZt6s.s 			page 12


 272:Generated_Source\PSoC4/CyLib.c **** *  None
 273:Generated_Source\PSoC4/CyLib.c **** *
 274:Generated_Source\PSoC4/CyLib.c **** * Side Effects:
 275:Generated_Source\PSoC4/CyLib.c **** *  This function will have no effect if the WDT is locked (CySysWdtLock() is
 276:Generated_Source\PSoC4/CyLib.c **** *  called). Call CySysWdtUnlock() to unlock the WDT.
 277:Generated_Source\PSoC4/CyLib.c **** *
 278:Generated_Source\PSoC4/CyLib.c **** *  The current source and the new source must both be running and stable before
 279:Generated_Source\PSoC4/CyLib.c **** *  calling this function.
 280:Generated_Source\PSoC4/CyLib.c **** *
 281:Generated_Source\PSoC4/CyLib.c **** *  Changing the LFCLK clock source may change the LFCLK clock frequency and
 282:Generated_Source\PSoC4/CyLib.c **** *  affect the functionality that uses this clock. For example, watchdog timer
 283:Generated_Source\PSoC4/CyLib.c **** *  (WDT) is clocked by LFCLK.
 284:Generated_Source\PSoC4/CyLib.c **** *
 285:Generated_Source\PSoC4/CyLib.c **** *******************************************************************************/
 286:Generated_Source\PSoC4/CyLib.c **** #if (CY_IP_WCO)
 287:Generated_Source\PSoC4/CyLib.c ****     void CySysClkSetLfclkSource(uint32 source)
 288:Generated_Source\PSoC4/CyLib.c ****     {
 289:Generated_Source\PSoC4/CyLib.c ****         uint8  interruptState;
 290:Generated_Source\PSoC4/CyLib.c **** 
 291:Generated_Source\PSoC4/CyLib.c ****         if (CySysClkGetLfclkSource() != source)
 292:Generated_Source\PSoC4/CyLib.c ****         {
 293:Generated_Source\PSoC4/CyLib.c ****             interruptState = CyEnterCriticalSection();
 294:Generated_Source\PSoC4/CyLib.c **** 
 295:Generated_Source\PSoC4/CyLib.c ****             CySysClkLfclkPosedgeCatch();
 296:Generated_Source\PSoC4/CyLib.c **** 
 297:Generated_Source\PSoC4/CyLib.c ****             CY_SYS_WDT_CONFIG_REG = (CY_SYS_WDT_CONFIG_REG & (uint32)(~CY_SYS_CLK_LFCLK_SEL_MASK)) 
 298:Generated_Source\PSoC4/CyLib.c ****                                     (source & CY_SYS_CLK_LFCLK_SEL_MASK);
 299:Generated_Source\PSoC4/CyLib.c **** 
 300:Generated_Source\PSoC4/CyLib.c ****             CySysClkLfclkPosedgeRestore();
 301:Generated_Source\PSoC4/CyLib.c **** 
 302:Generated_Source\PSoC4/CyLib.c ****             CyExitCriticalSection(interruptState);
 303:Generated_Source\PSoC4/CyLib.c ****         }
 304:Generated_Source\PSoC4/CyLib.c ****     }
 305:Generated_Source\PSoC4/CyLib.c **** #endif /* (CY_IP_WCO) */
 306:Generated_Source\PSoC4/CyLib.c **** 
 307:Generated_Source\PSoC4/CyLib.c **** 
 308:Generated_Source\PSoC4/CyLib.c **** /*******************************************************************************
 309:Generated_Source\PSoC4/CyLib.c **** * Function Name: CySysClkWriteHfclkDirect
 310:Generated_Source\PSoC4/CyLib.c **** ********************************************************************************
 311:Generated_Source\PSoC4/CyLib.c **** *
 312:Generated_Source\PSoC4/CyLib.c **** * Summary:
 313:Generated_Source\PSoC4/CyLib.c **** *  Selects the direct source for the HFCLK.
 314:Generated_Source\PSoC4/CyLib.c **** *
 315:Generated_Source\PSoC4/CyLib.c **** * Parameters:
 316:Generated_Source\PSoC4/CyLib.c **** *  clkSelect: One of the available HFCLK direct sources:
 317:Generated_Source\PSoC4/CyLib.c **** *   Define                    Source
 318:Generated_Source\PSoC4/CyLib.c **** *    CY_SYS_CLK_HFCLK_IMO      IMO
 319:Generated_Source\PSoC4/CyLib.c **** *    CY_SYS_CLK_HFCLK_EXTCLK   External clock pin
 320:Generated_Source\PSoC4/CyLib.c **** *    CY_SYS_CLK_HFCLK_ECO      External crystal oscillator
 321:Generated_Source\PSoC4/CyLib.c **** *                                           (applicable only for PSoC 4200-BL)
 322:Generated_Source\PSoC4/CyLib.c **** *
 323:Generated_Source\PSoC4/CyLib.c **** * Return:
 324:Generated_Source\PSoC4/CyLib.c **** *  None
 325:Generated_Source\PSoC4/CyLib.c **** *
 326:Generated_Source\PSoC4/CyLib.c **** * Side Effects:
 327:Generated_Source\PSoC4/CyLib.c **** *  The new source must be running and stable before calling this function.
 328:Generated_Source\PSoC4/CyLib.c **** *
ARM GAS  C:\Users\jdrd3\AppData\Local\Temp\ccRHZt6s.s 			page 13


 329:Generated_Source\PSoC4/CyLib.c **** *  PSoC 4000:
 330:Generated_Source\PSoC4/CyLib.c **** *  The SYSCLK has a maximum speed of 16 MHz, so HFCLK and SYSCLK dividers should
 331:Generated_Source\PSoC4/CyLib.c **** *  be selected in a way to not to exceed 16 MHz for the System clock.
 332:Generated_Source\PSoC4/CyLib.c **** *
 333:Generated_Source\PSoC4/CyLib.c **** *  If the SYSCLK clock frequency increases during device operation, call
 334:Generated_Source\PSoC4/CyLib.c **** *  CySysFlashSetWaitCycles() with the appropriate parameter to adjust the number
 335:Generated_Source\PSoC4/CyLib.c **** *  of clock cycles the cache will wait before sampling data comes back from Flash.
 336:Generated_Source\PSoC4/CyLib.c **** *  If the SYSCLK clock frequency decreases, you can call
 337:Generated_Source\PSoC4/CyLib.c **** *  CySysFlashSetWaitCycles() to improve the CPU performance. See
 338:Generated_Source\PSoC4/CyLib.c **** *  CySysFlashSetWaitCycles() description for more information.
 339:Generated_Source\PSoC4/CyLib.c **** *
 340:Generated_Source\PSoC4/CyLib.c **** *******************************************************************************/
 341:Generated_Source\PSoC4/CyLib.c **** void CySysClkWriteHfclkDirect(uint32 clkSelect)
 342:Generated_Source\PSoC4/CyLib.c **** {
 352              		.loc 1 342 0
 353              		.cfi_startproc
 354              		@ args = 0, pretend = 0, frame = 16
 355              		@ frame_needed = 1, uses_anonymous_args = 0
 356 0000 90B5     		push	{r4, r7, lr}
 357              		.cfi_def_cfa_offset 12
 358              		.cfi_offset 4, -12
 359              		.cfi_offset 7, -8
 360              		.cfi_offset 14, -4
 361 0002 85B0     		sub	sp, sp, #20
 362              		.cfi_def_cfa_offset 32
 363 0004 00AF     		add	r7, sp, #0
 364              		.cfi_def_cfa_register 7
 365 0006 7860     		str	r0, [r7, #4]
 343:Generated_Source\PSoC4/CyLib.c ****     uint8  interruptState;
 344:Generated_Source\PSoC4/CyLib.c **** 
 345:Generated_Source\PSoC4/CyLib.c ****     interruptState = CyEnterCriticalSection();
 366              		.loc 1 345 0
 367 0008 0F23     		movs	r3, #15
 368 000a FC18     		adds	r4, r7, r3
 369 000c FFF7FEFF 		bl	CyEnterCriticalSection
 370 0010 0300     		movs	r3, r0
 371 0012 2370     		strb	r3, [r4]
 346:Generated_Source\PSoC4/CyLib.c **** 
 347:Generated_Source\PSoC4/CyLib.c ****     CY_SYS_CLK_SELECT_REG = ((CY_SYS_CLK_SELECT_REG & (( uint32 ) ~(( uint32 )CY_SYS_CLK_SELECT_DIR
 372              		.loc 1 347 0
 373 0014 0A4B     		ldr	r3, .L22
 374 0016 0A4A     		ldr	r2, .L22
 375 0018 1268     		ldr	r2, [r2]
 376 001a 0721     		movs	r1, #7
 377 001c 8A43     		bics	r2, r1
 378 001e 1100     		movs	r1, r2
 348:Generated_Source\PSoC4/CyLib.c ****                         (( uint32 ) (clkSelect & ( uint32 )CY_SYS_CLK_SELECT_DIRECT_SEL_PARAM_MASK)
 379              		.loc 1 348 0
 380 0020 7A68     		ldr	r2, [r7, #4]
 381 0022 0120     		movs	r0, #1
 382 0024 0240     		ands	r2, r0
 347:Generated_Source\PSoC4/CyLib.c ****                         (( uint32 ) (clkSelect & ( uint32 )CY_SYS_CLK_SELECT_DIRECT_SEL_PARAM_MASK)
 383              		.loc 1 347 0
 384 0026 0A43     		orrs	r2, r1
 385 0028 1A60     		str	r2, [r3]
 349:Generated_Source\PSoC4/CyLib.c **** 
 350:Generated_Source\PSoC4/CyLib.c ****     CyExitCriticalSection(interruptState);
ARM GAS  C:\Users\jdrd3\AppData\Local\Temp\ccRHZt6s.s 			page 14


 386              		.loc 1 350 0
 387 002a 0F23     		movs	r3, #15
 388 002c FB18     		adds	r3, r7, r3
 389 002e 1B78     		ldrb	r3, [r3]
 390 0030 1800     		movs	r0, r3
 391 0032 FFF7FEFF 		bl	CyExitCriticalSection
 351:Generated_Source\PSoC4/CyLib.c **** }
 392              		.loc 1 351 0
 393 0036 C046     		nop
 394 0038 BD46     		mov	sp, r7
 395 003a 05B0     		add	sp, sp, #20
 396              		@ sp needed
 397 003c 90BD     		pop	{r4, r7, pc}
 398              	.L23:
 399 003e C046     		.align	2
 400              	.L22:
 401 0040 00010B40 		.word	1074462976
 402              		.cfi_endproc
 403              	.LFE5:
 404              		.size	CySysClkWriteHfclkDirect, .-CySysClkWriteHfclkDirect
 405              		.section	.text.CySysClkWriteSysclkDiv,"ax",%progbits
 406              		.align	2
 407              		.global	CySysClkWriteSysclkDiv
 408              		.code	16
 409              		.thumb_func
 410              		.type	CySysClkWriteSysclkDiv, %function
 411              	CySysClkWriteSysclkDiv:
 412              	.LFB6:
 352:Generated_Source\PSoC4/CyLib.c **** 
 353:Generated_Source\PSoC4/CyLib.c **** 
 354:Generated_Source\PSoC4/CyLib.c **** /*******************************************************************************
 355:Generated_Source\PSoC4/CyLib.c **** * Function Name: CySysClkWriteSysclkDiv
 356:Generated_Source\PSoC4/CyLib.c **** ********************************************************************************
 357:Generated_Source\PSoC4/CyLib.c **** *
 358:Generated_Source\PSoC4/CyLib.c **** * Summary:
 359:Generated_Source\PSoC4/CyLib.c **** *  Selects the prescaler divide amount for SYSCLK from HFCLK.
 360:Generated_Source\PSoC4/CyLib.c **** *
 361:Generated_Source\PSoC4/CyLib.c **** * Parameters:
 362:Generated_Source\PSoC4/CyLib.c **** *  divider: Power of 2 prescaler selection
 363:Generated_Source\PSoC4/CyLib.c **** *
 364:Generated_Source\PSoC4/CyLib.c **** *   Define                        Description
 365:Generated_Source\PSoC4/CyLib.c **** *   CY_SYS_CLK_SYSCLK_DIV1        SYSCLK = HFCLK / 1
 366:Generated_Source\PSoC4/CyLib.c **** *   CY_SYS_CLK_SYSCLK_DIV2        SYSCLK = HFCLK / 2
 367:Generated_Source\PSoC4/CyLib.c **** *   CY_SYS_CLK_SYSCLK_DIV4        SYSCLK = HFCLK / 4
 368:Generated_Source\PSoC4/CyLib.c **** *   CY_SYS_CLK_SYSCLK_DIV8        SYSCLK = HFCLK / 8
 369:Generated_Source\PSoC4/CyLib.c **** *   CY_SYS_CLK_SYSCLK_DIV16       SYSCLK = HFCLK / 16  (N/A for 4000 Family)
 370:Generated_Source\PSoC4/CyLib.c **** *   CY_SYS_CLK_SYSCLK_DIV32       SYSCLK = HFCLK / 32  (N/A for 4000 Family)
 371:Generated_Source\PSoC4/CyLib.c **** *   CY_SYS_CLK_SYSCLK_DIV64       SYSCLK = HFCLK / 64  (N/A for 4000 Family)
 372:Generated_Source\PSoC4/CyLib.c **** *   CY_SYS_CLK_SYSCLK_DIV128      SYSCLK = HFCLK / 128 (N/A for 4000 Family)
 373:Generated_Source\PSoC4/CyLib.c **** *
 374:Generated_Source\PSoC4/CyLib.c **** * Return:
 375:Generated_Source\PSoC4/CyLib.c **** *  None
 376:Generated_Source\PSoC4/CyLib.c **** *
 377:Generated_Source\PSoC4/CyLib.c **** * Side Effects:
 378:Generated_Source\PSoC4/CyLib.c **** *  4000 Family:
 379:Generated_Source\PSoC4/CyLib.c **** *  The SYS_CLK has the speed of 16 MHz, so dividers HF_CLK and SYS_CLK
 380:Generated_Source\PSoC4/CyLib.c **** *  dividers should be selected in a way, not to exceed 16 MHz for SYS_CLK.
ARM GAS  C:\Users\jdrd3\AppData\Local\Temp\ccRHZt6s.s 			page 15


 381:Generated_Source\PSoC4/CyLib.c **** *
 382:Generated_Source\PSoC4/CyLib.c **** *  If the SYSCLK clock frequency increases during the device operation, call
 383:Generated_Source\PSoC4/CyLib.c **** *  CySysFlashSetWaitCycles() with the appropriate parameter to adjust the number
 384:Generated_Source\PSoC4/CyLib.c **** *  of clock cycles the cache will wait before sampling data comes back from Flash.
 385:Generated_Source\PSoC4/CyLib.c **** *  If the SYSCLK clock frequency decreases, you can call
 386:Generated_Source\PSoC4/CyLib.c **** *  CySysFlashSetWaitCycles() to improve the CPU performance. See
 387:Generated_Source\PSoC4/CyLib.c **** *  CySysFlashSetWaitCycles() description for more information.
 388:Generated_Source\PSoC4/CyLib.c **** *
 389:Generated_Source\PSoC4/CyLib.c **** *******************************************************************************/
 390:Generated_Source\PSoC4/CyLib.c **** void CySysClkWriteSysclkDiv(uint32 divider)
 391:Generated_Source\PSoC4/CyLib.c **** {
 413              		.loc 1 391 0
 414              		.cfi_startproc
 415              		@ args = 0, pretend = 0, frame = 16
 416              		@ frame_needed = 1, uses_anonymous_args = 0
 417 0000 90B5     		push	{r4, r7, lr}
 418              		.cfi_def_cfa_offset 12
 419              		.cfi_offset 4, -12
 420              		.cfi_offset 7, -8
 421              		.cfi_offset 14, -4
 422 0002 85B0     		sub	sp, sp, #20
 423              		.cfi_def_cfa_offset 32
 424 0004 00AF     		add	r7, sp, #0
 425              		.cfi_def_cfa_register 7
 426 0006 7860     		str	r0, [r7, #4]
 392:Generated_Source\PSoC4/CyLib.c ****     uint8  interruptState;
 393:Generated_Source\PSoC4/CyLib.c **** 
 394:Generated_Source\PSoC4/CyLib.c ****     interruptState = CyEnterCriticalSection();
 427              		.loc 1 394 0
 428 0008 0F23     		movs	r3, #15
 429 000a FC18     		adds	r4, r7, r3
 430 000c FFF7FEFF 		bl	CyEnterCriticalSection
 431 0010 0300     		movs	r3, r0
 432 0012 2370     		strb	r3, [r4]
 395:Generated_Source\PSoC4/CyLib.c **** 
 396:Generated_Source\PSoC4/CyLib.c ****     CY_SYS_CLK_SELECT_REG = ((uint32)(((uint32)divider & CY_SYS_CLK_SELECT_SYSCLK_DIV_MASK) <<
 433              		.loc 1 396 0
 434 0014 0A4B     		ldr	r3, .L25
 435 0016 7A68     		ldr	r2, [r7, #4]
 436 0018 D104     		lsls	r1, r2, #19
 437 001a E022     		movs	r2, #224
 438 001c 9203     		lsls	r2, r2, #14
 439 001e 1140     		ands	r1, r2
 397:Generated_Source\PSoC4/CyLib.c ****                                     CY_SYS_CLK_SELECT_SYSCLK_DIV_SHIFT)) |
 398:Generated_Source\PSoC4/CyLib.c ****                             (CY_SYS_CLK_SELECT_REG & ((uint32)(~(uint32)(CY_SYS_CLK_SELECT_SYSCLK_D
 440              		.loc 1 398 0
 441 0020 074A     		ldr	r2, .L25
 442 0022 1268     		ldr	r2, [r2]
 443 0024 0748     		ldr	r0, .L25+4
 444 0026 0240     		ands	r2, r0
 397:Generated_Source\PSoC4/CyLib.c ****                                     CY_SYS_CLK_SELECT_SYSCLK_DIV_SHIFT)) |
 445              		.loc 1 397 0
 446 0028 0A43     		orrs	r2, r1
 396:Generated_Source\PSoC4/CyLib.c ****                                     CY_SYS_CLK_SELECT_SYSCLK_DIV_SHIFT)) |
 447              		.loc 1 396 0
 448 002a 1A60     		str	r2, [r3]
 399:Generated_Source\PSoC4/CyLib.c ****                                     CY_SYS_CLK_SELECT_SYSCLK_DIV_SHIFT))));
ARM GAS  C:\Users\jdrd3\AppData\Local\Temp\ccRHZt6s.s 			page 16


 400:Generated_Source\PSoC4/CyLib.c **** 
 401:Generated_Source\PSoC4/CyLib.c ****     CyExitCriticalSection(interruptState);
 449              		.loc 1 401 0
 450 002c 0F23     		movs	r3, #15
 451 002e FB18     		adds	r3, r7, r3
 452 0030 1B78     		ldrb	r3, [r3]
 453 0032 1800     		movs	r0, r3
 454 0034 FFF7FEFF 		bl	CyExitCriticalSection
 402:Generated_Source\PSoC4/CyLib.c **** }
 455              		.loc 1 402 0
 456 0038 C046     		nop
 457 003a BD46     		mov	sp, r7
 458 003c 05B0     		add	sp, sp, #20
 459              		@ sp needed
 460 003e 90BD     		pop	{r4, r7, pc}
 461              	.L26:
 462              		.align	2
 463              	.L25:
 464 0040 00010B40 		.word	1074462976
 465 0044 FFFFC7FF 		.word	-3670017
 466              		.cfi_endproc
 467              	.LFE6:
 468              		.size	CySysClkWriteSysclkDiv, .-CySysClkWriteSysclkDiv
 469              		.section	.text.CySysClkWriteImoFreq,"ax",%progbits
 470              		.align	2
 471              		.global	CySysClkWriteImoFreq
 472              		.code	16
 473              		.thumb_func
 474              		.type	CySysClkWriteImoFreq, %function
 475              	CySysClkWriteImoFreq:
 476              	.LFB7:
 403:Generated_Source\PSoC4/CyLib.c **** 
 404:Generated_Source\PSoC4/CyLib.c **** 
 405:Generated_Source\PSoC4/CyLib.c **** #if(CY_IP_SRSSV2)
 406:Generated_Source\PSoC4/CyLib.c **** 
 407:Generated_Source\PSoC4/CyLib.c ****     /*******************************************************************************
 408:Generated_Source\PSoC4/CyLib.c ****     * Function Name: CySysClkWriteImoFreq
 409:Generated_Source\PSoC4/CyLib.c ****     ********************************************************************************
 410:Generated_Source\PSoC4/CyLib.c ****     *
 411:Generated_Source\PSoC4/CyLib.c ****     * Summary:
 412:Generated_Source\PSoC4/CyLib.c ****     *  Sets the frequency of the IMO.
 413:Generated_Source\PSoC4/CyLib.c ****     *
 414:Generated_Source\PSoC4/CyLib.c ****     * Parameters:
 415:Generated_Source\PSoC4/CyLib.c ****     *  freq: Valid range [3-48].  Frequency for operation of the IMO.
 416:Generated_Source\PSoC4/CyLib.c ****     *  Note: Invalid frequency will be ignored.
 417:Generated_Source\PSoC4/CyLib.c ****     *
 418:Generated_Source\PSoC4/CyLib.c ****     * Return:
 419:Generated_Source\PSoC4/CyLib.c ****     *  None
 420:Generated_Source\PSoC4/CyLib.c ****     *
 421:Generated_Source\PSoC4/CyLib.c ****     * Side Effects:
 422:Generated_Source\PSoC4/CyLib.c ****     *  If the SYSCLK clock frequency increases during the device operation, call
 423:Generated_Source\PSoC4/CyLib.c ****     *  CySysFlashSetWaitCycles() with the appropriate parameter to adjust the number
 424:Generated_Source\PSoC4/CyLib.c ****     *  of clock cycles the cache will wait before sampling data comes back from Flash.
 425:Generated_Source\PSoC4/CyLib.c ****     *  If the SYSCLK clock frequency decreases, you can call
 426:Generated_Source\PSoC4/CyLib.c ****     *  CySysFlashSetWaitCycles() to improve the CPU performance.
 427:Generated_Source\PSoC4/CyLib.c ****     *  See CySysFlashSetWaitCycles() description for more information.
 428:Generated_Source\PSoC4/CyLib.c ****     *
ARM GAS  C:\Users\jdrd3\AppData\Local\Temp\ccRHZt6s.s 			page 17


 429:Generated_Source\PSoC4/CyLib.c ****     *******************************************************************************/
 430:Generated_Source\PSoC4/CyLib.c ****     void CySysClkWriteImoFreq(uint32 freq)
 431:Generated_Source\PSoC4/CyLib.c ****     {
 477              		.loc 1 431 0
 478              		.cfi_startproc
 479              		@ args = 0, pretend = 0, frame = 16
 480              		@ frame_needed = 1, uses_anonymous_args = 0
 481 0000 90B5     		push	{r4, r7, lr}
 482              		.cfi_def_cfa_offset 12
 483              		.cfi_offset 4, -12
 484              		.cfi_offset 7, -8
 485              		.cfi_offset 14, -4
 486 0002 85B0     		sub	sp, sp, #20
 487              		.cfi_def_cfa_offset 32
 488 0004 00AF     		add	r7, sp, #0
 489              		.cfi_def_cfa_register 7
 490 0006 7860     		str	r0, [r7, #4]
 432:Generated_Source\PSoC4/CyLib.c ****         uint8  bgTrim4;
 433:Generated_Source\PSoC4/CyLib.c ****         uint8  bgTrim5;
 434:Generated_Source\PSoC4/CyLib.c ****         uint8  interruptState;
 435:Generated_Source\PSoC4/CyLib.c ****         uint8  newImoTrim2Value;
 436:Generated_Source\PSoC4/CyLib.c ****         uint8  currentImoTrim2Value;
 437:Generated_Source\PSoC4/CyLib.c **** 
 438:Generated_Source\PSoC4/CyLib.c **** 
 439:Generated_Source\PSoC4/CyLib.c ****         if ((freq >= CY_SYS_CLK_IMO_MIN_FREQ_MHZ) && (freq <= CY_SYS_CLK_IMO_MAX_FREQ_MHZ))
 491              		.loc 1 439 0
 492 0008 7B68     		ldr	r3, [r7, #4]
 493 000a 022B     		cmp	r3, #2
 494 000c 00D8     		bhi	.LCB311
 495 000e BBE0     		b	.L28	@long jump
 496              	.LCB311:
 497              		.loc 1 439 0 is_stmt 0 discriminator 1
 498 0010 7B68     		ldr	r3, [r7, #4]
 499 0012 302B     		cmp	r3, #48
 500 0014 00D9     		bls	.LCB314
 501 0016 B7E0     		b	.L28	@long jump
 502              	.LCB314:
 440:Generated_Source\PSoC4/CyLib.c ****         {
 441:Generated_Source\PSoC4/CyLib.c ****             if(freq <= CY_SFLASH_IMO_MAXF0_REG)
 503              		.loc 1 441 0 is_stmt 1
 504 0018 5F4B     		ldr	r3, .L39
 505 001a 1B78     		ldrb	r3, [r3]
 506 001c DBB2     		uxtb	r3, r3
 507 001e 1A00     		movs	r2, r3
 508 0020 7B68     		ldr	r3, [r7, #4]
 509 0022 9A42     		cmp	r2, r3
 510 0024 0AD3     		bcc	.L29
 442:Generated_Source\PSoC4/CyLib.c ****             {
 443:Generated_Source\PSoC4/CyLib.c ****                 bgTrim4 = CY_SFLASH_IMO_ABS0_REG;
 511              		.loc 1 443 0
 512 0026 5D4A     		ldr	r2, .L39+4
 513 0028 0F23     		movs	r3, #15
 514 002a FB18     		adds	r3, r7, r3
 515 002c 1278     		ldrb	r2, [r2]
 516 002e 1A70     		strb	r2, [r3]
 444:Generated_Source\PSoC4/CyLib.c ****                 bgTrim5 = CY_SFLASH_IMO_TMPCO0_REG;
 517              		.loc 1 444 0
ARM GAS  C:\Users\jdrd3\AppData\Local\Temp\ccRHZt6s.s 			page 18


 518 0030 5B4A     		ldr	r2, .L39+8
 519 0032 0E23     		movs	r3, #14
 520 0034 FB18     		adds	r3, r7, r3
 521 0036 1278     		ldrb	r2, [r2]
 522 0038 1A70     		strb	r2, [r3]
 523 003a 3FE0     		b	.L30
 524              	.L29:
 445:Generated_Source\PSoC4/CyLib.c ****             }
 446:Generated_Source\PSoC4/CyLib.c ****             else if(freq <= CY_SFLASH_IMO_MAXF1_REG)
 525              		.loc 1 446 0
 526 003c 594B     		ldr	r3, .L39+12
 527 003e 1B78     		ldrb	r3, [r3]
 528 0040 DBB2     		uxtb	r3, r3
 529 0042 1A00     		movs	r2, r3
 530 0044 7B68     		ldr	r3, [r7, #4]
 531 0046 9A42     		cmp	r2, r3
 532 0048 0AD3     		bcc	.L31
 447:Generated_Source\PSoC4/CyLib.c ****             {
 448:Generated_Source\PSoC4/CyLib.c ****                 bgTrim4 = CY_SFLASH_IMO_ABS1_REG;
 533              		.loc 1 448 0
 534 004a 574A     		ldr	r2, .L39+16
 535 004c 0F23     		movs	r3, #15
 536 004e FB18     		adds	r3, r7, r3
 537 0050 1278     		ldrb	r2, [r2]
 538 0052 1A70     		strb	r2, [r3]
 449:Generated_Source\PSoC4/CyLib.c ****                 bgTrim5 = CY_SFLASH_IMO_TMPCO1_REG;
 539              		.loc 1 449 0
 540 0054 554A     		ldr	r2, .L39+20
 541 0056 0E23     		movs	r3, #14
 542 0058 FB18     		adds	r3, r7, r3
 543 005a 1278     		ldrb	r2, [r2]
 544 005c 1A70     		strb	r2, [r3]
 545 005e 2DE0     		b	.L30
 546              	.L31:
 450:Generated_Source\PSoC4/CyLib.c ****             }
 451:Generated_Source\PSoC4/CyLib.c ****             else if(freq <= CY_SFLASH_IMO_MAXF2_REG)
 547              		.loc 1 451 0
 548 0060 534B     		ldr	r3, .L39+24
 549 0062 1B78     		ldrb	r3, [r3]
 550 0064 DBB2     		uxtb	r3, r3
 551 0066 1A00     		movs	r2, r3
 552 0068 7B68     		ldr	r3, [r7, #4]
 553 006a 9A42     		cmp	r2, r3
 554 006c 0AD3     		bcc	.L32
 452:Generated_Source\PSoC4/CyLib.c ****             {
 453:Generated_Source\PSoC4/CyLib.c ****                 bgTrim4 = CY_SFLASH_IMO_ABS2_REG;
 555              		.loc 1 453 0
 556 006e 514A     		ldr	r2, .L39+28
 557 0070 0F23     		movs	r3, #15
 558 0072 FB18     		adds	r3, r7, r3
 559 0074 1278     		ldrb	r2, [r2]
 560 0076 1A70     		strb	r2, [r3]
 454:Generated_Source\PSoC4/CyLib.c ****                 bgTrim5 = CY_SFLASH_IMO_TMPCO2_REG;
 561              		.loc 1 454 0
 562 0078 4F4A     		ldr	r2, .L39+32
 563 007a 0E23     		movs	r3, #14
 564 007c FB18     		adds	r3, r7, r3
ARM GAS  C:\Users\jdrd3\AppData\Local\Temp\ccRHZt6s.s 			page 19


 565 007e 1278     		ldrb	r2, [r2]
 566 0080 1A70     		strb	r2, [r3]
 567 0082 1BE0     		b	.L30
 568              	.L32:
 455:Generated_Source\PSoC4/CyLib.c ****             }
 456:Generated_Source\PSoC4/CyLib.c ****             else if(freq <= CY_SFLASH_IMO_MAXF3_REG)
 569              		.loc 1 456 0
 570 0084 4D4B     		ldr	r3, .L39+36
 571 0086 1B78     		ldrb	r3, [r3]
 572 0088 DBB2     		uxtb	r3, r3
 573 008a 1A00     		movs	r2, r3
 574 008c 7B68     		ldr	r3, [r7, #4]
 575 008e 9A42     		cmp	r2, r3
 576 0090 0AD3     		bcc	.L33
 457:Generated_Source\PSoC4/CyLib.c ****             {
 458:Generated_Source\PSoC4/CyLib.c ****                 bgTrim4 = CY_SFLASH_IMO_ABS3_REG;
 577              		.loc 1 458 0
 578 0092 4B4A     		ldr	r2, .L39+40
 579 0094 0F23     		movs	r3, #15
 580 0096 FB18     		adds	r3, r7, r3
 581 0098 1278     		ldrb	r2, [r2]
 582 009a 1A70     		strb	r2, [r3]
 459:Generated_Source\PSoC4/CyLib.c ****                 bgTrim5 = CY_SFLASH_IMO_TMPCO3_REG;
 583              		.loc 1 459 0
 584 009c 494A     		ldr	r2, .L39+44
 585 009e 0E23     		movs	r3, #14
 586 00a0 FB18     		adds	r3, r7, r3
 587 00a2 1278     		ldrb	r2, [r2]
 588 00a4 1A70     		strb	r2, [r3]
 589 00a6 09E0     		b	.L30
 590              	.L33:
 460:Generated_Source\PSoC4/CyLib.c ****             }
 461:Generated_Source\PSoC4/CyLib.c ****             else
 462:Generated_Source\PSoC4/CyLib.c ****             {
 463:Generated_Source\PSoC4/CyLib.c ****                 bgTrim4 = CY_SFLASH_IMO_ABS4_REG;
 591              		.loc 1 463 0
 592 00a8 474A     		ldr	r2, .L39+48
 593 00aa 0F23     		movs	r3, #15
 594 00ac FB18     		adds	r3, r7, r3
 595 00ae 1278     		ldrb	r2, [r2]
 596 00b0 1A70     		strb	r2, [r3]
 464:Generated_Source\PSoC4/CyLib.c ****                 bgTrim5 = CY_SFLASH_IMO_TMPCO4_REG;
 597              		.loc 1 464 0
 598 00b2 464A     		ldr	r2, .L39+52
 599 00b4 0E23     		movs	r3, #14
 600 00b6 FB18     		adds	r3, r7, r3
 601 00b8 1278     		ldrb	r2, [r2]
 602 00ba 1A70     		strb	r2, [r3]
 603              	.L30:
 465:Generated_Source\PSoC4/CyLib.c ****             }
 466:Generated_Source\PSoC4/CyLib.c **** 
 467:Generated_Source\PSoC4/CyLib.c ****             /* Get IMO_TRIM2 value for the new frequency */
 468:Generated_Source\PSoC4/CyLib.c ****             newImoTrim2Value = cyImoFreqMhz2Reg[freq - CY_SYS_CLK_IMO_FREQ_TABLE_OFFSET];
 604              		.loc 1 468 0
 605 00bc 7B68     		ldr	r3, [r7, #4]
 606 00be DA1E     		subs	r2, r3, #3
 607 00c0 0C23     		movs	r3, #12
ARM GAS  C:\Users\jdrd3\AppData\Local\Temp\ccRHZt6s.s 			page 20


 608 00c2 FB18     		adds	r3, r7, r3
 609 00c4 4249     		ldr	r1, .L39+56
 610 00c6 8A5C     		ldrb	r2, [r1, r2]
 611 00c8 1A70     		strb	r2, [r3]
 469:Generated_Source\PSoC4/CyLib.c **** 
 470:Generated_Source\PSoC4/CyLib.c **** 
 471:Generated_Source\PSoC4/CyLib.c ****             interruptState = CyEnterCriticalSection();
 612              		.loc 1 471 0
 613 00ca 0B23     		movs	r3, #11
 614 00cc FC18     		adds	r4, r7, r3
 615 00ce FFF7FEFF 		bl	CyEnterCriticalSection
 616 00d2 0300     		movs	r3, r0
 617 00d4 2370     		strb	r3, [r4]
 472:Generated_Source\PSoC4/CyLib.c **** 
 473:Generated_Source\PSoC4/CyLib.c ****             /***************************************************************************
 474:Generated_Source\PSoC4/CyLib.c ****             * The IMO can have a different trim per frequency. To avoid possible corner
 475:Generated_Source\PSoC4/CyLib.c ****             * cases where a trim change can exceed the maximum frequency, the trim must
 476:Generated_Source\PSoC4/CyLib.c ****             * be applied at a frequency that is low enough.
 477:Generated_Source\PSoC4/CyLib.c ****             *
 478:Generated_Source\PSoC4/CyLib.c ****             * Comparing IMO_TRIM2 values for the current and new frequencies, since
 479:Generated_Source\PSoC4/CyLib.c ****             * IMO_TRIM2 value as a function of IMO frequency is a strictly increasing
 480:Generated_Source\PSoC4/CyLib.c ****             * function and is time-invariant.
 481:Generated_Source\PSoC4/CyLib.c ****             ***************************************************************************/
 482:Generated_Source\PSoC4/CyLib.c ****             if ((newImoTrim2Value >= CY_SYS_CLK_IMO_BOUNDARY_FREQ_TRIM2) && (freq >= CY_SYS_CLK_IMO
 618              		.loc 1 482 0
 619 00d6 0C23     		movs	r3, #12
 620 00d8 FB18     		adds	r3, r7, r3
 621 00da 1B78     		ldrb	r3, [r3]
 622 00dc 2F2B     		cmp	r3, #47
 623 00de 0DD9     		bls	.L34
 624              		.loc 1 482 0 is_stmt 0 discriminator 1
 625 00e0 7B68     		ldr	r3, [r7, #4]
 626 00e2 2A2B     		cmp	r3, #42
 627 00e4 0AD9     		bls	.L34
 483:Generated_Source\PSoC4/CyLib.c ****             {
 484:Generated_Source\PSoC4/CyLib.c ****                 /* Set boundary IMO frequency: safe for IMO above 48 MHZ trimming */
 485:Generated_Source\PSoC4/CyLib.c ****                 CY_SYS_CLK_IMO_TRIM2_REG = (uint32) cyImoFreqMhz2Reg[CY_SYS_CLK_IMO_TEMP_FREQ_MHZ -
 628              		.loc 1 485 0 is_stmt 1
 629 00e6 3B4B     		ldr	r3, .L39+60
 630 00e8 1922     		movs	r2, #25
 631 00ea 1A60     		str	r2, [r3]
 486:Generated_Source\PSoC4/CyLib.c ****                                                                      CY_SYS_CLK_IMO_FREQ_TABLE_OFFS
 487:Generated_Source\PSoC4/CyLib.c **** 
 488:Generated_Source\PSoC4/CyLib.c ****                 CyDelayCycles(CY_SYS_CLK_IMO_FREQ_TIMEOUT_CYCLES);
 632              		.loc 1 488 0
 633 00ec 0520     		movs	r0, #5
 634 00ee FFF7FEFF 		bl	CyDelayCycles
 489:Generated_Source\PSoC4/CyLib.c **** 
 490:Generated_Source\PSoC4/CyLib.c ****                 currentImoTrim2Value = CY_SYS_CLK_IMO_TEMP_FREQ_TRIM2;
 635              		.loc 1 490 0
 636 00f2 0D23     		movs	r3, #13
 637 00f4 FB18     		adds	r3, r7, r3
 638 00f6 1922     		movs	r2, #25
 639 00f8 1A70     		strb	r2, [r3]
 640 00fa 07E0     		b	.L35
 641              	.L34:
 491:Generated_Source\PSoC4/CyLib.c ****             }
ARM GAS  C:\Users\jdrd3\AppData\Local\Temp\ccRHZt6s.s 			page 21


 492:Generated_Source\PSoC4/CyLib.c ****             else
 493:Generated_Source\PSoC4/CyLib.c ****             {
 494:Generated_Source\PSoC4/CyLib.c ****                 currentImoTrim2Value = (uint8) (CY_SYS_CLK_IMO_TRIM2_REG & CY_SYS_CLK_IMO_FREQ_BITS
 642              		.loc 1 494 0
 643 00fc 354B     		ldr	r3, .L39+60
 644 00fe 1B68     		ldr	r3, [r3]
 645 0100 DAB2     		uxtb	r2, r3
 646 0102 0D23     		movs	r3, #13
 647 0104 FB18     		adds	r3, r7, r3
 648 0106 3F21     		movs	r1, #63
 649 0108 0A40     		ands	r2, r1
 650 010a 1A70     		strb	r2, [r3]
 651              	.L35:
 495:Generated_Source\PSoC4/CyLib.c ****             }
 496:Generated_Source\PSoC4/CyLib.c **** 
 497:Generated_Source\PSoC4/CyLib.c **** 
 498:Generated_Source\PSoC4/CyLib.c ****             /***************************************************************************
 499:Generated_Source\PSoC4/CyLib.c ****             * A trim change needs to be allowed to settle (within 5us) before the Freq
 500:Generated_Source\PSoC4/CyLib.c ****             * can be changed to a new frequency.
 501:Generated_Source\PSoC4/CyLib.c ****             *
 502:Generated_Source\PSoC4/CyLib.c ****             * Comparing IMO_TRIM2 values for the current and new frequencies, since
 503:Generated_Source\PSoC4/CyLib.c ****             * IMO_TRIM2 value as a function of IMO frequency is a strictly increasing
 504:Generated_Source\PSoC4/CyLib.c ****             * function and is time-invariant.
 505:Generated_Source\PSoC4/CyLib.c ****             ***************************************************************************/
 506:Generated_Source\PSoC4/CyLib.c ****             if (newImoTrim2Value < currentImoTrim2Value)
 652              		.loc 1 506 0
 653 010c 0C23     		movs	r3, #12
 654 010e FA18     		adds	r2, r7, r3
 655 0110 0D23     		movs	r3, #13
 656 0112 FB18     		adds	r3, r7, r3
 657 0114 1278     		ldrb	r2, [r2]
 658 0116 1B78     		ldrb	r3, [r3]
 659 0118 9A42     		cmp	r2, r3
 660 011a 08D2     		bcs	.L36
 507:Generated_Source\PSoC4/CyLib.c ****             {
 508:Generated_Source\PSoC4/CyLib.c ****                 /* Set new IMO frequency */
 509:Generated_Source\PSoC4/CyLib.c ****                 CY_SYS_CLK_IMO_TRIM2_REG = cyImoFreqMhz2Reg[freq - CY_SYS_CLK_IMO_FREQ_TABLE_OFFSET
 661              		.loc 1 509 0
 662 011c 2D4B     		ldr	r3, .L39+60
 663 011e 7A68     		ldr	r2, [r7, #4]
 664 0120 033A     		subs	r2, r2, #3
 665 0122 2B49     		ldr	r1, .L39+56
 666 0124 8A5C     		ldrb	r2, [r1, r2]
 667 0126 1A60     		str	r2, [r3]
 510:Generated_Source\PSoC4/CyLib.c ****                 CyDelayCycles(CY_SYS_CLK_IMO_FREQ_TIMEOUT_CYCLES);
 668              		.loc 1 510 0
 669 0128 0520     		movs	r0, #5
 670 012a FFF7FEFF 		bl	CyDelayCycles
 671              	.L36:
 511:Generated_Source\PSoC4/CyLib.c ****             }
 512:Generated_Source\PSoC4/CyLib.c **** 
 513:Generated_Source\PSoC4/CyLib.c ****             /* Set trims for the new IMO frequency */
 514:Generated_Source\PSoC4/CyLib.c ****             CY_SYS_CLK_IMO_TRIM1_REG = (uint32) CY_SFLASH_IMO_TRIM_REG(freq - CY_SYS_CLK_IMO_FREQ_T
 672              		.loc 1 514 0
 673 012e 2A4B     		ldr	r3, .L39+64
 674 0130 7A68     		ldr	r2, [r7, #4]
 675 0132 2649     		ldr	r1, .L39+52
ARM GAS  C:\Users\jdrd3\AppData\Local\Temp\ccRHZt6s.s 			page 22


 676 0134 8C46     		mov	ip, r1
 677 0136 6244     		add	r2, r2, ip
 678 0138 1278     		ldrb	r2, [r2]
 679 013a D2B2     		uxtb	r2, r2
 680 013c 1A60     		str	r2, [r3]
 515:Generated_Source\PSoC4/CyLib.c ****             CY_PWR_BG_TRIM4_REG  = bgTrim4;
 681              		.loc 1 515 0
 682 013e 274B     		ldr	r3, .L39+68
 683 0140 0F22     		movs	r2, #15
 684 0142 BA18     		adds	r2, r7, r2
 685 0144 1278     		ldrb	r2, [r2]
 686 0146 1A60     		str	r2, [r3]
 516:Generated_Source\PSoC4/CyLib.c ****             CY_PWR_BG_TRIM5_REG  = bgTrim5;
 687              		.loc 1 516 0
 688 0148 254B     		ldr	r3, .L39+72
 689 014a 0E22     		movs	r2, #14
 690 014c BA18     		adds	r2, r7, r2
 691 014e 1278     		ldrb	r2, [r2]
 692 0150 1A60     		str	r2, [r3]
 517:Generated_Source\PSoC4/CyLib.c ****             CyDelayUs(CY_SYS_CLK_IMO_TRIM_TIMEOUT_US);
 693              		.loc 1 517 0
 694 0152 0520     		movs	r0, #5
 695 0154 FFF7FEFF 		bl	CyDelayUs
 518:Generated_Source\PSoC4/CyLib.c **** 
 519:Generated_Source\PSoC4/CyLib.c ****             if (newImoTrim2Value > currentImoTrim2Value)
 696              		.loc 1 519 0
 697 0158 0C23     		movs	r3, #12
 698 015a FA18     		adds	r2, r7, r3
 699 015c 0D23     		movs	r3, #13
 700 015e FB18     		adds	r3, r7, r3
 701 0160 1278     		ldrb	r2, [r2]
 702 0162 1B78     		ldrb	r3, [r3]
 703 0164 9A42     		cmp	r2, r3
 704 0166 08D9     		bls	.L37
 520:Generated_Source\PSoC4/CyLib.c ****             {
 521:Generated_Source\PSoC4/CyLib.c ****                 /* Set new IMO frequency */
 522:Generated_Source\PSoC4/CyLib.c ****                 CY_SYS_CLK_IMO_TRIM2_REG = cyImoFreqMhz2Reg[freq - CY_SYS_CLK_IMO_FREQ_TABLE_OFFSET
 705              		.loc 1 522 0
 706 0168 1A4B     		ldr	r3, .L39+60
 707 016a 7A68     		ldr	r2, [r7, #4]
 708 016c 033A     		subs	r2, r2, #3
 709 016e 1849     		ldr	r1, .L39+56
 710 0170 8A5C     		ldrb	r2, [r1, r2]
 711 0172 1A60     		str	r2, [r3]
 523:Generated_Source\PSoC4/CyLib.c ****                 CyDelayCycles(CY_SYS_CLK_IMO_FREQ_TIMEOUT_CYCLES);
 712              		.loc 1 523 0
 713 0174 0520     		movs	r0, #5
 714 0176 FFF7FEFF 		bl	CyDelayCycles
 715              	.L37:
 524:Generated_Source\PSoC4/CyLib.c ****             }
 525:Generated_Source\PSoC4/CyLib.c **** 
 526:Generated_Source\PSoC4/CyLib.c ****             CyExitCriticalSection(interruptState);
 716              		.loc 1 526 0
 717 017a 0B23     		movs	r3, #11
 718 017c FB18     		adds	r3, r7, r3
 719 017e 1B78     		ldrb	r3, [r3]
 720 0180 1800     		movs	r0, r3
ARM GAS  C:\Users\jdrd3\AppData\Local\Temp\ccRHZt6s.s 			page 23


 721 0182 FFF7FEFF 		bl	CyExitCriticalSection
 722 0186 02E0     		b	.L38
 723              	.L28:
 527:Generated_Source\PSoC4/CyLib.c ****         }
 528:Generated_Source\PSoC4/CyLib.c ****         else
 529:Generated_Source\PSoC4/CyLib.c ****         {
 530:Generated_Source\PSoC4/CyLib.c ****             /* Halt CPU in debug mode if new frequency is invalid */
 531:Generated_Source\PSoC4/CyLib.c ****             CYASSERT(0u != 0u);
 724              		.loc 1 531 0 discriminator 1
 725 0188 0020     		movs	r0, #0
 726 018a FFF7FEFF 		bl	CyHalt
 727              	.L38:
 532:Generated_Source\PSoC4/CyLib.c ****         }
 533:Generated_Source\PSoC4/CyLib.c ****     }
 728              		.loc 1 533 0
 729 018e C046     		nop
 730 0190 BD46     		mov	sp, r7
 731 0192 05B0     		add	sp, sp, #20
 732              		@ sp needed
 733 0194 90BD     		pop	{r4, r7, pc}
 734              	.L40:
 735 0196 C046     		.align	2
 736              	.L39:
 737 0198 C0F1FF0F 		.word	268431808
 738 019c C1F1FF0F 		.word	268431809
 739 01a0 C2F1FF0F 		.word	268431810
 740 01a4 C3F1FF0F 		.word	268431811
 741 01a8 C4F1FF0F 		.word	268431812
 742 01ac C5F1FF0F 		.word	268431813
 743 01b0 C6F1FF0F 		.word	268431814
 744 01b4 C7F1FF0F 		.word	268431815
 745 01b8 C8F1FF0F 		.word	268431816
 746 01bc C9F1FF0F 		.word	268431817
 747 01c0 CAF1FF0F 		.word	268431818
 748 01c4 CBF1FF0F 		.word	268431819
 749 01c8 CCF1FF0F 		.word	268431820
 750 01cc CDF1FF0F 		.word	268431821
 751 01d0 00000000 		.word	cyImoFreqMhz2Reg
 752 01d4 2CFF0B40 		.word	1074528044
 753 01d8 28FF0B40 		.word	1074528040
 754 01dc 1CFF0B40 		.word	1074528028
 755 01e0 20FF0B40 		.word	1074528032
 756              		.cfi_endproc
 757              	.LFE7:
 758              		.size	CySysClkWriteImoFreq, .-CySysClkWriteImoFreq
 759              		.section	.text.CySysWdtLock,"ax",%progbits
 760              		.align	2
 761              		.global	CySysWdtLock
 762              		.code	16
 763              		.thumb_func
 764              		.type	CySysWdtLock, %function
 765              	CySysWdtLock:
 766              	.LFB8:
 534:Generated_Source\PSoC4/CyLib.c **** 
 535:Generated_Source\PSoC4/CyLib.c **** 
 536:Generated_Source\PSoC4/CyLib.c **** #else
 537:Generated_Source\PSoC4/CyLib.c **** 
ARM GAS  C:\Users\jdrd3\AppData\Local\Temp\ccRHZt6s.s 			page 24


 538:Generated_Source\PSoC4/CyLib.c **** 
 539:Generated_Source\PSoC4/CyLib.c ****     /*******************************************************************************
 540:Generated_Source\PSoC4/CyLib.c ****     * Function Name: CySysClkWriteHfclkDiv
 541:Generated_Source\PSoC4/CyLib.c ****     ********************************************************************************
 542:Generated_Source\PSoC4/CyLib.c ****     *
 543:Generated_Source\PSoC4/CyLib.c ****     * Summary:
 544:Generated_Source\PSoC4/CyLib.c ****     *  Selects HF clk predivider value.
 545:Generated_Source\PSoC4/CyLib.c ****     *
 546:Generated_Source\PSoC4/CyLib.c ****     * Parameters:
 547:Generated_Source\PSoC4/CyLib.c ****     *  divider: HF clock divider value
 548:Generated_Source\PSoC4/CyLib.c ****     *   Define                        Description
 549:Generated_Source\PSoC4/CyLib.c ****     *   CY_SYS_CLK_HFCLK_DIV_NODIV    Transparent mode (w/o dividing)
 550:Generated_Source\PSoC4/CyLib.c ****     *   CY_SYS_CLK_HFCLK_DIV_2        Divide selected clock source by 2
 551:Generated_Source\PSoC4/CyLib.c ****     *   CY_SYS_CLK_HFCLK_DIV_4        Divide selected clock source by 4
 552:Generated_Source\PSoC4/CyLib.c ****     *   CY_SYS_CLK_HFCLK_DIV_8        Divide selected clock source by 8
 553:Generated_Source\PSoC4/CyLib.c ****     *
 554:Generated_Source\PSoC4/CyLib.c ****     * Return:
 555:Generated_Source\PSoC4/CyLib.c ****     *  None
 556:Generated_Source\PSoC4/CyLib.c ****     *
 557:Generated_Source\PSoC4/CyLib.c ****     * Side Effects:
 558:Generated_Source\PSoC4/CyLib.c ****     *  If the SYSCLK clock frequency increases during the device operation, call
 559:Generated_Source\PSoC4/CyLib.c ****     *  CySysFlashSetWaitCycles() with the appropriate parameter to adjust the number
 560:Generated_Source\PSoC4/CyLib.c ****     *  of clock cycles the cache will wait before sampling data comes back from Flash.
 561:Generated_Source\PSoC4/CyLib.c ****     *  If the SYSCLK clock frequency decreases, you can call
 562:Generated_Source\PSoC4/CyLib.c ****     *  CySysFlashSetWaitCycles() to improve the CPU performance. See
 563:Generated_Source\PSoC4/CyLib.c ****     *  CySysFlashSetWaitCycles() description for more information.
 564:Generated_Source\PSoC4/CyLib.c ****     *
 565:Generated_Source\PSoC4/CyLib.c **** 
 566:Generated_Source\PSoC4/CyLib.c ****     *
 567:Generated_Source\PSoC4/CyLib.c ****     *******************************************************************************/
 568:Generated_Source\PSoC4/CyLib.c ****     void CySysClkWriteHfclkDiv(uint32 divider)
 569:Generated_Source\PSoC4/CyLib.c ****     {
 570:Generated_Source\PSoC4/CyLib.c ****         uint8  interruptState;
 571:Generated_Source\PSoC4/CyLib.c **** 
 572:Generated_Source\PSoC4/CyLib.c ****         interruptState = CyEnterCriticalSection();
 573:Generated_Source\PSoC4/CyLib.c **** 
 574:Generated_Source\PSoC4/CyLib.c ****         CY_SYS_CLK_SELECT_REG = ((CY_SYS_CLK_SELECT_REG & ((uint32) (~(CY_SYS_CLK_SELECT_HFCLK_DIV_
 575:Generated_Source\PSoC4/CyLib.c ****                                         CY_SYS_CLK_SELECT_HFCLK_DIV_SHIFT)))) |
 576:Generated_Source\PSoC4/CyLib.c ****                     ((uint32)((divider & CY_SYS_CLK_SELECT_HFCLK_DIV_MASK) << CY_SYS_CLK_SELECT_HFC
 577:Generated_Source\PSoC4/CyLib.c **** 
 578:Generated_Source\PSoC4/CyLib.c ****         CyExitCriticalSection(interruptState);
 579:Generated_Source\PSoC4/CyLib.c ****     }
 580:Generated_Source\PSoC4/CyLib.c **** 
 581:Generated_Source\PSoC4/CyLib.c **** 
 582:Generated_Source\PSoC4/CyLib.c ****     /*******************************************************************************
 583:Generated_Source\PSoC4/CyLib.c ****     * Function Name: CySysClkWriteImoFreq
 584:Generated_Source\PSoC4/CyLib.c ****     ********************************************************************************
 585:Generated_Source\PSoC4/CyLib.c ****     *
 586:Generated_Source\PSoC4/CyLib.c ****     * Summary:
 587:Generated_Source\PSoC4/CyLib.c ****     *  Sets the frequency of the IMO.
 588:Generated_Source\PSoC4/CyLib.c ****     *
 589:Generated_Source\PSoC4/CyLib.c ****     * Parameters:
 590:Generated_Source\PSoC4/CyLib.c ****     *  freq: Valid values are 24, 32 and 48 MHz.
 591:Generated_Source\PSoC4/CyLib.c ****     *
 592:Generated_Source\PSoC4/CyLib.c ****     *  Note: The CPU is halted if new frequency is invalid and project is
 593:Generated_Source\PSoC4/CyLib.c ****     *  compiled in debug mode.
 594:Generated_Source\PSoC4/CyLib.c ****     *
ARM GAS  C:\Users\jdrd3\AppData\Local\Temp\ccRHZt6s.s 			page 25


 595:Generated_Source\PSoC4/CyLib.c ****     * Return:
 596:Generated_Source\PSoC4/CyLib.c ****     *  None
 597:Generated_Source\PSoC4/CyLib.c ****     *
 598:Generated_Source\PSoC4/CyLib.c ****     * Side Effects:
 599:Generated_Source\PSoC4/CyLib.c ****     *  If the SYSCLK clock frequency increases during the device operation, call
 600:Generated_Source\PSoC4/CyLib.c ****     *  CySysFlashSetWaitCycles() with the appropriate parameter to adjust the number
 601:Generated_Source\PSoC4/CyLib.c ****     *  of clock cycles the cache will wait before sampling data comes back from Flash.
 602:Generated_Source\PSoC4/CyLib.c ****     *  If the SYSCLK clock frequency decreases, you can call
 603:Generated_Source\PSoC4/CyLib.c ****     *  CySysFlashSetWaitCycles() to improve the CPU performance. See
 604:Generated_Source\PSoC4/CyLib.c ****     *  CySysFlashSetWaitCycles() description for more information.
 605:Generated_Source\PSoC4/CyLib.c ****     *
 606:Generated_Source\PSoC4/CyLib.c ****     *  The System Clock (SYSCLK) has maximum speed of 16 MHz, so HFCLK and SYSCLK
 607:Generated_Source\PSoC4/CyLib.c ****     *  dividers should be selected in a way, to not to exceed 16 MHz for the System
 608:Generated_Source\PSoC4/CyLib.c ****     *  clock.
 609:Generated_Source\PSoC4/CyLib.c ****     *
 610:Generated_Source\PSoC4/CyLib.c ****     *******************************************************************************/
 611:Generated_Source\PSoC4/CyLib.c ****     void CySysClkWriteImoFreq(uint32 freq)
 612:Generated_Source\PSoC4/CyLib.c ****     {
 613:Generated_Source\PSoC4/CyLib.c ****         uint8  interruptState;
 614:Generated_Source\PSoC4/CyLib.c **** 
 615:Generated_Source\PSoC4/CyLib.c ****         if ((freq == 24u) || (freq == 32u) || (freq == 48u))
 616:Generated_Source\PSoC4/CyLib.c ****         {
 617:Generated_Source\PSoC4/CyLib.c ****             interruptState = CyEnterCriticalSection();
 618:Generated_Source\PSoC4/CyLib.c **** 
 619:Generated_Source\PSoC4/CyLib.c ****             /* Set IMO to 24 MHz - CLK_IMO_SELECT.FREQ = 0 */
 620:Generated_Source\PSoC4/CyLib.c ****             CY_SYS_CLK_IMO_SELECT_REG &= ((uint32) ~CY_SYS_CLK_IMO_SELECT_FREQ_MASK);
 621:Generated_Source\PSoC4/CyLib.c **** 
 622:Generated_Source\PSoC4/CyLib.c ****             /* Apply coarse trim */
 623:Generated_Source\PSoC4/CyLib.c ****             CY_SYS_CLK_IMO_TRIM1_REG = (CY_SYS_CLK_IMO_TRIM1_REG & ((uint32) ~CY_SYS_CLK_IMO_TRIM1_
 624:Generated_Source\PSoC4/CyLib.c ****                 (CY_SFLASH_IMO_TRIM_REG(freq - CY_SYS_CLK_IMO_MIN_FREQ_MHZ) & CY_SYS_CLK_IMO_TRIM1_
 625:Generated_Source\PSoC4/CyLib.c **** 
 626:Generated_Source\PSoC4/CyLib.c ****             /* Zero out fine trim */
 627:Generated_Source\PSoC4/CyLib.c ****             CY_SYS_CLK_IMO_TRIM2_REG = CY_SYS_CLK_IMO_TRIM2_REG & ((uint32) ~CY_SYS_CLK_IMO_TRIM2_F
 628:Generated_Source\PSoC4/CyLib.c **** 
 629:Generated_Source\PSoC4/CyLib.c ****             /* Apply TC trim */
 630:Generated_Source\PSoC4/CyLib.c ****             CY_SYS_CLK_IMO_TRIM3_REG = (CY_SYS_CLK_IMO_TRIM3_REG & ((uint32) ~CY_SYS_CLK_IMO_TRIM3_
 631:Generated_Source\PSoC4/CyLib.c ****                 (CY_SFLASH_IMO_TCTRIM_REG(freq - CY_SYS_CLK_IMO_MIN_FREQ_MHZ) & CY_SYS_CLK_IMO_TRIM
 632:Generated_Source\PSoC4/CyLib.c **** 
 633:Generated_Source\PSoC4/CyLib.c ****             CyDelayCycles(CY_SYS_CLK_IMO_TRIM_DELAY_US);
 634:Generated_Source\PSoC4/CyLib.c **** 
 635:Generated_Source\PSoC4/CyLib.c ****             if (freq > CY_SYS_CLK_IMO_MIN_FREQ_MHZ)
 636:Generated_Source\PSoC4/CyLib.c ****             {
 637:Generated_Source\PSoC4/CyLib.c ****                 /* Select nearby intermediate frequency */
 638:Generated_Source\PSoC4/CyLib.c ****                 CY_SYS_CLK_IMO_SELECT_REG = (CY_SYS_CLK_IMO_SELECT_REG & ((uint32) ~CY_SYS_CLK_IMO_
 639:Generated_Source\PSoC4/CyLib.c ****                     (((freq - 4u - CY_SYS_CLK_IMO_MIN_FREQ_MHZ) >> 2u) & CY_SYS_CLK_IMO_SELECT_FREQ
 640:Generated_Source\PSoC4/CyLib.c **** 
 641:Generated_Source\PSoC4/CyLib.c ****                 CyDelayCycles(CY_SYS_CLK_IMO_TRIM_DELAY_US);
 642:Generated_Source\PSoC4/CyLib.c **** 
 643:Generated_Source\PSoC4/CyLib.c ****                 /* Make small step to final frequency */
 644:Generated_Source\PSoC4/CyLib.c ****                 /* Select nearby intermediate frequency */
 645:Generated_Source\PSoC4/CyLib.c ****                 CY_SYS_CLK_IMO_SELECT_REG = (CY_SYS_CLK_IMO_SELECT_REG & ((uint32) ~CY_SYS_CLK_IMO_
 646:Generated_Source\PSoC4/CyLib.c ****                     (((freq - CY_SYS_CLK_IMO_MIN_FREQ_MHZ) >> 2u) & CY_SYS_CLK_IMO_SELECT_FREQ_MASK
 647:Generated_Source\PSoC4/CyLib.c ****             }
 648:Generated_Source\PSoC4/CyLib.c **** 
 649:Generated_Source\PSoC4/CyLib.c ****             CyExitCriticalSection(interruptState);
 650:Generated_Source\PSoC4/CyLib.c ****         }
 651:Generated_Source\PSoC4/CyLib.c ****         else
ARM GAS  C:\Users\jdrd3\AppData\Local\Temp\ccRHZt6s.s 			page 26


 652:Generated_Source\PSoC4/CyLib.c ****         {
 653:Generated_Source\PSoC4/CyLib.c ****             /* Halt CPU in debug mode if new frequency is invalid */
 654:Generated_Source\PSoC4/CyLib.c ****             CYASSERT(0u != 0u);
 655:Generated_Source\PSoC4/CyLib.c ****         }
 656:Generated_Source\PSoC4/CyLib.c ****     }
 657:Generated_Source\PSoC4/CyLib.c **** 
 658:Generated_Source\PSoC4/CyLib.c **** #endif /* (CY_IP_SRSSV2) */
 659:Generated_Source\PSoC4/CyLib.c **** 
 660:Generated_Source\PSoC4/CyLib.c **** 
 661:Generated_Source\PSoC4/CyLib.c **** #if (CY_PSOC4_4100BL || CY_PSOC4_4200BL)
 662:Generated_Source\PSoC4/CyLib.c **** 
 663:Generated_Source\PSoC4/CyLib.c ****     /*******************************************************************************
 664:Generated_Source\PSoC4/CyLib.c ****     * Function Name: CySysClkEcoStart
 665:Generated_Source\PSoC4/CyLib.c ****     ********************************************************************************
 666:Generated_Source\PSoC4/CyLib.c ****     *
 667:Generated_Source\PSoC4/CyLib.c ****     * Summary:
 668:Generated_Source\PSoC4/CyLib.c ****     *  Starts the External Crystal Oscillator (ECO). Refer to the device datasheet
 669:Generated_Source\PSoC4/CyLib.c ****     *  for the ECO startup time.
 670:Generated_Source\PSoC4/CyLib.c ****     *
 671:Generated_Source\PSoC4/CyLib.c ****     *  The timeout interval is measured based on the system frequency defined by
 672:Generated_Source\PSoC4/CyLib.c ****     *  PSoC Creator at build time. If System clock frequency is changed in
 673:Generated_Source\PSoC4/CyLib.c ****     *  runtime, the CyDelayFreq() with the appropriate parameter should be called.
 674:Generated_Source\PSoC4/CyLib.c ****     *
 675:Generated_Source\PSoC4/CyLib.c ****     * Parameters:
 676:Generated_Source\PSoC4/CyLib.c ****     *  timeoutUs: Timeout in microseconds. If zero is specified, the function
 677:Generated_Source\PSoC4/CyLib.c ****     *             starts the crystal and returns CYRET_SUCCESS. If non-zero
 678:Generated_Source\PSoC4/CyLib.c ****     *             value is passed, the CYRET_SUCCESS is returned once crystal
 679:Generated_Source\PSoC4/CyLib.c ****     *             is oscillating and amplitude reached 60% and it does not mean
 680:Generated_Source\PSoC4/CyLib.c ****     *             24 MHz crystal is within 50 ppm. If it is not oscillating or
 681:Generated_Source\PSoC4/CyLib.c ****     *             amplitude didn't reach 60% after specified amount of time, the
 682:Generated_Source\PSoC4/CyLib.c ****     *             CYRET_TIMEOUT is returned.
 683:Generated_Source\PSoC4/CyLib.c ****     *
 684:Generated_Source\PSoC4/CyLib.c ****     * Return:
 685:Generated_Source\PSoC4/CyLib.c ****     *   CYRET_SUCCESS - Completed successfully. The ECO is oscillating and amplitude
 686:Generated_Source\PSoC4/CyLib.c ****     *                   reached 60% and it does not mean 24 MHz crystal is within
 687:Generated_Source\PSoC4/CyLib.c ****     *                   50 ppm.
 688:Generated_Source\PSoC4/CyLib.c ****     *   CYRET_TIMEOUT - Timeout occurred.
 689:Generated_Source\PSoC4/CyLib.c ****     *
 690:Generated_Source\PSoC4/CyLib.c ****     *******************************************************************************/
 691:Generated_Source\PSoC4/CyLib.c ****     cystatus CySysClkEcoStart(uint32 timeoutUs)
 692:Generated_Source\PSoC4/CyLib.c ****     {
 693:Generated_Source\PSoC4/CyLib.c ****         cystatus status = CYRET_SUCCESS;
 694:Generated_Source\PSoC4/CyLib.c **** 
 695:Generated_Source\PSoC4/CyLib.c ****         /* Enable the RF oscillator band gap */
 696:Generated_Source\PSoC4/CyLib.c ****         CY_SYS_XTAL_BLESS_RF_CONFIG_REG |= CY_SYS_XTAL_BLESS_RF_CONFIG_RF_ENABLE;
 697:Generated_Source\PSoC4/CyLib.c **** 
 698:Generated_Source\PSoC4/CyLib.c ****         /* Update trimming register */
 699:Generated_Source\PSoC4/CyLib.c ****         CY_SYS_XTAL_BLERD_BB_XO_REG = CY_SYS_XTAL_BLERD_BB_XO_TRIM;
 700:Generated_Source\PSoC4/CyLib.c **** 
 701:Generated_Source\PSoC4/CyLib.c ****         /* Enable the Crystal */
 702:Generated_Source\PSoC4/CyLib.c ****         CY_SYS_XTAL_BLERD_DBUS_REG |= CY_SYS_XTAL_BLERD_DBUS_XTAL_ENABLE;
 703:Generated_Source\PSoC4/CyLib.c **** 
 704:Generated_Source\PSoC4/CyLib.c ****         if(timeoutUs > 0u)
 705:Generated_Source\PSoC4/CyLib.c ****         {
 706:Generated_Source\PSoC4/CyLib.c ****             status = CYRET_TIMEOUT;
 707:Generated_Source\PSoC4/CyLib.c **** 
 708:Generated_Source\PSoC4/CyLib.c ****             for( ; timeoutUs > 0u; timeoutUs--)
ARM GAS  C:\Users\jdrd3\AppData\Local\Temp\ccRHZt6s.s 			page 27


 709:Generated_Source\PSoC4/CyLib.c ****             {
 710:Generated_Source\PSoC4/CyLib.c ****                 CyDelayUs(1u);
 711:Generated_Source\PSoC4/CyLib.c **** 
 712:Generated_Source\PSoC4/CyLib.c ****                 if(0u != CySysClkEcoReadStatus())
 713:Generated_Source\PSoC4/CyLib.c ****                 {
 714:Generated_Source\PSoC4/CyLib.c ****                     status = CYRET_SUCCESS;
 715:Generated_Source\PSoC4/CyLib.c ****                     break;
 716:Generated_Source\PSoC4/CyLib.c ****                 }
 717:Generated_Source\PSoC4/CyLib.c ****             }
 718:Generated_Source\PSoC4/CyLib.c **** 
 719:Generated_Source\PSoC4/CyLib.c ****         }
 720:Generated_Source\PSoC4/CyLib.c **** 
 721:Generated_Source\PSoC4/CyLib.c ****         return(status);
 722:Generated_Source\PSoC4/CyLib.c ****     }
 723:Generated_Source\PSoC4/CyLib.c **** 
 724:Generated_Source\PSoC4/CyLib.c **** 
 725:Generated_Source\PSoC4/CyLib.c ****     /*******************************************************************************
 726:Generated_Source\PSoC4/CyLib.c ****     * Function Name: CySysClkEcoStop
 727:Generated_Source\PSoC4/CyLib.c ****     ********************************************************************************
 728:Generated_Source\PSoC4/CyLib.c ****     *
 729:Generated_Source\PSoC4/CyLib.c ****     * Summary:
 730:Generated_Source\PSoC4/CyLib.c ****     *  Stops the megahertz crystal.
 731:Generated_Source\PSoC4/CyLib.c ****     *
 732:Generated_Source\PSoC4/CyLib.c ****     * Parameters:
 733:Generated_Source\PSoC4/CyLib.c ****     *  None
 734:Generated_Source\PSoC4/CyLib.c ****     *
 735:Generated_Source\PSoC4/CyLib.c ****     * Return:
 736:Generated_Source\PSoC4/CyLib.c ****     *  None
 737:Generated_Source\PSoC4/CyLib.c ****     *
 738:Generated_Source\PSoC4/CyLib.c ****     *******************************************************************************/
 739:Generated_Source\PSoC4/CyLib.c ****     void CySysClkEcoStop(void)
 740:Generated_Source\PSoC4/CyLib.c ****     {
 741:Generated_Source\PSoC4/CyLib.c ****         /* Disable the RF oscillator band gap */
 742:Generated_Source\PSoC4/CyLib.c ****         CY_SYS_XTAL_BLESS_RF_CONFIG_REG &= (uint32) ~CY_SYS_XTAL_BLESS_RF_CONFIG_RF_ENABLE;
 743:Generated_Source\PSoC4/CyLib.c **** 
 744:Generated_Source\PSoC4/CyLib.c ****         /* Disable the Crystal */
 745:Generated_Source\PSoC4/CyLib.c ****         CY_SYS_XTAL_BLERD_DBUS_REG &= (uint32) ~CY_SYS_XTAL_BLERD_DBUS_XTAL_ENABLE;
 746:Generated_Source\PSoC4/CyLib.c ****     }
 747:Generated_Source\PSoC4/CyLib.c **** 
 748:Generated_Source\PSoC4/CyLib.c **** 
 749:Generated_Source\PSoC4/CyLib.c ****     /*******************************************************************************
 750:Generated_Source\PSoC4/CyLib.c ****     * Function Name: CySysClkEcoReadStatus
 751:Generated_Source\PSoC4/CyLib.c ****     ********************************************************************************
 752:Generated_Source\PSoC4/CyLib.c ****     *
 753:Generated_Source\PSoC4/CyLib.c ****     * Summary:
 754:Generated_Source\PSoC4/CyLib.c ****     *  Read status bit (50 ppm reached) for the megahertz crystal.
 755:Generated_Source\PSoC4/CyLib.c ****     *
 756:Generated_Source\PSoC4/CyLib.c ****     * Parameters:
 757:Generated_Source\PSoC4/CyLib.c ****     *  None
 758:Generated_Source\PSoC4/CyLib.c ****     *
 759:Generated_Source\PSoC4/CyLib.c ****     * Return:
 760:Generated_Source\PSoC4/CyLib.c ****     *  Non-zero indicates that XTAL output reached 50 ppm.
 761:Generated_Source\PSoC4/CyLib.c ****     *
 762:Generated_Source\PSoC4/CyLib.c ****     *******************************************************************************/
 763:Generated_Source\PSoC4/CyLib.c ****     uint32 CySysClkEcoReadStatus(void)
 764:Generated_Source\PSoC4/CyLib.c ****     {
 765:Generated_Source\PSoC4/CyLib.c ****         return (CY_SYS_XTAL_BLERD_FSM_REG & CY_SYS_XTAL_BLERD_FSM_XO_AMP_DETECT);
ARM GAS  C:\Users\jdrd3\AppData\Local\Temp\ccRHZt6s.s 			page 28


 766:Generated_Source\PSoC4/CyLib.c ****     }
 767:Generated_Source\PSoC4/CyLib.c **** 
 768:Generated_Source\PSoC4/CyLib.c **** 
 769:Generated_Source\PSoC4/CyLib.c ****     /*******************************************************************************
 770:Generated_Source\PSoC4/CyLib.c ****     * Function Name: CySysClkWriteEcoDiv
 771:Generated_Source\PSoC4/CyLib.c ****     ********************************************************************************
 772:Generated_Source\PSoC4/CyLib.c ****     *
 773:Generated_Source\PSoC4/CyLib.c ****     * Summary:
 774:Generated_Source\PSoC4/CyLib.c ****     *  Selects value for the ECO divider.
 775:Generated_Source\PSoC4/CyLib.c ****     *
 776:Generated_Source\PSoC4/CyLib.c ****     * Parameters:
 777:Generated_Source\PSoC4/CyLib.c ****     *  divider: Power of 2 divider selection.
 778:Generated_Source\PSoC4/CyLib.c ****     *
 779:Generated_Source\PSoC4/CyLib.c ****     *   Define                        Description
 780:Generated_Source\PSoC4/CyLib.c ****     *   CY_SYS_CLK_ECO_DIV1             HFCLK = ECO / 1
 781:Generated_Source\PSoC4/CyLib.c ****     *   CY_SYS_CLK_ECO_DIV2             HFCLK = ECO / 2
 782:Generated_Source\PSoC4/CyLib.c ****     *   CY_SYS_CLK_ECO_DIV4             HFCLK = ECO / 4
 783:Generated_Source\PSoC4/CyLib.c ****     *   CY_SYS_CLK_ECO_DIV8             HFCLK = ECO / 8
 784:Generated_Source\PSoC4/CyLib.c ****     *
 785:Generated_Source\PSoC4/CyLib.c ****     * Return:
 786:Generated_Source\PSoC4/CyLib.c ****     *  None
 787:Generated_Source\PSoC4/CyLib.c ****     *
 788:Generated_Source\PSoC4/CyLib.c ****     * Side Effects:
 789:Generated_Source\PSoC4/CyLib.c ****     *  If the SYSCLK clock frequency increases during the device operation, call
 790:Generated_Source\PSoC4/CyLib.c ****     *  CySysFlashSetWaitCycles() with the appropriate parameter to adjust the number
 791:Generated_Source\PSoC4/CyLib.c ****     *  of clock cycles the cache will wait before sampling data comes back from Flash.
 792:Generated_Source\PSoC4/CyLib.c ****     *  If the SYSCLK clock frequency decreases, you can call
 793:Generated_Source\PSoC4/CyLib.c ****     *  CySysFlashSetWaitCycles() to improve the CPU performance. See
 794:Generated_Source\PSoC4/CyLib.c ****     *  CySysFlashSetWaitCycles() description for more information.
 795:Generated_Source\PSoC4/CyLib.c ****     *
 796:Generated_Source\PSoC4/CyLib.c ****     *******************************************************************************/
 797:Generated_Source\PSoC4/CyLib.c ****     void CySysClkWriteEcoDiv(uint32 divider)
 798:Generated_Source\PSoC4/CyLib.c ****     {
 799:Generated_Source\PSoC4/CyLib.c ****         uint8  interruptState;
 800:Generated_Source\PSoC4/CyLib.c **** 
 801:Generated_Source\PSoC4/CyLib.c ****         interruptState = CyEnterCriticalSection();
 802:Generated_Source\PSoC4/CyLib.c **** 
 803:Generated_Source\PSoC4/CyLib.c ****         CY_SYS_CLK_XTAL_CLK_DIV_CONFIG_REG =  (divider & CY_SYS_CLK_XTAL_CLK_DIV_MASK) |
 804:Generated_Source\PSoC4/CyLib.c ****                                               (CY_SYS_CLK_XTAL_CLK_DIV_CONFIG_REG & ((uint32) ~CY_S
 805:Generated_Source\PSoC4/CyLib.c **** 
 806:Generated_Source\PSoC4/CyLib.c ****         CyExitCriticalSection(interruptState);
 807:Generated_Source\PSoC4/CyLib.c ****     }
 808:Generated_Source\PSoC4/CyLib.c **** #endif /* (CY_PSOC4_4100BL || CY_PSOC4_4200BL) */
 809:Generated_Source\PSoC4/CyLib.c **** 
 810:Generated_Source\PSoC4/CyLib.c **** 
 811:Generated_Source\PSoC4/CyLib.c **** #if (CY_IP_WCO)
 812:Generated_Source\PSoC4/CyLib.c ****     /*******************************************************************************
 813:Generated_Source\PSoC4/CyLib.c ****     * Function Name: CySysClkWcoStart
 814:Generated_Source\PSoC4/CyLib.c ****     ********************************************************************************
 815:Generated_Source\PSoC4/CyLib.c ****     *
 816:Generated_Source\PSoC4/CyLib.c ****     * Summary:
 817:Generated_Source\PSoC4/CyLib.c ****     *  Enables the Watch Crystal Oscillator (WCO). The WCO is used as a source for
 818:Generated_Source\PSoC4/CyLib.c ****     *  LFCLK.  Similar to ILO, WCO is also available in all modes except Hibernate
 819:Generated_Source\PSoC4/CyLib.c ****     *  and Stop modes.
 820:Generated_Source\PSoC4/CyLib.c ****     *
 821:Generated_Source\PSoC4/CyLib.c ****     *  The WCO is always enabled in High Power Mode (HPM). Refer to the device
 822:Generated_Source\PSoC4/CyLib.c ****     *  datasheet for the  WCO startup time. Once WCO becomes stable it can be
ARM GAS  C:\Users\jdrd3\AppData\Local\Temp\ccRHZt6s.s 			page 29


 823:Generated_Source\PSoC4/CyLib.c ****     *  switched to the Low Power Mode (LPM). Note that oscillator can be unstable
 824:Generated_Source\PSoC4/CyLib.c ****     *  during switch and hence its output should not be used at the moment.
 825:Generated_Source\PSoC4/CyLib.c ****     *
 826:Generated_Source\PSoC4/CyLib.c ****     *  The CySysClkWcoSetPowerMode() function configures WCO power mode.
 827:Generated_Source\PSoC4/CyLib.c ****     *
 828:Generated_Source\PSoC4/CyLib.c ****     * Parameters:
 829:Generated_Source\PSoC4/CyLib.c ****     *  None
 830:Generated_Source\PSoC4/CyLib.c ****     *
 831:Generated_Source\PSoC4/CyLib.c ****     * Return:
 832:Generated_Source\PSoC4/CyLib.c ****     *  None
 833:Generated_Source\PSoC4/CyLib.c ****     *
 834:Generated_Source\PSoC4/CyLib.c ****     *******************************************************************************/
 835:Generated_Source\PSoC4/CyLib.c ****     void CySysClkWcoStart(void)
 836:Generated_Source\PSoC4/CyLib.c ****     {
 837:Generated_Source\PSoC4/CyLib.c ****         CySysClkWcoSetHighPowerMode();
 838:Generated_Source\PSoC4/CyLib.c ****         CY_SYS_CLK_WCO_CONFIG_REG |= CY_SYS_CLK_WCO_CONFIG_LPM_ENABLE;
 839:Generated_Source\PSoC4/CyLib.c ****     }
 840:Generated_Source\PSoC4/CyLib.c **** 
 841:Generated_Source\PSoC4/CyLib.c **** 
 842:Generated_Source\PSoC4/CyLib.c ****     /*******************************************************************************
 843:Generated_Source\PSoC4/CyLib.c ****     * Function Name: CySysClkWcoStop
 844:Generated_Source\PSoC4/CyLib.c ****     ********************************************************************************
 845:Generated_Source\PSoC4/CyLib.c ****     *
 846:Generated_Source\PSoC4/CyLib.c ****     * Summary:
 847:Generated_Source\PSoC4/CyLib.c ****     *  Disables the 32KHz Crystal Oscillator.
 848:Generated_Source\PSoC4/CyLib.c ****     *
 849:Generated_Source\PSoC4/CyLib.c ****     * Parameters:
 850:Generated_Source\PSoC4/CyLib.c ****     *  None
 851:Generated_Source\PSoC4/CyLib.c ****     *
 852:Generated_Source\PSoC4/CyLib.c ****     * Return:
 853:Generated_Source\PSoC4/CyLib.c ****     *  None
 854:Generated_Source\PSoC4/CyLib.c ****     *
 855:Generated_Source\PSoC4/CyLib.c ****     *******************************************************************************/
 856:Generated_Source\PSoC4/CyLib.c ****     void  CySysClkWcoStop(void)
 857:Generated_Source\PSoC4/CyLib.c ****     {
 858:Generated_Source\PSoC4/CyLib.c ****         uint8  interruptState;
 859:Generated_Source\PSoC4/CyLib.c **** 
 860:Generated_Source\PSoC4/CyLib.c ****         if (0u != CySysClkWcoEnabled())
 861:Generated_Source\PSoC4/CyLib.c ****         {
 862:Generated_Source\PSoC4/CyLib.c **** 
 863:Generated_Source\PSoC4/CyLib.c ****             if (CY_SYS_CLK_LFCLK_SRC_WCO == CySysClkGetLfclkSource())
 864:Generated_Source\PSoC4/CyLib.c ****             {
 865:Generated_Source\PSoC4/CyLib.c ****                 interruptState = CyEnterCriticalSection();
 866:Generated_Source\PSoC4/CyLib.c ****                 CySysClkLfclkPosedgeCatch();
 867:Generated_Source\PSoC4/CyLib.c ****                 CY_SYS_CLK_WCO_CONFIG_REG &= (uint32) ~CY_SYS_CLK_WCO_CONFIG_LPM_ENABLE;
 868:Generated_Source\PSoC4/CyLib.c ****                 CySysClkLfclkPosedgeRestore();
 869:Generated_Source\PSoC4/CyLib.c ****                 CyExitCriticalSection(interruptState);
 870:Generated_Source\PSoC4/CyLib.c ****             }
 871:Generated_Source\PSoC4/CyLib.c ****             else /* Safe to disable - shortened pulse does not impact peripheral */
 872:Generated_Source\PSoC4/CyLib.c ****             {
 873:Generated_Source\PSoC4/CyLib.c ****                 CY_SYS_CLK_WCO_CONFIG_REG &= (uint32) ~CY_SYS_CLK_WCO_CONFIG_LPM_ENABLE;
 874:Generated_Source\PSoC4/CyLib.c ****             }
 875:Generated_Source\PSoC4/CyLib.c ****         } /* Otherwise do nothing. WCO configuration cannot be changed. */
 876:Generated_Source\PSoC4/CyLib.c ****     }
 877:Generated_Source\PSoC4/CyLib.c **** 
 878:Generated_Source\PSoC4/CyLib.c **** 
 879:Generated_Source\PSoC4/CyLib.c ****     /*******************************************************************************
ARM GAS  C:\Users\jdrd3\AppData\Local\Temp\ccRHZt6s.s 			page 30


 880:Generated_Source\PSoC4/CyLib.c ****     * Function Name: CySysClkWcoEnabled
 881:Generated_Source\PSoC4/CyLib.c ****     ********************************************************************************
 882:Generated_Source\PSoC4/CyLib.c ****     *
 883:Generated_Source\PSoC4/CyLib.c ****     * Summary:
 884:Generated_Source\PSoC4/CyLib.c ****     *  Reports WCO enable state.
 885:Generated_Source\PSoC4/CyLib.c ****     *
 886:Generated_Source\PSoC4/CyLib.c ****     * Parameters:
 887:Generated_Source\PSoC4/CyLib.c ****     *  None
 888:Generated_Source\PSoC4/CyLib.c ****     *
 889:Generated_Source\PSoC4/CyLib.c ****     * Return:
 890:Generated_Source\PSoC4/CyLib.c ****     *  1 if WCO is enabled, and 0 if WCO is disabled.
 891:Generated_Source\PSoC4/CyLib.c ****     *
 892:Generated_Source\PSoC4/CyLib.c ****     *******************************************************************************/
 893:Generated_Source\PSoC4/CyLib.c ****     static uint32 CySysClkWcoEnabled(void)
 894:Generated_Source\PSoC4/CyLib.c ****     {
 895:Generated_Source\PSoC4/CyLib.c ****         return ((0u != (CY_SYS_CLK_WCO_CONFIG_REG & (uint32)(CY_SYS_CLK_WCO_CONFIG_LPM_ENABLE))) ?
 896:Generated_Source\PSoC4/CyLib.c ****                 (uint32) 1u :
 897:Generated_Source\PSoC4/CyLib.c ****                 (uint32) 0u);
 898:Generated_Source\PSoC4/CyLib.c ****     }
 899:Generated_Source\PSoC4/CyLib.c **** 
 900:Generated_Source\PSoC4/CyLib.c **** 
 901:Generated_Source\PSoC4/CyLib.c ****     /*******************************************************************************
 902:Generated_Source\PSoC4/CyLib.c ****     * Function Name: CySysClkWcoSetPowerMode
 903:Generated_Source\PSoC4/CyLib.c ****     ********************************************************************************
 904:Generated_Source\PSoC4/CyLib.c ****     *
 905:Generated_Source\PSoC4/CyLib.c ****     * Summary:
 906:Generated_Source\PSoC4/CyLib.c ****     *  Sets the power mode for the 32 KHz WCO.
 907:Generated_Source\PSoC4/CyLib.c ****     *
 908:Generated_Source\PSoC4/CyLib.c ****     * Parameters:
 909:Generated_Source\PSoC4/CyLib.c ****     *  uint32 mode:
 910:Generated_Source\PSoC4/CyLib.c ****     *   CY_SYS_CLK_WCO_HPM  - High power mode
 911:Generated_Source\PSoC4/CyLib.c ****     *   CY_SYS_CLK_WCO_LPM  - Low power mode
 912:Generated_Source\PSoC4/CyLib.c ****     *
 913:Generated_Source\PSoC4/CyLib.c ****     * Return:
 914:Generated_Source\PSoC4/CyLib.c ****     *  Previous power mode. The same as parameters.
 915:Generated_Source\PSoC4/CyLib.c ****     *
 916:Generated_Source\PSoC4/CyLib.c ****     *******************************************************************************/
 917:Generated_Source\PSoC4/CyLib.c ****     uint32 CySysClkWcoSetPowerMode(uint32 mode)
 918:Generated_Source\PSoC4/CyLib.c ****     {
 919:Generated_Source\PSoC4/CyLib.c ****         uint32 status;
 920:Generated_Source\PSoC4/CyLib.c **** 
 921:Generated_Source\PSoC4/CyLib.c ****         status = CY_SYS_CLK_WCO_CONFIG_REG & CY_SYS_CLK_WCO_LPM;
 922:Generated_Source\PSoC4/CyLib.c **** 
 923:Generated_Source\PSoC4/CyLib.c ****         switch(mode)
 924:Generated_Source\PSoC4/CyLib.c ****         {
 925:Generated_Source\PSoC4/CyLib.c ****         case CY_SYS_CLK_WCO_HPM:
 926:Generated_Source\PSoC4/CyLib.c ****                 CySysClkWcoSetHighPowerMode();
 927:Generated_Source\PSoC4/CyLib.c ****             break;
 928:Generated_Source\PSoC4/CyLib.c **** 
 929:Generated_Source\PSoC4/CyLib.c ****         case CY_SYS_CLK_WCO_LPM:
 930:Generated_Source\PSoC4/CyLib.c ****                 CySysClkWcoSetLowPowerMode();
 931:Generated_Source\PSoC4/CyLib.c ****             break;
 932:Generated_Source\PSoC4/CyLib.c **** 
 933:Generated_Source\PSoC4/CyLib.c ****         default:
 934:Generated_Source\PSoC4/CyLib.c ****             CYASSERT(0u != 0u);
 935:Generated_Source\PSoC4/CyLib.c ****             break;
 936:Generated_Source\PSoC4/CyLib.c ****         }
ARM GAS  C:\Users\jdrd3\AppData\Local\Temp\ccRHZt6s.s 			page 31


 937:Generated_Source\PSoC4/CyLib.c **** 
 938:Generated_Source\PSoC4/CyLib.c ****         return (status);
 939:Generated_Source\PSoC4/CyLib.c ****     }
 940:Generated_Source\PSoC4/CyLib.c **** 
 941:Generated_Source\PSoC4/CyLib.c **** #endif  /* (CY_IP_WCO) */
 942:Generated_Source\PSoC4/CyLib.c **** 
 943:Generated_Source\PSoC4/CyLib.c **** 
 944:Generated_Source\PSoC4/CyLib.c **** #if(CY_IP_SRSSV2)
 945:Generated_Source\PSoC4/CyLib.c **** 
 946:Generated_Source\PSoC4/CyLib.c **** 
 947:Generated_Source\PSoC4/CyLib.c ****     /*******************************************************************************
 948:Generated_Source\PSoC4/CyLib.c ****     * Function Name: CySysWdtLock
 949:Generated_Source\PSoC4/CyLib.c ****     ********************************************************************************
 950:Generated_Source\PSoC4/CyLib.c ****     *
 951:Generated_Source\PSoC4/CyLib.c ****     * Summary:
 952:Generated_Source\PSoC4/CyLib.c ****     *  Locks out configuration changes to the Watchdog timer registers and ILO
 953:Generated_Source\PSoC4/CyLib.c ****     *  configuration register.
 954:Generated_Source\PSoC4/CyLib.c ****     *
 955:Generated_Source\PSoC4/CyLib.c ****     * Parameters:
 956:Generated_Source\PSoC4/CyLib.c ****     *  None
 957:Generated_Source\PSoC4/CyLib.c ****     *
 958:Generated_Source\PSoC4/CyLib.c ****     * Return:
 959:Generated_Source\PSoC4/CyLib.c ****     *  None
 960:Generated_Source\PSoC4/CyLib.c ****     *
 961:Generated_Source\PSoC4/CyLib.c ****     * Side effects:
 962:Generated_Source\PSoC4/CyLib.c ****     *  After this function was called, ILO clock can't be disabled until
 963:Generated_Source\PSoC4/CyLib.c ****     *  CySysWdtUnlock() is called.
 964:Generated_Source\PSoC4/CyLib.c ****     *
 965:Generated_Source\PSoC4/CyLib.c ****     *******************************************************************************/
 966:Generated_Source\PSoC4/CyLib.c ****     void CySysWdtLock(void)
 967:Generated_Source\PSoC4/CyLib.c ****     {
 767              		.loc 1 967 0
 768              		.cfi_startproc
 769              		@ args = 0, pretend = 0, frame = 8
 770              		@ frame_needed = 1, uses_anonymous_args = 0
 771 0000 90B5     		push	{r4, r7, lr}
 772              		.cfi_def_cfa_offset 12
 773              		.cfi_offset 4, -12
 774              		.cfi_offset 7, -8
 775              		.cfi_offset 14, -4
 776 0002 83B0     		sub	sp, sp, #12
 777              		.cfi_def_cfa_offset 24
 778 0004 00AF     		add	r7, sp, #0
 779              		.cfi_def_cfa_register 7
 968:Generated_Source\PSoC4/CyLib.c ****         uint8 interruptState;
 969:Generated_Source\PSoC4/CyLib.c ****         interruptState = CyEnterCriticalSection();
 780              		.loc 1 969 0
 781 0006 FC1D     		adds	r4, r7, #7
 782 0008 FFF7FEFF 		bl	CyEnterCriticalSection
 783 000c 0300     		movs	r3, r0
 784 000e 2370     		strb	r3, [r4]
 970:Generated_Source\PSoC4/CyLib.c **** 
 971:Generated_Source\PSoC4/CyLib.c ****         CY_SYS_CLK_SELECT_REG = (CY_SYS_CLK_SELECT_REG & (uint32)(~CY_SYS_WDT_CLK_LOCK_BITS_MASK)) 
 785              		.loc 1 971 0
 786 0010 074B     		ldr	r3, .L42
 787 0012 074A     		ldr	r2, .L42
 788 0014 1268     		ldr	r2, [r2]
ARM GAS  C:\Users\jdrd3\AppData\Local\Temp\ccRHZt6s.s 			page 32


 789 0016 C021     		movs	r1, #192
 790 0018 0902     		lsls	r1, r1, #8
 791 001a 0A43     		orrs	r2, r1
 792 001c 1A60     		str	r2, [r3]
 972:Generated_Source\PSoC4/CyLib.c ****                  CY_SYS_WDT_CLK_LOCK_BITS_MASK;
 973:Generated_Source\PSoC4/CyLib.c **** 
 974:Generated_Source\PSoC4/CyLib.c ****         CyExitCriticalSection(interruptState);
 793              		.loc 1 974 0
 794 001e FB1D     		adds	r3, r7, #7
 795 0020 1B78     		ldrb	r3, [r3]
 796 0022 1800     		movs	r0, r3
 797 0024 FFF7FEFF 		bl	CyExitCriticalSection
 975:Generated_Source\PSoC4/CyLib.c ****     }
 798              		.loc 1 975 0
 799 0028 C046     		nop
 800 002a BD46     		mov	sp, r7
 801 002c 03B0     		add	sp, sp, #12
 802              		@ sp needed
 803 002e 90BD     		pop	{r4, r7, pc}
 804              	.L43:
 805              		.align	2
 806              	.L42:
 807 0030 00010B40 		.word	1074462976
 808              		.cfi_endproc
 809              	.LFE8:
 810              		.size	CySysWdtLock, .-CySysWdtLock
 811              		.section	.text.CySysWdtLocked,"ax",%progbits
 812              		.align	2
 813              		.code	16
 814              		.thumb_func
 815              		.type	CySysWdtLocked, %function
 816              	CySysWdtLocked:
 817              	.LFB9:
 976:Generated_Source\PSoC4/CyLib.c **** 
 977:Generated_Source\PSoC4/CyLib.c **** 
 978:Generated_Source\PSoC4/CyLib.c ****     /*******************************************************************************
 979:Generated_Source\PSoC4/CyLib.c ****     * Function Name: CySysWdtLocked
 980:Generated_Source\PSoC4/CyLib.c ****     ********************************************************************************
 981:Generated_Source\PSoC4/CyLib.c ****     *
 982:Generated_Source\PSoC4/CyLib.c ****     * Summary:
 983:Generated_Source\PSoC4/CyLib.c ****     *  Reports WDT lock state.
 984:Generated_Source\PSoC4/CyLib.c ****     *
 985:Generated_Source\PSoC4/CyLib.c ****     * Parameters:
 986:Generated_Source\PSoC4/CyLib.c ****     *  None
 987:Generated_Source\PSoC4/CyLib.c ****     *
 988:Generated_Source\PSoC4/CyLib.c ****     * Return:
 989:Generated_Source\PSoC4/CyLib.c ****     *  1 - WDT is locked, and 0 - WDT is unlocked.
 990:Generated_Source\PSoC4/CyLib.c ****     *
 991:Generated_Source\PSoC4/CyLib.c ****     *******************************************************************************/
 992:Generated_Source\PSoC4/CyLib.c ****     static uint32 CySysWdtLocked(void)
 993:Generated_Source\PSoC4/CyLib.c ****     {
 818              		.loc 1 993 0
 819              		.cfi_startproc
 820              		@ args = 0, pretend = 0, frame = 0
 821              		@ frame_needed = 1, uses_anonymous_args = 0
 822 0000 80B5     		push	{r7, lr}
 823              		.cfi_def_cfa_offset 8
ARM GAS  C:\Users\jdrd3\AppData\Local\Temp\ccRHZt6s.s 			page 33


 824              		.cfi_offset 7, -8
 825              		.cfi_offset 14, -4
 826 0002 00AF     		add	r7, sp, #0
 827              		.cfi_def_cfa_register 7
 994:Generated_Source\PSoC4/CyLib.c ****         /* Prohibits writing to WDT registers and ILO/WCO registers when not equal 0 */
 995:Generated_Source\PSoC4/CyLib.c ****         return ((0u != (CY_SYS_CLK_SELECT_REG & (uint32)(CY_SYS_WDT_CLK_LOCK_BITS_MASK))) ? (uint32
 828              		.loc 1 995 0
 829 0004 054B     		ldr	r3, .L48
 830 0006 1A68     		ldr	r2, [r3]
 831 0008 C023     		movs	r3, #192
 832 000a 1B02     		lsls	r3, r3, #8
 833 000c 1340     		ands	r3, r2
 834 000e 01D0     		beq	.L45
 835              		.loc 1 995 0 is_stmt 0 discriminator 1
 836 0010 0123     		movs	r3, #1
 837 0012 00E0     		b	.L47
 838              	.L45:
 839              		.loc 1 995 0 discriminator 2
 840 0014 0023     		movs	r3, #0
 841              	.L47:
 996:Generated_Source\PSoC4/CyLib.c ****     }
 842              		.loc 1 996 0 is_stmt 1 discriminator 5
 843 0016 1800     		movs	r0, r3
 844 0018 BD46     		mov	sp, r7
 845              		@ sp needed
 846 001a 80BD     		pop	{r7, pc}
 847              	.L49:
 848              		.align	2
 849              	.L48:
 850 001c 00010B40 		.word	1074462976
 851              		.cfi_endproc
 852              	.LFE9:
 853              		.size	CySysWdtLocked, .-CySysWdtLocked
 854              		.section	.text.CySysWdtUnlock,"ax",%progbits
 855              		.align	2
 856              		.global	CySysWdtUnlock
 857              		.code	16
 858              		.thumb_func
 859              		.type	CySysWdtUnlock, %function
 860              	CySysWdtUnlock:
 861              	.LFB10:
 997:Generated_Source\PSoC4/CyLib.c **** 
 998:Generated_Source\PSoC4/CyLib.c **** 
 999:Generated_Source\PSoC4/CyLib.c ****     /*******************************************************************************
1000:Generated_Source\PSoC4/CyLib.c ****     * Function Name: CySysWdtUnlock
1001:Generated_Source\PSoC4/CyLib.c ****     ********************************************************************************
1002:Generated_Source\PSoC4/CyLib.c ****     *
1003:Generated_Source\PSoC4/CyLib.c ****     * Summary:
1004:Generated_Source\PSoC4/CyLib.c ****     *  Unlocks the Watchdog Timer configuration register.
1005:Generated_Source\PSoC4/CyLib.c ****     *
1006:Generated_Source\PSoC4/CyLib.c ****     * Parameters:
1007:Generated_Source\PSoC4/CyLib.c ****     *  None
1008:Generated_Source\PSoC4/CyLib.c ****     *
1009:Generated_Source\PSoC4/CyLib.c ****     * Return:
1010:Generated_Source\PSoC4/CyLib.c ****     *  None
1011:Generated_Source\PSoC4/CyLib.c ****     *
1012:Generated_Source\PSoC4/CyLib.c ****     *******************************************************************************/
ARM GAS  C:\Users\jdrd3\AppData\Local\Temp\ccRHZt6s.s 			page 34


1013:Generated_Source\PSoC4/CyLib.c ****     void CySysWdtUnlock(void)
1014:Generated_Source\PSoC4/CyLib.c ****     {
 862              		.loc 1 1014 0
 863              		.cfi_startproc
 864              		@ args = 0, pretend = 0, frame = 8
 865              		@ frame_needed = 1, uses_anonymous_args = 0
 866 0000 90B5     		push	{r4, r7, lr}
 867              		.cfi_def_cfa_offset 12
 868              		.cfi_offset 4, -12
 869              		.cfi_offset 7, -8
 870              		.cfi_offset 14, -4
 871 0002 83B0     		sub	sp, sp, #12
 872              		.cfi_def_cfa_offset 24
 873 0004 00AF     		add	r7, sp, #0
 874              		.cfi_def_cfa_register 7
1015:Generated_Source\PSoC4/CyLib.c ****         uint8 interruptState;
1016:Generated_Source\PSoC4/CyLib.c ****         interruptState = CyEnterCriticalSection();
 875              		.loc 1 1016 0
 876 0006 FC1D     		adds	r4, r7, #7
 877 0008 FFF7FEFF 		bl	CyEnterCriticalSection
 878 000c 0300     		movs	r3, r0
 879 000e 2370     		strb	r3, [r4]
1017:Generated_Source\PSoC4/CyLib.c **** 
1018:Generated_Source\PSoC4/CyLib.c ****         /* Removing WDT lock requires two writes */
1019:Generated_Source\PSoC4/CyLib.c ****         CY_SYS_CLK_SELECT_REG = ((CY_SYS_CLK_SELECT_REG & (uint32)(~CY_SYS_WDT_CLK_LOCK_BITS_MASK))
 880              		.loc 1 1019 0
 881 0010 0D4B     		ldr	r3, .L51
 882 0012 0D4A     		ldr	r2, .L51
 883 0014 1268     		ldr	r2, [r2]
 884 0016 0D49     		ldr	r1, .L51+4
 885 0018 0A40     		ands	r2, r1
 886 001a 8021     		movs	r1, #128
 887 001c C901     		lsls	r1, r1, #7
 888 001e 0A43     		orrs	r2, r1
 889 0020 1A60     		str	r2, [r3]
1020:Generated_Source\PSoC4/CyLib.c ****                 CY_SYS_WDT_CLK_LOCK_BIT0);
1021:Generated_Source\PSoC4/CyLib.c **** 
1022:Generated_Source\PSoC4/CyLib.c ****         CY_SYS_CLK_SELECT_REG = ((CY_SYS_CLK_SELECT_REG & (uint32)(~CY_SYS_WDT_CLK_LOCK_BITS_MASK))
 890              		.loc 1 1022 0
 891 0022 094B     		ldr	r3, .L51
 892 0024 084A     		ldr	r2, .L51
 893 0026 1268     		ldr	r2, [r2]
 894 0028 0849     		ldr	r1, .L51+4
 895 002a 0A40     		ands	r2, r1
 896 002c 8021     		movs	r1, #128
 897 002e 0902     		lsls	r1, r1, #8
 898 0030 0A43     		orrs	r2, r1
 899 0032 1A60     		str	r2, [r3]
1023:Generated_Source\PSoC4/CyLib.c ****                 CY_SYS_WDT_CLK_LOCK_BIT1);
1024:Generated_Source\PSoC4/CyLib.c **** 
1025:Generated_Source\PSoC4/CyLib.c ****         CyExitCriticalSection(interruptState);
 900              		.loc 1 1025 0
 901 0034 FB1D     		adds	r3, r7, #7
 902 0036 1B78     		ldrb	r3, [r3]
 903 0038 1800     		movs	r0, r3
 904 003a FFF7FEFF 		bl	CyExitCriticalSection
1026:Generated_Source\PSoC4/CyLib.c ****     }
ARM GAS  C:\Users\jdrd3\AppData\Local\Temp\ccRHZt6s.s 			page 35


 905              		.loc 1 1026 0
 906 003e C046     		nop
 907 0040 BD46     		mov	sp, r7
 908 0042 03B0     		add	sp, sp, #12
 909              		@ sp needed
 910 0044 90BD     		pop	{r4, r7, pc}
 911              	.L52:
 912 0046 C046     		.align	2
 913              	.L51:
 914 0048 00010B40 		.word	1074462976
 915 004c FF3FFFFF 		.word	-49153
 916              		.cfi_endproc
 917              	.LFE10:
 918              		.size	CySysWdtUnlock, .-CySysWdtUnlock
 919              		.section	.text.CySysWdtReadEnabledStatus,"ax",%progbits
 920              		.align	2
 921              		.global	CySysWdtReadEnabledStatus
 922              		.code	16
 923              		.thumb_func
 924              		.type	CySysWdtReadEnabledStatus, %function
 925              	CySysWdtReadEnabledStatus:
 926              	.LFB11:
1027:Generated_Source\PSoC4/CyLib.c **** 
1028:Generated_Source\PSoC4/CyLib.c **** 
1029:Generated_Source\PSoC4/CyLib.c ****     /*******************************************************************************
1030:Generated_Source\PSoC4/CyLib.c ****     * Function Name: CySysWdtReadEnabledStatus
1031:Generated_Source\PSoC4/CyLib.c ****     ********************************************************************************
1032:Generated_Source\PSoC4/CyLib.c ****     *
1033:Generated_Source\PSoC4/CyLib.c ****     * Summary:
1034:Generated_Source\PSoC4/CyLib.c ****     *  Reads the enabled status of one of the three WDT counters.
1035:Generated_Source\PSoC4/CyLib.c ****     *
1036:Generated_Source\PSoC4/CyLib.c ****     * Parameters:
1037:Generated_Source\PSoC4/CyLib.c ****     *  counterNum: Valid range [0-2].  Number of the WDT counter.
1038:Generated_Source\PSoC4/CyLib.c ****     *
1039:Generated_Source\PSoC4/CyLib.c ****     * Return:
1040:Generated_Source\PSoC4/CyLib.c ****     *  Status of WDT counter:
1041:Generated_Source\PSoC4/CyLib.c ****     *   0 - counter is disabled
1042:Generated_Source\PSoC4/CyLib.c ****     *   1 - counter is enabled
1043:Generated_Source\PSoC4/CyLib.c ****     *
1044:Generated_Source\PSoC4/CyLib.c ****     * Side Effects:
1045:Generated_Source\PSoC4/CyLib.c ****     *  This function returns actual WDT counter status from status register. It may
1046:Generated_Source\PSoC4/CyLib.c ****     *  take up to 3 LFCLK cycles since WDT counter was enabled for WDT status
1047:Generated_Source\PSoC4/CyLib.c ****     *  register to contain actual data.
1048:Generated_Source\PSoC4/CyLib.c ****     *
1049:Generated_Source\PSoC4/CyLib.c ****     *******************************************************************************/
1050:Generated_Source\PSoC4/CyLib.c ****     uint32 CySysWdtReadEnabledStatus(uint32 counterNum)
1051:Generated_Source\PSoC4/CyLib.c ****     {
 927              		.loc 1 1051 0
 928              		.cfi_startproc
 929              		@ args = 0, pretend = 0, frame = 8
 930              		@ frame_needed = 1, uses_anonymous_args = 0
 931 0000 80B5     		push	{r7, lr}
 932              		.cfi_def_cfa_offset 8
 933              		.cfi_offset 7, -8
 934              		.cfi_offset 14, -4
 935 0002 82B0     		sub	sp, sp, #8
 936              		.cfi_def_cfa_offset 16
ARM GAS  C:\Users\jdrd3\AppData\Local\Temp\ccRHZt6s.s 			page 36


 937 0004 00AF     		add	r7, sp, #0
 938              		.cfi_def_cfa_register 7
 939 0006 7860     		str	r0, [r7, #4]
1052:Generated_Source\PSoC4/CyLib.c ****         CYASSERT(counterNum < CY_SYS_WDT_COUNTERS_MAX);
 940              		.loc 1 1052 0
 941 0008 7B68     		ldr	r3, [r7, #4]
 942 000a 022B     		cmp	r3, #2
 943 000c 02D9     		bls	.L54
 944              		.loc 1 1052 0 is_stmt 0 discriminator 1
 945 000e 0020     		movs	r0, #0
 946 0010 FFF7FEFF 		bl	CyHalt
 947              	.L54:
1053:Generated_Source\PSoC4/CyLib.c ****         return ((CY_SYS_WDT_CONTROL_REG >> ((CY_SYS_WDT_CNT_SHIFT * counterNum) + CY_SYS_WDT_CNT_ST
 948              		.loc 1 1053 0 is_stmt 1
 949 0014 064B     		ldr	r3, .L56
 950 0016 1A68     		ldr	r2, [r3]
 951 0018 7B68     		ldr	r3, [r7, #4]
 952 001a DB00     		lsls	r3, r3, #3
 953 001c 0133     		adds	r3, r3, #1
 954 001e DA40     		lsrs	r2, r2, r3
 955 0020 1300     		movs	r3, r2
 956 0022 0122     		movs	r2, #1
 957 0024 1340     		ands	r3, r2
1054:Generated_Source\PSoC4/CyLib.c ****     }
 958              		.loc 1 1054 0
 959 0026 1800     		movs	r0, r3
 960 0028 BD46     		mov	sp, r7
 961 002a 02B0     		add	sp, sp, #8
 962              		@ sp needed
 963 002c 80BD     		pop	{r7, pc}
 964              	.L57:
 965 002e C046     		.align	2
 966              	.L56:
 967 0030 10020B40 		.word	1074463248
 968              		.cfi_endproc
 969              	.LFE11:
 970              		.size	CySysWdtReadEnabledStatus, .-CySysWdtReadEnabledStatus
 971              		.section	.text.CySysWdtWriteMode,"ax",%progbits
 972              		.align	2
 973              		.global	CySysWdtWriteMode
 974              		.code	16
 975              		.thumb_func
 976              		.type	CySysWdtWriteMode, %function
 977              	CySysWdtWriteMode:
 978              	.LFB12:
1055:Generated_Source\PSoC4/CyLib.c **** 
1056:Generated_Source\PSoC4/CyLib.c **** 
1057:Generated_Source\PSoC4/CyLib.c ****     /*******************************************************************************
1058:Generated_Source\PSoC4/CyLib.c ****     * Function Name: CySysWdtWriteMode
1059:Generated_Source\PSoC4/CyLib.c ****     ********************************************************************************
1060:Generated_Source\PSoC4/CyLib.c ****     *
1061:Generated_Source\PSoC4/CyLib.c ****     * Summary:
1062:Generated_Source\PSoC4/CyLib.c ****     *   Writes the mode of one of the three WDT counters.
1063:Generated_Source\PSoC4/CyLib.c ****     *
1064:Generated_Source\PSoC4/CyLib.c ****     * Parameters:
1065:Generated_Source\PSoC4/CyLib.c ****     *   counterNum: Valid range [0-2].  Number of the WDT counter.
1066:Generated_Source\PSoC4/CyLib.c ****     *   mode:       Mode of operation for the counter
ARM GAS  C:\Users\jdrd3\AppData\Local\Temp\ccRHZt6s.s 			page 37


1067:Generated_Source\PSoC4/CyLib.c ****     *       Define                   Mode
1068:Generated_Source\PSoC4/CyLib.c ****     *    CY_SYS_WDT_MODE_NONE       Free running
1069:Generated_Source\PSoC4/CyLib.c ****     *    CY_SYS_WDT_MODE_INT        Interrupt generated on match for counter 0
1070:Generated_Source\PSoC4/CyLib.c ****     *                               and 1, and on bit toggle for counter 2.
1071:Generated_Source\PSoC4/CyLib.c ****     *    CY_SYS_WDT_MODE_RESET      Reset on match (valid for counter 0 and 1
1072:Generated_Source\PSoC4/CyLib.c ****     *                               only)
1073:Generated_Source\PSoC4/CyLib.c ****     *    CY_SYS_WDT_MODE_INT_RESET  Generate an interrupt.  Generate a reset on
1074:Generated_Source\PSoC4/CyLib.c ****     *                                    the 3rd unhandled interrupt.
1075:Generated_Source\PSoC4/CyLib.c ****     *                                    (valid for counter 0 and 1 only)
1076:Generated_Source\PSoC4/CyLib.c ****     * Return:
1077:Generated_Source\PSoC4/CyLib.c ****     *   None
1078:Generated_Source\PSoC4/CyLib.c ****     *
1079:Generated_Source\PSoC4/CyLib.c ****     * Side Effects:
1080:Generated_Source\PSoC4/CyLib.c ****     *   WDT counter counterNum should be disabled to set mode. Otherwise this
1081:Generated_Source\PSoC4/CyLib.c ****     *   function call will have no effect. If the specified counter is enabled,
1082:Generated_Source\PSoC4/CyLib.c ****     *   call CySysWdtDisable() function with the corresponding parameter to
1083:Generated_Source\PSoC4/CyLib.c ****     *   disable specified counter and wait for it to stop.
1084:Generated_Source\PSoC4/CyLib.c ****     *
1085:Generated_Source\PSoC4/CyLib.c ****     *******************************************************************************/
1086:Generated_Source\PSoC4/CyLib.c ****     void CySysWdtWriteMode(uint32 counterNum, uint32 mode)
1087:Generated_Source\PSoC4/CyLib.c ****     {
 979              		.loc 1 1087 0
 980              		.cfi_startproc
 981              		@ args = 0, pretend = 0, frame = 16
 982              		@ frame_needed = 1, uses_anonymous_args = 0
 983 0000 80B5     		push	{r7, lr}
 984              		.cfi_def_cfa_offset 8
 985              		.cfi_offset 7, -8
 986              		.cfi_offset 14, -4
 987 0002 84B0     		sub	sp, sp, #16
 988              		.cfi_def_cfa_offset 24
 989 0004 00AF     		add	r7, sp, #0
 990              		.cfi_def_cfa_register 7
 991 0006 7860     		str	r0, [r7, #4]
 992 0008 3960     		str	r1, [r7]
1088:Generated_Source\PSoC4/CyLib.c ****         uint32 configRegValue;
1089:Generated_Source\PSoC4/CyLib.c **** 
1090:Generated_Source\PSoC4/CyLib.c ****         CYASSERT(counterNum < CY_SYS_WDT_COUNTERS_MAX);
 993              		.loc 1 1090 0
 994 000a 7B68     		ldr	r3, [r7, #4]
 995 000c 022B     		cmp	r3, #2
 996 000e 02D9     		bls	.L59
 997              		.loc 1 1090 0 is_stmt 0 discriminator 1
 998 0010 0020     		movs	r0, #0
 999 0012 FFF7FEFF 		bl	CyHalt
 1000              	.L59:
1091:Generated_Source\PSoC4/CyLib.c **** 
1092:Generated_Source\PSoC4/CyLib.c ****         if(0u == CySysWdtReadEnabledStatus(counterNum))
 1001              		.loc 1 1092 0 is_stmt 1
 1002 0016 7B68     		ldr	r3, [r7, #4]
 1003 0018 1800     		movs	r0, r3
 1004 001a FFF7FEFF 		bl	CySysWdtReadEnabledStatus
 1005 001e 031E     		subs	r3, r0, #0
 1006 0020 16D1     		bne	.L61
1093:Generated_Source\PSoC4/CyLib.c ****         {
1094:Generated_Source\PSoC4/CyLib.c ****             configRegValue = CY_SYS_WDT_CONFIG_REG &
 1007              		.loc 1 1094 0
ARM GAS  C:\Users\jdrd3\AppData\Local\Temp\ccRHZt6s.s 			page 38


 1008 0022 0D4B     		ldr	r3, .L62
 1009 0024 1B68     		ldr	r3, [r3]
1095:Generated_Source\PSoC4/CyLib.c ****                                 (uint32)~((uint32)(CY_SYS_WDT_MODE_MASK << (counterNum * CY_SYS_WDT
 1010              		.loc 1 1095 0
 1011 0026 7A68     		ldr	r2, [r7, #4]
 1012 0028 D200     		lsls	r2, r2, #3
 1013 002a 0321     		movs	r1, #3
 1014 002c 9140     		lsls	r1, r1, r2
 1015 002e 0A00     		movs	r2, r1
 1016 0030 D243     		mvns	r2, r2
1094:Generated_Source\PSoC4/CyLib.c ****                                 (uint32)~((uint32)(CY_SYS_WDT_MODE_MASK << (counterNum * CY_SYS_WDT
 1017              		.loc 1 1094 0
 1018 0032 1340     		ands	r3, r2
 1019 0034 FB60     		str	r3, [r7, #12]
1096:Generated_Source\PSoC4/CyLib.c ****             configRegValue |= (uint32)((mode & CY_SYS_WDT_MODE_MASK) << (counterNum * CY_SYS_WDT_CN
 1020              		.loc 1 1096 0
 1021 0036 3B68     		ldr	r3, [r7]
 1022 0038 0322     		movs	r2, #3
 1023 003a 1A40     		ands	r2, r3
 1024 003c 7B68     		ldr	r3, [r7, #4]
 1025 003e DB00     		lsls	r3, r3, #3
 1026 0040 9A40     		lsls	r2, r2, r3
 1027 0042 1300     		movs	r3, r2
 1028 0044 FA68     		ldr	r2, [r7, #12]
 1029 0046 1343     		orrs	r3, r2
 1030 0048 FB60     		str	r3, [r7, #12]
1097:Generated_Source\PSoC4/CyLib.c ****             CY_SYS_WDT_CONFIG_REG = configRegValue;
 1031              		.loc 1 1097 0
 1032 004a 034B     		ldr	r3, .L62
 1033 004c FA68     		ldr	r2, [r7, #12]
 1034 004e 1A60     		str	r2, [r3]
 1035              	.L61:
1098:Generated_Source\PSoC4/CyLib.c ****         }
1099:Generated_Source\PSoC4/CyLib.c ****     }
 1036              		.loc 1 1099 0
 1037 0050 C046     		nop
 1038 0052 BD46     		mov	sp, r7
 1039 0054 04B0     		add	sp, sp, #16
 1040              		@ sp needed
 1041 0056 80BD     		pop	{r7, pc}
 1042              	.L63:
 1043              		.align	2
 1044              	.L62:
 1045 0058 0C020B40 		.word	1074463244
 1046              		.cfi_endproc
 1047              	.LFE12:
 1048              		.size	CySysWdtWriteMode, .-CySysWdtWriteMode
 1049              		.section	.text.CySysWdtReadMode,"ax",%progbits
 1050              		.align	2
 1051              		.global	CySysWdtReadMode
 1052              		.code	16
 1053              		.thumb_func
 1054              		.type	CySysWdtReadMode, %function
 1055              	CySysWdtReadMode:
 1056              	.LFB13:
1100:Generated_Source\PSoC4/CyLib.c **** 
1101:Generated_Source\PSoC4/CyLib.c **** 
ARM GAS  C:\Users\jdrd3\AppData\Local\Temp\ccRHZt6s.s 			page 39


1102:Generated_Source\PSoC4/CyLib.c ****     /*******************************************************************************
1103:Generated_Source\PSoC4/CyLib.c ****     * Function Name: CySysWdtReadMode
1104:Generated_Source\PSoC4/CyLib.c ****     ********************************************************************************
1105:Generated_Source\PSoC4/CyLib.c ****     *
1106:Generated_Source\PSoC4/CyLib.c ****     * Summary:
1107:Generated_Source\PSoC4/CyLib.c ****     *  Reads the mode of one of the three WDT counters.
1108:Generated_Source\PSoC4/CyLib.c ****     *
1109:Generated_Source\PSoC4/CyLib.c ****     * Parameters:
1110:Generated_Source\PSoC4/CyLib.c ****     *  counterNum: Valid range [0-2].  Number of the WDT counter.
1111:Generated_Source\PSoC4/CyLib.c ****     *
1112:Generated_Source\PSoC4/CyLib.c ****     * Return:
1113:Generated_Source\PSoC4/CyLib.c ****     *  Mode of the counter.  Same enumerated values as mode parameter used in
1114:Generated_Source\PSoC4/CyLib.c ****     *  CySysWdtWriteMode().
1115:Generated_Source\PSoC4/CyLib.c ****     *
1116:Generated_Source\PSoC4/CyLib.c ****     *******************************************************************************/
1117:Generated_Source\PSoC4/CyLib.c ****     uint32 CySysWdtReadMode(uint32 counterNum)
1118:Generated_Source\PSoC4/CyLib.c ****     {
 1057              		.loc 1 1118 0
 1058              		.cfi_startproc
 1059              		@ args = 0, pretend = 0, frame = 8
 1060              		@ frame_needed = 1, uses_anonymous_args = 0
 1061 0000 80B5     		push	{r7, lr}
 1062              		.cfi_def_cfa_offset 8
 1063              		.cfi_offset 7, -8
 1064              		.cfi_offset 14, -4
 1065 0002 82B0     		sub	sp, sp, #8
 1066              		.cfi_def_cfa_offset 16
 1067 0004 00AF     		add	r7, sp, #0
 1068              		.cfi_def_cfa_register 7
 1069 0006 7860     		str	r0, [r7, #4]
1119:Generated_Source\PSoC4/CyLib.c ****         return ((CY_SYS_WDT_CONFIG_REG >> (counterNum * CY_SYS_WDT_CNT_SHIFT)) & CY_SYS_WDT_MODE_MA
 1070              		.loc 1 1119 0
 1071 0008 054B     		ldr	r3, .L66
 1072 000a 1A68     		ldr	r2, [r3]
 1073 000c 7B68     		ldr	r3, [r7, #4]
 1074 000e DB00     		lsls	r3, r3, #3
 1075 0010 DA40     		lsrs	r2, r2, r3
 1076 0012 1300     		movs	r3, r2
 1077 0014 0322     		movs	r2, #3
 1078 0016 1340     		ands	r3, r2
1120:Generated_Source\PSoC4/CyLib.c ****     }
 1079              		.loc 1 1120 0
 1080 0018 1800     		movs	r0, r3
 1081 001a BD46     		mov	sp, r7
 1082 001c 02B0     		add	sp, sp, #8
 1083              		@ sp needed
 1084 001e 80BD     		pop	{r7, pc}
 1085              	.L67:
 1086              		.align	2
 1087              	.L66:
 1088 0020 0C020B40 		.word	1074463244
 1089              		.cfi_endproc
 1090              	.LFE13:
 1091              		.size	CySysWdtReadMode, .-CySysWdtReadMode
 1092              		.section	.text.CySysWdtWriteClearOnMatch,"ax",%progbits
 1093              		.align	2
 1094              		.global	CySysWdtWriteClearOnMatch
ARM GAS  C:\Users\jdrd3\AppData\Local\Temp\ccRHZt6s.s 			page 40


 1095              		.code	16
 1096              		.thumb_func
 1097              		.type	CySysWdtWriteClearOnMatch, %function
 1098              	CySysWdtWriteClearOnMatch:
 1099              	.LFB14:
1121:Generated_Source\PSoC4/CyLib.c **** 
1122:Generated_Source\PSoC4/CyLib.c **** 
1123:Generated_Source\PSoC4/CyLib.c ****     /*******************************************************************************
1124:Generated_Source\PSoC4/CyLib.c ****     * Function Name: CySysWdtWriteClearOnMatch
1125:Generated_Source\PSoC4/CyLib.c ****     ********************************************************************************
1126:Generated_Source\PSoC4/CyLib.c ****     *
1127:Generated_Source\PSoC4/CyLib.c ****     * Summary:
1128:Generated_Source\PSoC4/CyLib.c ****     *  Configures the WDT counter clear on a match setting.  If configured to clear
1129:Generated_Source\PSoC4/CyLib.c ****     *  on match, the counter will count from 0 to the MatchValue giving it a
1130:Generated_Source\PSoC4/CyLib.c ****     *  period of (MatchValue + 1).
1131:Generated_Source\PSoC4/CyLib.c ****     *
1132:Generated_Source\PSoC4/CyLib.c ****     * Parameters:
1133:Generated_Source\PSoC4/CyLib.c ****     *  counterNum:
1134:Generated_Source\PSoC4/CyLib.c ****     *   Valid range [0-1].  Number of the WDT counter.  Match values are not
1135:Generated_Source\PSoC4/CyLib.c ****     *   supported by counter 2.
1136:Generated_Source\PSoC4/CyLib.c ****     *
1137:Generated_Source\PSoC4/CyLib.c ****     * enable:
1138:Generated_Source\PSoC4/CyLib.c ****     *   0 to disable, 1 to enable
1139:Generated_Source\PSoC4/CyLib.c ****     *
1140:Generated_Source\PSoC4/CyLib.c ****     * Return:
1141:Generated_Source\PSoC4/CyLib.c ****     *   None
1142:Generated_Source\PSoC4/CyLib.c ****     *
1143:Generated_Source\PSoC4/CyLib.c ****     * Side Effects:
1144:Generated_Source\PSoC4/CyLib.c ****     *   WDT counter counterNum should be disabled. Otherwise this function call will
1145:Generated_Source\PSoC4/CyLib.c ****     *   have no effect. If the specified counter is enabled, call CySysWdtDisable()
1146:Generated_Source\PSoC4/CyLib.c ****     *   function with the corresponding parameter to disable specified counter and
1147:Generated_Source\PSoC4/CyLib.c ****     *   wait for it to stop. This may take up to three LFCLK cycles.
1148:Generated_Source\PSoC4/CyLib.c ****     *
1149:Generated_Source\PSoC4/CyLib.c ****     *******************************************************************************/
1150:Generated_Source\PSoC4/CyLib.c ****     void CySysWdtWriteClearOnMatch(uint32 counterNum, uint32 enable)
1151:Generated_Source\PSoC4/CyLib.c ****     {
 1100              		.loc 1 1151 0
 1101              		.cfi_startproc
 1102              		@ args = 0, pretend = 0, frame = 16
 1103              		@ frame_needed = 1, uses_anonymous_args = 0
 1104 0000 80B5     		push	{r7, lr}
 1105              		.cfi_def_cfa_offset 8
 1106              		.cfi_offset 7, -8
 1107              		.cfi_offset 14, -4
 1108 0002 84B0     		sub	sp, sp, #16
 1109              		.cfi_def_cfa_offset 24
 1110 0004 00AF     		add	r7, sp, #0
 1111              		.cfi_def_cfa_register 7
 1112 0006 7860     		str	r0, [r7, #4]
 1113 0008 3960     		str	r1, [r7]
1152:Generated_Source\PSoC4/CyLib.c ****         uint32 configRegValue;
1153:Generated_Source\PSoC4/CyLib.c **** 
1154:Generated_Source\PSoC4/CyLib.c ****         CYASSERT((counterNum == CY_SYS_WDT_COUNTER0) ||
 1114              		.loc 1 1154 0
 1115 000a 7B68     		ldr	r3, [r7, #4]
 1116 000c 002B     		cmp	r3, #0
 1117 000e 02D0     		beq	.L69
ARM GAS  C:\Users\jdrd3\AppData\Local\Temp\ccRHZt6s.s 			page 41


 1118              		.loc 1 1154 0 is_stmt 0 discriminator 2
 1119 0010 7B68     		ldr	r3, [r7, #4]
 1120 0012 012B     		cmp	r3, #1
 1121 0014 01D1     		bne	.L70
 1122              	.L69:
 1123              		.loc 1 1154 0 discriminator 3
 1124 0016 0123     		movs	r3, #1
 1125 0018 00E0     		b	.L71
 1126              	.L70:
 1127              		.loc 1 1154 0 discriminator 4
 1128 001a 0023     		movs	r3, #0
 1129              	.L71:
 1130              		.loc 1 1154 0 discriminator 6
 1131 001c 002B     		cmp	r3, #0
 1132 001e 02D1     		bne	.L72
 1133              		.loc 1 1154 0 discriminator 7
 1134 0020 0020     		movs	r0, #0
 1135 0022 FFF7FEFF 		bl	CyHalt
 1136              	.L72:
1155:Generated_Source\PSoC4/CyLib.c ****                  (counterNum == CY_SYS_WDT_COUNTER1));
1156:Generated_Source\PSoC4/CyLib.c **** 
1157:Generated_Source\PSoC4/CyLib.c ****         if(0u == CySysWdtReadEnabledStatus(counterNum))
 1137              		.loc 1 1157 0 is_stmt 1
 1138 0026 7B68     		ldr	r3, [r7, #4]
 1139 0028 1800     		movs	r0, r3
 1140 002a FFF7FEFF 		bl	CySysWdtReadEnabledStatus
 1141 002e 031E     		subs	r3, r0, #0
 1142 0030 16D1     		bne	.L74
1158:Generated_Source\PSoC4/CyLib.c ****         {
1159:Generated_Source\PSoC4/CyLib.c ****             configRegValue = CY_SYS_WDT_CONFIG_REG &
 1143              		.loc 1 1159 0
 1144 0032 0D4B     		ldr	r3, .L75
 1145 0034 1B68     		ldr	r3, [r3]
1160:Generated_Source\PSoC4/CyLib.c ****                 (uint32)~((uint32)((uint32)1u << ((counterNum * CY_SYS_WDT_CNT_SHIFT) + CY_SYS_WDT_
 1146              		.loc 1 1160 0
 1147 0036 7A68     		ldr	r2, [r7, #4]
 1148 0038 D200     		lsls	r2, r2, #3
 1149 003a 0232     		adds	r2, r2, #2
 1150 003c 0121     		movs	r1, #1
 1151 003e 9140     		lsls	r1, r1, r2
 1152 0040 0A00     		movs	r2, r1
 1153 0042 D243     		mvns	r2, r2
1159:Generated_Source\PSoC4/CyLib.c ****                 (uint32)~((uint32)((uint32)1u << ((counterNum * CY_SYS_WDT_CNT_SHIFT) + CY_SYS_WDT_
 1154              		.loc 1 1159 0
 1155 0044 1340     		ands	r3, r2
 1156 0046 FB60     		str	r3, [r7, #12]
1161:Generated_Source\PSoC4/CyLib.c **** 
1162:Generated_Source\PSoC4/CyLib.c ****             configRegValue
1163:Generated_Source\PSoC4/CyLib.c ****                 |= (uint32)(enable << ((counterNum * CY_SYS_WDT_CNT_SHIFT) + CY_SYS_WDT_CNT_MATCH_C
 1157              		.loc 1 1163 0
 1158 0048 7B68     		ldr	r3, [r7, #4]
 1159 004a DB00     		lsls	r3, r3, #3
 1160 004c 0233     		adds	r3, r3, #2
 1161 004e 3A68     		ldr	r2, [r7]
 1162 0050 9A40     		lsls	r2, r2, r3
 1163 0052 1300     		movs	r3, r2
 1164 0054 FA68     		ldr	r2, [r7, #12]
ARM GAS  C:\Users\jdrd3\AppData\Local\Temp\ccRHZt6s.s 			page 42


 1165 0056 1343     		orrs	r3, r2
 1166 0058 FB60     		str	r3, [r7, #12]
1164:Generated_Source\PSoC4/CyLib.c **** 
1165:Generated_Source\PSoC4/CyLib.c ****             CY_SYS_WDT_CONFIG_REG = configRegValue;
 1167              		.loc 1 1165 0
 1168 005a 034B     		ldr	r3, .L75
 1169 005c FA68     		ldr	r2, [r7, #12]
 1170 005e 1A60     		str	r2, [r3]
 1171              	.L74:
1166:Generated_Source\PSoC4/CyLib.c ****         }
1167:Generated_Source\PSoC4/CyLib.c ****     }
 1172              		.loc 1 1167 0
 1173 0060 C046     		nop
 1174 0062 BD46     		mov	sp, r7
 1175 0064 04B0     		add	sp, sp, #16
 1176              		@ sp needed
 1177 0066 80BD     		pop	{r7, pc}
 1178              	.L76:
 1179              		.align	2
 1180              	.L75:
 1181 0068 0C020B40 		.word	1074463244
 1182              		.cfi_endproc
 1183              	.LFE14:
 1184              		.size	CySysWdtWriteClearOnMatch, .-CySysWdtWriteClearOnMatch
 1185              		.section	.text.CySysWdtReadClearOnMatch,"ax",%progbits
 1186              		.align	2
 1187              		.global	CySysWdtReadClearOnMatch
 1188              		.code	16
 1189              		.thumb_func
 1190              		.type	CySysWdtReadClearOnMatch, %function
 1191              	CySysWdtReadClearOnMatch:
 1192              	.LFB15:
1168:Generated_Source\PSoC4/CyLib.c **** 
1169:Generated_Source\PSoC4/CyLib.c **** 
1170:Generated_Source\PSoC4/CyLib.c ****     /*******************************************************************************
1171:Generated_Source\PSoC4/CyLib.c ****     * Function Name: CySysWdtReadClearOnMatch
1172:Generated_Source\PSoC4/CyLib.c ****     ********************************************************************************
1173:Generated_Source\PSoC4/CyLib.c ****     *
1174:Generated_Source\PSoC4/CyLib.c ****     * Summary:
1175:Generated_Source\PSoC4/CyLib.c ****     *  Reads the clear on match setting for the specified counter.
1176:Generated_Source\PSoC4/CyLib.c ****     *
1177:Generated_Source\PSoC4/CyLib.c ****     * Parameters:
1178:Generated_Source\PSoC4/CyLib.c ****     *   counterNum: Valid range [0-1].  Number of the WDT counter.  Match values are
1179:Generated_Source\PSoC4/CyLib.c ****     *               not supported by counter 2.
1180:Generated_Source\PSoC4/CyLib.c ****     *
1181:Generated_Source\PSoC4/CyLib.c ****     * Return:
1182:Generated_Source\PSoC4/CyLib.c ****     *   Clear on Match status: 1 if enabled, 0 if disabled
1183:Generated_Source\PSoC4/CyLib.c ****     *
1184:Generated_Source\PSoC4/CyLib.c ****     *******************************************************************************/
1185:Generated_Source\PSoC4/CyLib.c ****     uint32 CySysWdtReadClearOnMatch(uint32 counterNum)
1186:Generated_Source\PSoC4/CyLib.c ****     {
 1193              		.loc 1 1186 0
 1194              		.cfi_startproc
 1195              		@ args = 0, pretend = 0, frame = 8
 1196              		@ frame_needed = 1, uses_anonymous_args = 0
 1197 0000 80B5     		push	{r7, lr}
 1198              		.cfi_def_cfa_offset 8
ARM GAS  C:\Users\jdrd3\AppData\Local\Temp\ccRHZt6s.s 			page 43


 1199              		.cfi_offset 7, -8
 1200              		.cfi_offset 14, -4
 1201 0002 82B0     		sub	sp, sp, #8
 1202              		.cfi_def_cfa_offset 16
 1203 0004 00AF     		add	r7, sp, #0
 1204              		.cfi_def_cfa_register 7
 1205 0006 7860     		str	r0, [r7, #4]
1187:Generated_Source\PSoC4/CyLib.c ****         CYASSERT((counterNum == CY_SYS_WDT_COUNTER0) ||
 1206              		.loc 1 1187 0
 1207 0008 7B68     		ldr	r3, [r7, #4]
 1208 000a 002B     		cmp	r3, #0
 1209 000c 02D0     		beq	.L78
 1210              		.loc 1 1187 0 is_stmt 0 discriminator 2
 1211 000e 7B68     		ldr	r3, [r7, #4]
 1212 0010 012B     		cmp	r3, #1
 1213 0012 01D1     		bne	.L79
 1214              	.L78:
 1215              		.loc 1 1187 0 discriminator 3
 1216 0014 0123     		movs	r3, #1
 1217 0016 00E0     		b	.L80
 1218              	.L79:
 1219              		.loc 1 1187 0 discriminator 4
 1220 0018 0023     		movs	r3, #0
 1221              	.L80:
 1222              		.loc 1 1187 0 discriminator 6
 1223 001a 002B     		cmp	r3, #0
 1224 001c 02D1     		bne	.L81
 1225              		.loc 1 1187 0 discriminator 7
 1226 001e 0020     		movs	r0, #0
 1227 0020 FFF7FEFF 		bl	CyHalt
 1228              	.L81:
1188:Generated_Source\PSoC4/CyLib.c ****                  (counterNum == CY_SYS_WDT_COUNTER1));
1189:Generated_Source\PSoC4/CyLib.c **** 
1190:Generated_Source\PSoC4/CyLib.c ****         return (uint32)((CY_SYS_WDT_CONFIG_REG >>
 1229              		.loc 1 1190 0 is_stmt 1
 1230 0024 064B     		ldr	r3, .L83
 1231 0026 1A68     		ldr	r2, [r3]
1191:Generated_Source\PSoC4/CyLib.c ****                         ((counterNum * CY_SYS_WDT_CNT_SHIFT) + CY_SYS_WDT_CNT_MATCH_CLR_SHIFT)) & 0
 1232              		.loc 1 1191 0
 1233 0028 7B68     		ldr	r3, [r7, #4]
 1234 002a DB00     		lsls	r3, r3, #3
 1235 002c 0233     		adds	r3, r3, #2
1190:Generated_Source\PSoC4/CyLib.c ****                         ((counterNum * CY_SYS_WDT_CNT_SHIFT) + CY_SYS_WDT_CNT_MATCH_CLR_SHIFT)) & 0
 1236              		.loc 1 1190 0
 1237 002e DA40     		lsrs	r2, r2, r3
 1238 0030 1300     		movs	r3, r2
 1239 0032 0122     		movs	r2, #1
 1240 0034 1340     		ands	r3, r2
1192:Generated_Source\PSoC4/CyLib.c ****     }
 1241              		.loc 1 1192 0
 1242 0036 1800     		movs	r0, r3
 1243 0038 BD46     		mov	sp, r7
 1244 003a 02B0     		add	sp, sp, #8
 1245              		@ sp needed
 1246 003c 80BD     		pop	{r7, pc}
 1247              	.L84:
 1248 003e C046     		.align	2
ARM GAS  C:\Users\jdrd3\AppData\Local\Temp\ccRHZt6s.s 			page 44


 1249              	.L83:
 1250 0040 0C020B40 		.word	1074463244
 1251              		.cfi_endproc
 1252              	.LFE15:
 1253              		.size	CySysWdtReadClearOnMatch, .-CySysWdtReadClearOnMatch
 1254              		.section	.text.CySysWdtEnable,"ax",%progbits
 1255              		.align	2
 1256              		.global	CySysWdtEnable
 1257              		.code	16
 1258              		.thumb_func
 1259              		.type	CySysWdtEnable, %function
 1260              	CySysWdtEnable:
 1261              	.LFB16:
1193:Generated_Source\PSoC4/CyLib.c **** 
1194:Generated_Source\PSoC4/CyLib.c **** 
1195:Generated_Source\PSoC4/CyLib.c ****     /*******************************************************************************
1196:Generated_Source\PSoC4/CyLib.c ****     * Function Name: CySysWdtEnable
1197:Generated_Source\PSoC4/CyLib.c ****     ********************************************************************************
1198:Generated_Source\PSoC4/CyLib.c ****     *
1199:Generated_Source\PSoC4/CyLib.c ****     * Summary:
1200:Generated_Source\PSoC4/CyLib.c ****     *  Enables the specified WDT counters.  All the counters specified in the mask are
1201:Generated_Source\PSoC4/CyLib.c ****     *  enabled.
1202:Generated_Source\PSoC4/CyLib.c ****     *
1203:Generated_Source\PSoC4/CyLib.c ****     * Parameters:
1204:Generated_Source\PSoC4/CyLib.c ****     *  counterMask: Mask of all counters to enable
1205:Generated_Source\PSoC4/CyLib.c ****     *       Define                       Counter
1206:Generated_Source\PSoC4/CyLib.c ****     *      CY_SYS_WDT_COUNTER0_MASK      0
1207:Generated_Source\PSoC4/CyLib.c ****     *      CY_SYS_WDT_COUNTER1_MASK      1
1208:Generated_Source\PSoC4/CyLib.c ****     *      CY_SYS_WDT_COUNTER2_MASK      2
1209:Generated_Source\PSoC4/CyLib.c ****     *
1210:Generated_Source\PSoC4/CyLib.c ****     * Return:
1211:Generated_Source\PSoC4/CyLib.c ****     *  None
1212:Generated_Source\PSoC4/CyLib.c ****     *
1213:Generated_Source\PSoC4/CyLib.c ****     * Side Effects:
1214:Generated_Source\PSoC4/CyLib.c ****     *  Enabling or disabling a WDT requires 3 LFCLK cycles to come into effect.
1215:Generated_Source\PSoC4/CyLib.c ****     *  Therefore, the WDT enable state must not be changed more than once in
1216:Generated_Source\PSoC4/CyLib.c ****     *  that period.
1217:Generated_Source\PSoC4/CyLib.c ****     *
1218:Generated_Source\PSoC4/CyLib.c ****     *  After WDT is enabled, it is illegal to write WDT configuration (WDT_CONFIG)
1219:Generated_Source\PSoC4/CyLib.c ****     *  and control (WDT_CONTROL) registers. That means that all WDT functions that
1220:Generated_Source\PSoC4/CyLib.c ****     *  contain 'write' in the name (with the exception of CySysWdtWriteMatch()
1221:Generated_Source\PSoC4/CyLib.c ****     *  function) are illegal to call once WDT enabled.
1222:Generated_Source\PSoC4/CyLib.c ****     *
1223:Generated_Source\PSoC4/CyLib.c ****     *  PSoC 4100 / PSoC 4200:
1224:Generated_Source\PSoC4/CyLib.c ****     *  This function enables the ILO.
1225:Generated_Source\PSoC4/CyLib.c ****     *
1226:Generated_Source\PSoC4/CyLib.c ****     *  PSoC 4100-BL / PSoC 4200-BL:
1227:Generated_Source\PSoC4/CyLib.c ****     *  The LFLCK should be configured before calling this function. The desired
1228:Generated_Source\PSoC4/CyLib.c ****     *  source should be enabled and configured to be the source for the LFCLK.
1229:Generated_Source\PSoC4/CyLib.c ****     *
1230:Generated_Source\PSoC4/CyLib.c ****     *******************************************************************************/
1231:Generated_Source\PSoC4/CyLib.c ****     void CySysWdtEnable(uint32 counterMask)
1232:Generated_Source\PSoC4/CyLib.c ****     {
 1262              		.loc 1 1232 0
 1263              		.cfi_startproc
 1264              		@ args = 0, pretend = 0, frame = 8
 1265              		@ frame_needed = 1, uses_anonymous_args = 0
ARM GAS  C:\Users\jdrd3\AppData\Local\Temp\ccRHZt6s.s 			page 45


 1266 0000 80B5     		push	{r7, lr}
 1267              		.cfi_def_cfa_offset 8
 1268              		.cfi_offset 7, -8
 1269              		.cfi_offset 14, -4
 1270 0002 82B0     		sub	sp, sp, #8
 1271              		.cfi_def_cfa_offset 16
 1272 0004 00AF     		add	r7, sp, #0
 1273              		.cfi_def_cfa_register 7
 1274 0006 7860     		str	r0, [r7, #4]
1233:Generated_Source\PSoC4/CyLib.c ****         #if (!CY_IP_WCO)
1234:Generated_Source\PSoC4/CyLib.c ****             CySysClkIloStart();
 1275              		.loc 1 1234 0
 1276 0008 FFF7FEFF 		bl	CySysClkIloStart
1235:Generated_Source\PSoC4/CyLib.c ****         #endif /* (!CY_IP_WCO) */
1236:Generated_Source\PSoC4/CyLib.c **** 
1237:Generated_Source\PSoC4/CyLib.c ****         CY_SYS_WDT_CONTROL_REG |= counterMask;
 1277              		.loc 1 1237 0
 1278 000c 144B     		ldr	r3, .L93
 1279 000e 144A     		ldr	r2, .L93
 1280 0010 1168     		ldr	r1, [r2]
 1281 0012 7A68     		ldr	r2, [r7, #4]
 1282 0014 0A43     		orrs	r2, r1
 1283 0016 1A60     		str	r2, [r3]
1238:Generated_Source\PSoC4/CyLib.c **** 
1239:Generated_Source\PSoC4/CyLib.c ****         if(0u != (counterMask & CY_SYS_WDT_COUNTER0_MASK))
 1284              		.loc 1 1239 0
 1285 0018 7B68     		ldr	r3, [r7, #4]
 1286 001a 0122     		movs	r2, #1
 1287 001c 1340     		ands	r3, r2
 1288 001e 05D0     		beq	.L86
1240:Generated_Source\PSoC4/CyLib.c ****         {
1241:Generated_Source\PSoC4/CyLib.c ****             while (0u == CySysWdtReadEnabledStatus(CY_SYS_WDT_COUNTER0))
 1289              		.loc 1 1241 0
 1290 0020 C046     		nop
 1291              	.L87:
 1292              		.loc 1 1241 0 is_stmt 0 discriminator 1
 1293 0022 0020     		movs	r0, #0
 1294 0024 FFF7FEFF 		bl	CySysWdtReadEnabledStatus
 1295 0028 031E     		subs	r3, r0, #0
 1296 002a FAD0     		beq	.L87
 1297              	.L86:
1242:Generated_Source\PSoC4/CyLib.c ****             {
1243:Generated_Source\PSoC4/CyLib.c ****                 /* Wait for the changes to come into effect */
1244:Generated_Source\PSoC4/CyLib.c ****             }
1245:Generated_Source\PSoC4/CyLib.c ****         }
1246:Generated_Source\PSoC4/CyLib.c **** 
1247:Generated_Source\PSoC4/CyLib.c ****         if(0u != (counterMask & CY_SYS_WDT_COUNTER1_MASK))
 1298              		.loc 1 1247 0 is_stmt 1
 1299 002c 7A68     		ldr	r2, [r7, #4]
 1300 002e 8023     		movs	r3, #128
 1301 0030 5B00     		lsls	r3, r3, #1
 1302 0032 1340     		ands	r3, r2
 1303 0034 05D0     		beq	.L88
1248:Generated_Source\PSoC4/CyLib.c ****         {
1249:Generated_Source\PSoC4/CyLib.c ****             while (0u == CySysWdtReadEnabledStatus(CY_SYS_WDT_COUNTER1))
 1304              		.loc 1 1249 0
 1305 0036 C046     		nop
ARM GAS  C:\Users\jdrd3\AppData\Local\Temp\ccRHZt6s.s 			page 46


 1306              	.L89:
 1307              		.loc 1 1249 0 is_stmt 0 discriminator 1
 1308 0038 0120     		movs	r0, #1
 1309 003a FFF7FEFF 		bl	CySysWdtReadEnabledStatus
 1310 003e 031E     		subs	r3, r0, #0
 1311 0040 FAD0     		beq	.L89
 1312              	.L88:
1250:Generated_Source\PSoC4/CyLib.c ****             {
1251:Generated_Source\PSoC4/CyLib.c ****                 /* Wait for the changes to come into effect */
1252:Generated_Source\PSoC4/CyLib.c ****             }
1253:Generated_Source\PSoC4/CyLib.c ****         }
1254:Generated_Source\PSoC4/CyLib.c **** 
1255:Generated_Source\PSoC4/CyLib.c ****         if(0u != (counterMask & CY_SYS_WDT_COUNTER2_MASK))
 1313              		.loc 1 1255 0 is_stmt 1
 1314 0042 7A68     		ldr	r2, [r7, #4]
 1315 0044 8023     		movs	r3, #128
 1316 0046 5B02     		lsls	r3, r3, #9
 1317 0048 1340     		ands	r3, r2
 1318 004a 05D0     		beq	.L92
1256:Generated_Source\PSoC4/CyLib.c ****         {
1257:Generated_Source\PSoC4/CyLib.c ****             while (0u == CySysWdtReadEnabledStatus(CY_SYS_WDT_COUNTER2))
 1319              		.loc 1 1257 0
 1320 004c C046     		nop
 1321              	.L91:
 1322              		.loc 1 1257 0 is_stmt 0 discriminator 1
 1323 004e 0220     		movs	r0, #2
 1324 0050 FFF7FEFF 		bl	CySysWdtReadEnabledStatus
 1325 0054 031E     		subs	r3, r0, #0
 1326 0056 FAD0     		beq	.L91
 1327              	.L92:
1258:Generated_Source\PSoC4/CyLib.c ****             {
1259:Generated_Source\PSoC4/CyLib.c ****                 /* Wait for the changes to come into effect */
1260:Generated_Source\PSoC4/CyLib.c ****             }
1261:Generated_Source\PSoC4/CyLib.c ****         }
1262:Generated_Source\PSoC4/CyLib.c ****     }
 1328              		.loc 1 1262 0 is_stmt 1
 1329 0058 C046     		nop
 1330 005a BD46     		mov	sp, r7
 1331 005c 02B0     		add	sp, sp, #8
 1332              		@ sp needed
 1333 005e 80BD     		pop	{r7, pc}
 1334              	.L94:
 1335              		.align	2
 1336              	.L93:
 1337 0060 10020B40 		.word	1074463248
 1338              		.cfi_endproc
 1339              	.LFE16:
 1340              		.size	CySysWdtEnable, .-CySysWdtEnable
 1341              		.section	.text.CySysWdtDisable,"ax",%progbits
 1342              		.align	2
 1343              		.global	CySysWdtDisable
 1344              		.code	16
 1345              		.thumb_func
 1346              		.type	CySysWdtDisable, %function
 1347              	CySysWdtDisable:
 1348              	.LFB17:
1263:Generated_Source\PSoC4/CyLib.c **** 
ARM GAS  C:\Users\jdrd3\AppData\Local\Temp\ccRHZt6s.s 			page 47


1264:Generated_Source\PSoC4/CyLib.c **** 
1265:Generated_Source\PSoC4/CyLib.c ****     /*******************************************************************************
1266:Generated_Source\PSoC4/CyLib.c ****     * Function Name: CySysWdtDisable
1267:Generated_Source\PSoC4/CyLib.c ****     ********************************************************************************
1268:Generated_Source\PSoC4/CyLib.c ****     *
1269:Generated_Source\PSoC4/CyLib.c ****     * Summary:
1270:Generated_Source\PSoC4/CyLib.c ****     *  Disables the specified WDT counters. All the counters specified in the mask
1271:Generated_Source\PSoC4/CyLib.c ****     *  are disabled. The function waits for the changes to come into effect.
1272:Generated_Source\PSoC4/CyLib.c ****     *
1273:Generated_Source\PSoC4/CyLib.c ****     * Parameters:
1274:Generated_Source\PSoC4/CyLib.c ****     *  uint32 counterMask: Mask of all counters to disable
1275:Generated_Source\PSoC4/CyLib.c ****     *    Define                       Counter
1276:Generated_Source\PSoC4/CyLib.c ****     *   CY_SYS_WDT_COUNTER0_MASK      0
1277:Generated_Source\PSoC4/CyLib.c ****     *   CY_SYS_WDT_COUNTER1_MASK      1
1278:Generated_Source\PSoC4/CyLib.c ****     *   CY_SYS_WDT_COUNTER2_MASK      2
1279:Generated_Source\PSoC4/CyLib.c ****     *
1280:Generated_Source\PSoC4/CyLib.c ****     * Return:
1281:Generated_Source\PSoC4/CyLib.c ****     *   None
1282:Generated_Source\PSoC4/CyLib.c ****     *
1283:Generated_Source\PSoC4/CyLib.c ****     *******************************************************************************/
1284:Generated_Source\PSoC4/CyLib.c ****     void CySysWdtDisable(uint32 counterMask)
1285:Generated_Source\PSoC4/CyLib.c ****     {
 1349              		.loc 1 1285 0
 1350              		.cfi_startproc
 1351              		@ args = 0, pretend = 0, frame = 8
 1352              		@ frame_needed = 1, uses_anonymous_args = 0
 1353 0000 80B5     		push	{r7, lr}
 1354              		.cfi_def_cfa_offset 8
 1355              		.cfi_offset 7, -8
 1356              		.cfi_offset 14, -4
 1357 0002 82B0     		sub	sp, sp, #8
 1358              		.cfi_def_cfa_offset 16
 1359 0004 00AF     		add	r7, sp, #0
 1360              		.cfi_def_cfa_register 7
 1361 0006 7860     		str	r0, [r7, #4]
1286:Generated_Source\PSoC4/CyLib.c ****         CY_SYS_WDT_CONTROL_REG &= ~counterMask;
 1362              		.loc 1 1286 0
 1363 0008 154B     		ldr	r3, .L103
 1364 000a 154A     		ldr	r2, .L103
 1365 000c 1268     		ldr	r2, [r2]
 1366 000e 7968     		ldr	r1, [r7, #4]
 1367 0010 C943     		mvns	r1, r1
 1368 0012 0A40     		ands	r2, r1
 1369 0014 1A60     		str	r2, [r3]
1287:Generated_Source\PSoC4/CyLib.c **** 
1288:Generated_Source\PSoC4/CyLib.c ****         if(0u != (counterMask & CY_SYS_WDT_COUNTER0_MASK))
 1370              		.loc 1 1288 0
 1371 0016 7B68     		ldr	r3, [r7, #4]
 1372 0018 0122     		movs	r2, #1
 1373 001a 1340     		ands	r3, r2
 1374 001c 05D0     		beq	.L96
1289:Generated_Source\PSoC4/CyLib.c ****         {
1290:Generated_Source\PSoC4/CyLib.c ****             while (0u != CySysWdtReadEnabledStatus(CY_SYS_WDT_COUNTER0))
 1375              		.loc 1 1290 0
 1376 001e C046     		nop
 1377              	.L97:
 1378              		.loc 1 1290 0 is_stmt 0 discriminator 1
ARM GAS  C:\Users\jdrd3\AppData\Local\Temp\ccRHZt6s.s 			page 48


 1379 0020 0020     		movs	r0, #0
 1380 0022 FFF7FEFF 		bl	CySysWdtReadEnabledStatus
 1381 0026 031E     		subs	r3, r0, #0
 1382 0028 FAD1     		bne	.L97
 1383              	.L96:
1291:Generated_Source\PSoC4/CyLib.c ****             {
1292:Generated_Source\PSoC4/CyLib.c ****                 /* Wait for the changes to come into effect */
1293:Generated_Source\PSoC4/CyLib.c ****             }
1294:Generated_Source\PSoC4/CyLib.c ****         }
1295:Generated_Source\PSoC4/CyLib.c **** 
1296:Generated_Source\PSoC4/CyLib.c ****         if(0u != (counterMask & CY_SYS_WDT_COUNTER1_MASK))
 1384              		.loc 1 1296 0 is_stmt 1
 1385 002a 7A68     		ldr	r2, [r7, #4]
 1386 002c 8023     		movs	r3, #128
 1387 002e 5B00     		lsls	r3, r3, #1
 1388 0030 1340     		ands	r3, r2
 1389 0032 05D0     		beq	.L98
1297:Generated_Source\PSoC4/CyLib.c ****         {
1298:Generated_Source\PSoC4/CyLib.c ****             while (0u != CySysWdtReadEnabledStatus(CY_SYS_WDT_COUNTER1))
 1390              		.loc 1 1298 0
 1391 0034 C046     		nop
 1392              	.L99:
 1393              		.loc 1 1298 0 is_stmt 0 discriminator 1
 1394 0036 0120     		movs	r0, #1
 1395 0038 FFF7FEFF 		bl	CySysWdtReadEnabledStatus
 1396 003c 031E     		subs	r3, r0, #0
 1397 003e FAD1     		bne	.L99
 1398              	.L98:
1299:Generated_Source\PSoC4/CyLib.c ****             {
1300:Generated_Source\PSoC4/CyLib.c ****                 /* Wait for the changes to come into effect */
1301:Generated_Source\PSoC4/CyLib.c ****             }
1302:Generated_Source\PSoC4/CyLib.c ****         }
1303:Generated_Source\PSoC4/CyLib.c **** 
1304:Generated_Source\PSoC4/CyLib.c ****         if(0u != (counterMask & CY_SYS_WDT_COUNTER2_MASK))
 1399              		.loc 1 1304 0 is_stmt 1
 1400 0040 7A68     		ldr	r2, [r7, #4]
 1401 0042 8023     		movs	r3, #128
 1402 0044 5B02     		lsls	r3, r3, #9
 1403 0046 1340     		ands	r3, r2
 1404 0048 05D0     		beq	.L102
1305:Generated_Source\PSoC4/CyLib.c ****         {
1306:Generated_Source\PSoC4/CyLib.c ****             while (0u != CySysWdtReadEnabledStatus(CY_SYS_WDT_COUNTER2))
 1405              		.loc 1 1306 0
 1406 004a C046     		nop
 1407              	.L101:
 1408              		.loc 1 1306 0 is_stmt 0 discriminator 1
 1409 004c 0220     		movs	r0, #2
 1410 004e FFF7FEFF 		bl	CySysWdtReadEnabledStatus
 1411 0052 031E     		subs	r3, r0, #0
 1412 0054 FAD1     		bne	.L101
 1413              	.L102:
1307:Generated_Source\PSoC4/CyLib.c ****             {
1308:Generated_Source\PSoC4/CyLib.c ****                 /* Wait for the changes to come into effect */
1309:Generated_Source\PSoC4/CyLib.c ****             }
1310:Generated_Source\PSoC4/CyLib.c ****         }
1311:Generated_Source\PSoC4/CyLib.c ****     }
 1414              		.loc 1 1311 0 is_stmt 1
ARM GAS  C:\Users\jdrd3\AppData\Local\Temp\ccRHZt6s.s 			page 49


 1415 0056 C046     		nop
 1416 0058 BD46     		mov	sp, r7
 1417 005a 02B0     		add	sp, sp, #8
 1418              		@ sp needed
 1419 005c 80BD     		pop	{r7, pc}
 1420              	.L104:
 1421 005e C046     		.align	2
 1422              	.L103:
 1423 0060 10020B40 		.word	1074463248
 1424              		.cfi_endproc
 1425              	.LFE17:
 1426              		.size	CySysWdtDisable, .-CySysWdtDisable
 1427              		.section	.text.CySysWdtWriteCascade,"ax",%progbits
 1428              		.align	2
 1429              		.global	CySysWdtWriteCascade
 1430              		.code	16
 1431              		.thumb_func
 1432              		.type	CySysWdtWriteCascade, %function
 1433              	CySysWdtWriteCascade:
 1434              	.LFB18:
1312:Generated_Source\PSoC4/CyLib.c **** 
1313:Generated_Source\PSoC4/CyLib.c **** 
1314:Generated_Source\PSoC4/CyLib.c ****     /*******************************************************************************
1315:Generated_Source\PSoC4/CyLib.c ****     * Function Name: CySysWdtWriteCascade
1316:Generated_Source\PSoC4/CyLib.c ****     ********************************************************************************
1317:Generated_Source\PSoC4/CyLib.c ****     *
1318:Generated_Source\PSoC4/CyLib.c ****     * Summary:
1319:Generated_Source\PSoC4/CyLib.c ****     *   Writes the two WDT cascade values based on the combination of mask values
1320:Generated_Source\PSoC4/CyLib.c ****     *   specified.
1321:Generated_Source\PSoC4/CyLib.c ****     *
1322:Generated_Source\PSoC4/CyLib.c ****     * Parameters:
1323:Generated_Source\PSoC4/CyLib.c ****     *   cascadeMask: Mask value used to set or clear the cascade values.
1324:Generated_Source\PSoC4/CyLib.c ****     *   Define                     Cascade
1325:Generated_Source\PSoC4/CyLib.c ****     *   CY_SYS_WDT_CASCADE_NONE    Neither
1326:Generated_Source\PSoC4/CyLib.c ****     *   CY_SYS_WDT_CASCADE_01      Cascade 01
1327:Generated_Source\PSoC4/CyLib.c ****     *   CY_SYS_WDT_CASCADE_12      Cascade 12
1328:Generated_Source\PSoC4/CyLib.c ****     *
1329:Generated_Source\PSoC4/CyLib.c ****     *   To set both cascade modes, two defines should be ORed:
1330:Generated_Source\PSoC4/CyLib.c ****     *   (CY_SYS_WDT_CASCADE_01 | CY_SYS_WDT_CASCADE_12)
1331:Generated_Source\PSoC4/CyLib.c ****     *
1332:Generated_Source\PSoC4/CyLib.c ****     * Return:
1333:Generated_Source\PSoC4/CyLib.c ****     *   None
1334:Generated_Source\PSoC4/CyLib.c ****     *
1335:Generated_Source\PSoC4/CyLib.c ****     * Side effects:
1336:Generated_Source\PSoC4/CyLib.c ****     *   If only one cascade mask is specified, the second cascade is disabled.
1337:Generated_Source\PSoC4/CyLib.c ****     *   To set both cascade modes two defines should be ORed:
1338:Generated_Source\PSoC4/CyLib.c ****     *    (CY_SYS_WDT_CASCADE_01 | CY_SYS_WDT_CASCADE_12).
1339:Generated_Source\PSoC4/CyLib.c ****     *
1340:Generated_Source\PSoC4/CyLib.c ****     *   WDT counters that are part of the specified cascade, should be disabled.
1341:Generated_Source\PSoC4/CyLib.c ****     *   Otherwise this function call will have no effect. If the specified
1342:Generated_Source\PSoC4/CyLib.c ****     *   counter is enabled, call CySysWdtDisable() function with the corresponding
1343:Generated_Source\PSoC4/CyLib.c ****     *   parameter to disable specified counter and wait for it to stop. This may
1344:Generated_Source\PSoC4/CyLib.c ****     *   take up to 3 LFCLK cycles.
1345:Generated_Source\PSoC4/CyLib.c ****     *
1346:Generated_Source\PSoC4/CyLib.c ****     *******************************************************************************/
1347:Generated_Source\PSoC4/CyLib.c ****     void CySysWdtWriteCascade(uint32 cascadeMask)
1348:Generated_Source\PSoC4/CyLib.c ****     {
ARM GAS  C:\Users\jdrd3\AppData\Local\Temp\ccRHZt6s.s 			page 50


 1435              		.loc 1 1348 0
 1436              		.cfi_startproc
 1437              		@ args = 0, pretend = 0, frame = 16
 1438              		@ frame_needed = 1, uses_anonymous_args = 0
 1439 0000 90B5     		push	{r4, r7, lr}
 1440              		.cfi_def_cfa_offset 12
 1441              		.cfi_offset 4, -12
 1442              		.cfi_offset 7, -8
 1443              		.cfi_offset 14, -4
 1444 0002 85B0     		sub	sp, sp, #20
 1445              		.cfi_def_cfa_offset 32
 1446 0004 00AF     		add	r7, sp, #0
 1447              		.cfi_def_cfa_register 7
 1448 0006 7860     		str	r0, [r7, #4]
1349:Generated_Source\PSoC4/CyLib.c ****         uint32 configRegValue;
1350:Generated_Source\PSoC4/CyLib.c ****         uint32 countersEnableStatus;
1351:Generated_Source\PSoC4/CyLib.c **** 
1352:Generated_Source\PSoC4/CyLib.c ****         countersEnableStatus = CySysWdtReadEnabledStatus(CY_SYS_WDT_COUNTER0) |
 1449              		.loc 1 1352 0
 1450 0008 0020     		movs	r0, #0
 1451 000a FFF7FEFF 		bl	CySysWdtReadEnabledStatus
 1452 000e 0400     		movs	r4, r0
1353:Generated_Source\PSoC4/CyLib.c ****                             CySysWdtReadEnabledStatus(CY_SYS_WDT_COUNTER1) |
 1453              		.loc 1 1353 0
 1454 0010 0120     		movs	r0, #1
 1455 0012 FFF7FEFF 		bl	CySysWdtReadEnabledStatus
 1456 0016 0300     		movs	r3, r0
1352:Generated_Source\PSoC4/CyLib.c ****                             CySysWdtReadEnabledStatus(CY_SYS_WDT_COUNTER1) |
 1457              		.loc 1 1352 0
 1458 0018 1C43     		orrs	r4, r3
1354:Generated_Source\PSoC4/CyLib.c ****                             CySysWdtReadEnabledStatus(CY_SYS_WDT_COUNTER2);
 1459              		.loc 1 1354 0
 1460 001a 0220     		movs	r0, #2
 1461 001c FFF7FEFF 		bl	CySysWdtReadEnabledStatus
 1462 0020 0300     		movs	r3, r0
1352:Generated_Source\PSoC4/CyLib.c ****                             CySysWdtReadEnabledStatus(CY_SYS_WDT_COUNTER1) |
 1463              		.loc 1 1352 0
 1464 0022 2343     		orrs	r3, r4
 1465 0024 FB60     		str	r3, [r7, #12]
1355:Generated_Source\PSoC4/CyLib.c **** 
1356:Generated_Source\PSoC4/CyLib.c ****         if (0u == countersEnableStatus)
 1466              		.loc 1 1356 0
 1467 0026 FB68     		ldr	r3, [r7, #12]
 1468 0028 002B     		cmp	r3, #0
 1469 002a 0DD1     		bne	.L107
1357:Generated_Source\PSoC4/CyLib.c ****         {
1358:Generated_Source\PSoC4/CyLib.c ****             configRegValue = CY_SYS_WDT_CONFIG_REG;
 1470              		.loc 1 1358 0
 1471 002c 084B     		ldr	r3, .L108
 1472 002e 1B68     		ldr	r3, [r3]
 1473 0030 BB60     		str	r3, [r7, #8]
1359:Generated_Source\PSoC4/CyLib.c ****             configRegValue &= ((uint32)(~(CY_SYS_WDT_CASCADE_01|CY_SYS_WDT_CASCADE_12)));
 1474              		.loc 1 1359 0
 1475 0032 BB68     		ldr	r3, [r7, #8]
 1476 0034 074A     		ldr	r2, .L108+4
 1477 0036 1340     		ands	r3, r2
 1478 0038 BB60     		str	r3, [r7, #8]
ARM GAS  C:\Users\jdrd3\AppData\Local\Temp\ccRHZt6s.s 			page 51


1360:Generated_Source\PSoC4/CyLib.c ****             configRegValue |= cascadeMask;
 1479              		.loc 1 1360 0
 1480 003a BA68     		ldr	r2, [r7, #8]
 1481 003c 7B68     		ldr	r3, [r7, #4]
 1482 003e 1343     		orrs	r3, r2
 1483 0040 BB60     		str	r3, [r7, #8]
1361:Generated_Source\PSoC4/CyLib.c ****             CY_SYS_WDT_CONFIG_REG = configRegValue;
 1484              		.loc 1 1361 0
 1485 0042 034B     		ldr	r3, .L108
 1486 0044 BA68     		ldr	r2, [r7, #8]
 1487 0046 1A60     		str	r2, [r3]
 1488              	.L107:
1362:Generated_Source\PSoC4/CyLib.c ****         }
1363:Generated_Source\PSoC4/CyLib.c ****     }
 1489              		.loc 1 1363 0
 1490 0048 C046     		nop
 1491 004a BD46     		mov	sp, r7
 1492 004c 05B0     		add	sp, sp, #20
 1493              		@ sp needed
 1494 004e 90BD     		pop	{r4, r7, pc}
 1495              	.L109:
 1496              		.align	2
 1497              	.L108:
 1498 0050 0C020B40 		.word	1074463244
 1499 0054 F7F7FFFF 		.word	-2057
 1500              		.cfi_endproc
 1501              	.LFE18:
 1502              		.size	CySysWdtWriteCascade, .-CySysWdtWriteCascade
 1503              		.section	.text.CySysWdtReadCascade,"ax",%progbits
 1504              		.align	2
 1505              		.global	CySysWdtReadCascade
 1506              		.code	16
 1507              		.thumb_func
 1508              		.type	CySysWdtReadCascade, %function
 1509              	CySysWdtReadCascade:
 1510              	.LFB19:
1364:Generated_Source\PSoC4/CyLib.c **** 
1365:Generated_Source\PSoC4/CyLib.c **** 
1366:Generated_Source\PSoC4/CyLib.c ****     /*******************************************************************************
1367:Generated_Source\PSoC4/CyLib.c ****     * Function Name: CySysWdtReadCascade
1368:Generated_Source\PSoC4/CyLib.c ****     ********************************************************************************
1369:Generated_Source\PSoC4/CyLib.c ****     *
1370:Generated_Source\PSoC4/CyLib.c ****     * Summary:
1371:Generated_Source\PSoC4/CyLib.c ****     *   Reads the two WDT cascade values returning a mask of the bits set.
1372:Generated_Source\PSoC4/CyLib.c ****     *
1373:Generated_Source\PSoC4/CyLib.c ****     * Parameters:
1374:Generated_Source\PSoC4/CyLib.c ****     *   None
1375:Generated_Source\PSoC4/CyLib.c ****     *
1376:Generated_Source\PSoC4/CyLib.c ****     * Return:
1377:Generated_Source\PSoC4/CyLib.c ****     *   Mask of cascade values set.
1378:Generated_Source\PSoC4/CyLib.c ****     *   Define                     Cascade
1379:Generated_Source\PSoC4/CyLib.c ****     *   CY_SYS_WDT_CASCADE_NONE    Neither
1380:Generated_Source\PSoC4/CyLib.c ****     *   CY_SYS_WDT_CASCADE_01      Cascade 01
1381:Generated_Source\PSoC4/CyLib.c ****     *   CY_SYS_WDT_CASCADE_12      Cascade 12
1382:Generated_Source\PSoC4/CyLib.c ****     *
1383:Generated_Source\PSoC4/CyLib.c ****     *******************************************************************************/
1384:Generated_Source\PSoC4/CyLib.c ****     uint32 CySysWdtReadCascade(void)
ARM GAS  C:\Users\jdrd3\AppData\Local\Temp\ccRHZt6s.s 			page 52


1385:Generated_Source\PSoC4/CyLib.c ****     {
 1511              		.loc 1 1385 0
 1512              		.cfi_startproc
 1513              		@ args = 0, pretend = 0, frame = 0
 1514              		@ frame_needed = 1, uses_anonymous_args = 0
 1515 0000 80B5     		push	{r7, lr}
 1516              		.cfi_def_cfa_offset 8
 1517              		.cfi_offset 7, -8
 1518              		.cfi_offset 14, -4
 1519 0002 00AF     		add	r7, sp, #0
 1520              		.cfi_def_cfa_register 7
1386:Generated_Source\PSoC4/CyLib.c ****         return (CY_SYS_WDT_CONFIG_REG & (CY_SYS_WDT_CASCADE_01 | CY_SYS_WDT_CASCADE_12));
 1521              		.loc 1 1386 0
 1522 0004 034B     		ldr	r3, .L112
 1523 0006 1B68     		ldr	r3, [r3]
 1524 0008 034A     		ldr	r2, .L112+4
 1525 000a 1340     		ands	r3, r2
1387:Generated_Source\PSoC4/CyLib.c ****     }
 1526              		.loc 1 1387 0
 1527 000c 1800     		movs	r0, r3
 1528 000e BD46     		mov	sp, r7
 1529              		@ sp needed
 1530 0010 80BD     		pop	{r7, pc}
 1531              	.L113:
 1532 0012 C046     		.align	2
 1533              	.L112:
 1534 0014 0C020B40 		.word	1074463244
 1535 0018 08080000 		.word	2056
 1536              		.cfi_endproc
 1537              	.LFE19:
 1538              		.size	CySysWdtReadCascade, .-CySysWdtReadCascade
 1539              		.section	.text.CySysWdtWriteMatch,"ax",%progbits
 1540              		.align	2
 1541              		.global	CySysWdtWriteMatch
 1542              		.code	16
 1543              		.thumb_func
 1544              		.type	CySysWdtWriteMatch, %function
 1545              	CySysWdtWriteMatch:
 1546              	.LFB20:
1388:Generated_Source\PSoC4/CyLib.c **** 
1389:Generated_Source\PSoC4/CyLib.c **** 
1390:Generated_Source\PSoC4/CyLib.c ****     /*******************************************************************************
1391:Generated_Source\PSoC4/CyLib.c ****     * Function Name: CySysWdtWriteMatch
1392:Generated_Source\PSoC4/CyLib.c ****     ********************************************************************************
1393:Generated_Source\PSoC4/CyLib.c ****     *
1394:Generated_Source\PSoC4/CyLib.c ****     * Summary:
1395:Generated_Source\PSoC4/CyLib.c ****     *  Configures the WDT counter match comparison value.
1396:Generated_Source\PSoC4/CyLib.c ****     *
1397:Generated_Source\PSoC4/CyLib.c ****     * Parameters:
1398:Generated_Source\PSoC4/CyLib.c ****     *  counterNum:
1399:Generated_Source\PSoC4/CyLib.c ****     *   Valid range [0-1]. Number of the WDT counter. Match values are not
1400:Generated_Source\PSoC4/CyLib.c ****     *   supported by counter 2.
1401:Generated_Source\PSoC4/CyLib.c ****     *
1402:Generated_Source\PSoC4/CyLib.c ****     *  match:
1403:Generated_Source\PSoC4/CyLib.c ****     *   Valid range [0-65535]. Value to be used to match against the counter.
1404:Generated_Source\PSoC4/CyLib.c ****     *
1405:Generated_Source\PSoC4/CyLib.c ****     * Return:
ARM GAS  C:\Users\jdrd3\AppData\Local\Temp\ccRHZt6s.s 			page 53


1406:Generated_Source\PSoC4/CyLib.c ****     *   None
1407:Generated_Source\PSoC4/CyLib.c ****     *
1408:Generated_Source\PSoC4/CyLib.c ****     *******************************************************************************/
1409:Generated_Source\PSoC4/CyLib.c ****     void CySysWdtWriteMatch(uint32 counterNum, uint32 match)
1410:Generated_Source\PSoC4/CyLib.c ****     {
 1547              		.loc 1 1410 0
 1548              		.cfi_startproc
 1549              		@ args = 0, pretend = 0, frame = 16
 1550              		@ frame_needed = 1, uses_anonymous_args = 0
 1551 0000 80B5     		push	{r7, lr}
 1552              		.cfi_def_cfa_offset 8
 1553              		.cfi_offset 7, -8
 1554              		.cfi_offset 14, -4
 1555 0002 84B0     		sub	sp, sp, #16
 1556              		.cfi_def_cfa_offset 24
 1557 0004 00AF     		add	r7, sp, #0
 1558              		.cfi_def_cfa_register 7
 1559 0006 7860     		str	r0, [r7, #4]
 1560 0008 3960     		str	r1, [r7]
1411:Generated_Source\PSoC4/CyLib.c ****         uint32 regValue;
1412:Generated_Source\PSoC4/CyLib.c **** 
1413:Generated_Source\PSoC4/CyLib.c ****         CYASSERT((counterNum == CY_SYS_WDT_COUNTER0) ||
 1561              		.loc 1 1413 0
 1562 000a 7B68     		ldr	r3, [r7, #4]
 1563 000c 002B     		cmp	r3, #0
 1564 000e 02D0     		beq	.L115
 1565              		.loc 1 1413 0 is_stmt 0 discriminator 2
 1566 0010 7B68     		ldr	r3, [r7, #4]
 1567 0012 012B     		cmp	r3, #1
 1568 0014 01D1     		bne	.L116
 1569              	.L115:
 1570              		.loc 1 1413 0 discriminator 3
 1571 0016 0123     		movs	r3, #1
 1572 0018 00E0     		b	.L117
 1573              	.L116:
 1574              		.loc 1 1413 0 discriminator 4
 1575 001a 0023     		movs	r3, #0
 1576              	.L117:
 1577              		.loc 1 1413 0 discriminator 6
 1578 001c 002B     		cmp	r3, #0
 1579 001e 02D1     		bne	.L118
 1580              		.loc 1 1413 0 discriminator 7
 1581 0020 0020     		movs	r0, #0
 1582 0022 FFF7FEFF 		bl	CyHalt
 1583              	.L118:
1414:Generated_Source\PSoC4/CyLib.c ****                  (counterNum == CY_SYS_WDT_COUNTER1));
1415:Generated_Source\PSoC4/CyLib.c **** 
1416:Generated_Source\PSoC4/CyLib.c ****         /* Wait for the previous changes to come into effect */
1417:Generated_Source\PSoC4/CyLib.c ****         CyDelayUs(CY_SYS_WDT_3LFCLK_DELAY_US);
 1584              		.loc 1 1417 0 is_stmt 1
 1585 0026 C920     		movs	r0, #201
 1586 0028 FFF7FEFF 		bl	CyDelayUs
1418:Generated_Source\PSoC4/CyLib.c **** 
1419:Generated_Source\PSoC4/CyLib.c ****         regValue = CY_SYS_WDT_MATCH_REG;
 1587              		.loc 1 1419 0
 1588 002c 0D4B     		ldr	r3, .L119
 1589 002e 1B68     		ldr	r3, [r3]
ARM GAS  C:\Users\jdrd3\AppData\Local\Temp\ccRHZt6s.s 			page 54


 1590 0030 FB60     		str	r3, [r7, #12]
1420:Generated_Source\PSoC4/CyLib.c ****         regValue &= (uint32)~((uint32)(CY_SYS_WDT_LOWER_16BITS_MASK << (counterNum * CY_SYS_WDT_CNT
 1591              		.loc 1 1420 0
 1592 0032 7B68     		ldr	r3, [r7, #4]
 1593 0034 1B01     		lsls	r3, r3, #4
 1594 0036 0C4A     		ldr	r2, .L119+4
 1595 0038 9A40     		lsls	r2, r2, r3
 1596 003a 1300     		movs	r3, r2
 1597 003c DA43     		mvns	r2, r3
 1598 003e FB68     		ldr	r3, [r7, #12]
 1599 0040 1340     		ands	r3, r2
 1600 0042 FB60     		str	r3, [r7, #12]
1421:Generated_Source\PSoC4/CyLib.c ****         CY_SYS_WDT_MATCH_REG = (regValue | (match << (counterNum * CY_SYS_WDT_CNT_MATCH_SHIFT)));
 1601              		.loc 1 1421 0
 1602 0044 074B     		ldr	r3, .L119
 1603 0046 7A68     		ldr	r2, [r7, #4]
 1604 0048 1201     		lsls	r2, r2, #4
 1605 004a 3968     		ldr	r1, [r7]
 1606 004c 9140     		lsls	r1, r1, r2
 1607 004e FA68     		ldr	r2, [r7, #12]
 1608 0050 0A43     		orrs	r2, r1
 1609 0052 1A60     		str	r2, [r3]
1422:Generated_Source\PSoC4/CyLib.c **** 
1423:Generated_Source\PSoC4/CyLib.c ****         /* Make sure the match synchronization started */
1424:Generated_Source\PSoC4/CyLib.c ****         CyDelayUs(CY_SYS_WDT_1LFCLK_DELAY_US);
 1610              		.loc 1 1424 0
 1611 0054 4320     		movs	r0, #67
 1612 0056 FFF7FEFF 		bl	CyDelayUs
1425:Generated_Source\PSoC4/CyLib.c ****     }
 1613              		.loc 1 1425 0
 1614 005a C046     		nop
 1615 005c BD46     		mov	sp, r7
 1616 005e 04B0     		add	sp, sp, #16
 1617              		@ sp needed
 1618 0060 80BD     		pop	{r7, pc}
 1619              	.L120:
 1620 0062 C046     		.align	2
 1621              	.L119:
 1622 0064 08020B40 		.word	1074463240
 1623 0068 FFFF0000 		.word	65535
 1624              		.cfi_endproc
 1625              	.LFE20:
 1626              		.size	CySysWdtWriteMatch, .-CySysWdtWriteMatch
 1627              		.section	.text.CySysWdtWriteToggleBit,"ax",%progbits
 1628              		.align	2
 1629              		.global	CySysWdtWriteToggleBit
 1630              		.code	16
 1631              		.thumb_func
 1632              		.type	CySysWdtWriteToggleBit, %function
 1633              	CySysWdtWriteToggleBit:
 1634              	.LFB21:
1426:Generated_Source\PSoC4/CyLib.c **** 
1427:Generated_Source\PSoC4/CyLib.c **** 
1428:Generated_Source\PSoC4/CyLib.c ****     /*******************************************************************************
1429:Generated_Source\PSoC4/CyLib.c ****     * Function Name: CySysWdtWriteToggleBit
1430:Generated_Source\PSoC4/CyLib.c ****     ********************************************************************************
1431:Generated_Source\PSoC4/CyLib.c ****     *
ARM GAS  C:\Users\jdrd3\AppData\Local\Temp\ccRHZt6s.s 			page 55


1432:Generated_Source\PSoC4/CyLib.c ****     * Summary:
1433:Generated_Source\PSoC4/CyLib.c ****     *  Configures which bit in the WDT counter 2 to monitor for a toggle. When that
1434:Generated_Source\PSoC4/CyLib.c ****     *  bit toggles, an interrupt is generated if the mode for counter 2 has
1435:Generated_Source\PSoC4/CyLib.c ****     *  interrupts enabled.
1436:Generated_Source\PSoC4/CyLib.c ****     *
1437:Generated_Source\PSoC4/CyLib.c ****     * Parameters:
1438:Generated_Source\PSoC4/CyLib.c ****     *  bit:
1439:Generated_Source\PSoC4/CyLib.c ****     *   Valid range [0-31].  Counter 2 bit to monitor for a toggle.
1440:Generated_Source\PSoC4/CyLib.c ****     *
1441:Generated_Source\PSoC4/CyLib.c ****     * Return:
1442:Generated_Source\PSoC4/CyLib.c ****     *   None
1443:Generated_Source\PSoC4/CyLib.c ****     *
1444:Generated_Source\PSoC4/CyLib.c ****     * Side effects:
1445:Generated_Source\PSoC4/CyLib.c ****     *   WDT Counter 2 should be disabled. Otherwise this function call will have no
1446:Generated_Source\PSoC4/CyLib.c ****     *   effect.
1447:Generated_Source\PSoC4/CyLib.c ****     *
1448:Generated_Source\PSoC4/CyLib.c ****     *   If the specified counter is enabled, call CySysWdtDisable() function with
1449:Generated_Source\PSoC4/CyLib.c ****     *   the corresponding parameter to disable specified counter and wait for it to
1450:Generated_Source\PSoC4/CyLib.c ****     *   stop. This may take up to 3 LFCLK cycles.
1451:Generated_Source\PSoC4/CyLib.c ****     *
1452:Generated_Source\PSoC4/CyLib.c ****     *******************************************************************************/
1453:Generated_Source\PSoC4/CyLib.c ****     void CySysWdtWriteToggleBit(uint32 bits)
1454:Generated_Source\PSoC4/CyLib.c ****     {
 1635              		.loc 1 1454 0
 1636              		.cfi_startproc
 1637              		@ args = 0, pretend = 0, frame = 16
 1638              		@ frame_needed = 1, uses_anonymous_args = 0
 1639 0000 80B5     		push	{r7, lr}
 1640              		.cfi_def_cfa_offset 8
 1641              		.cfi_offset 7, -8
 1642              		.cfi_offset 14, -4
 1643 0002 84B0     		sub	sp, sp, #16
 1644              		.cfi_def_cfa_offset 24
 1645 0004 00AF     		add	r7, sp, #0
 1646              		.cfi_def_cfa_register 7
 1647 0006 7860     		str	r0, [r7, #4]
1455:Generated_Source\PSoC4/CyLib.c ****         uint32 configRegValue;
1456:Generated_Source\PSoC4/CyLib.c **** 
1457:Generated_Source\PSoC4/CyLib.c ****         if (0u == CySysWdtReadEnabledStatus(CY_SYS_WDT_COUNTER2))
 1648              		.loc 1 1457 0
 1649 0008 0220     		movs	r0, #2
 1650 000a FFF7FEFF 		bl	CySysWdtReadEnabledStatus
 1651 000e 031E     		subs	r3, r0, #0
 1652 0010 11D1     		bne	.L123
1458:Generated_Source\PSoC4/CyLib.c ****         {
1459:Generated_Source\PSoC4/CyLib.c ****             configRegValue = CY_SYS_WDT_CONFIG_REG;
 1653              		.loc 1 1459 0
 1654 0012 0B4B     		ldr	r3, .L124
 1655 0014 1B68     		ldr	r3, [r3]
 1656 0016 FB60     		str	r3, [r7, #12]
1460:Generated_Source\PSoC4/CyLib.c ****             configRegValue &= (uint32)(~((uint32)(CY_SYS_WDT_CONFIG_BITS2_MASK << CY_SYS_WDT_CONFIG
 1657              		.loc 1 1460 0
 1658 0018 FB68     		ldr	r3, [r7, #12]
 1659 001a 0A4A     		ldr	r2, .L124+4
 1660 001c 1340     		ands	r3, r2
 1661 001e FB60     		str	r3, [r7, #12]
1461:Generated_Source\PSoC4/CyLib.c ****             configRegValue |= ((bits & CY_SYS_WDT_CONFIG_BITS2_MASK) << CY_SYS_WDT_CONFIG_BITS2_POS
ARM GAS  C:\Users\jdrd3\AppData\Local\Temp\ccRHZt6s.s 			page 56


 1662              		.loc 1 1461 0
 1663 0020 7B68     		ldr	r3, [r7, #4]
 1664 0022 1A06     		lsls	r2, r3, #24
 1665 0024 F823     		movs	r3, #248
 1666 0026 5B05     		lsls	r3, r3, #21
 1667 0028 1340     		ands	r3, r2
 1668 002a FA68     		ldr	r2, [r7, #12]
 1669 002c 1343     		orrs	r3, r2
 1670 002e FB60     		str	r3, [r7, #12]
1462:Generated_Source\PSoC4/CyLib.c ****             CY_SYS_WDT_CONFIG_REG = configRegValue;
 1671              		.loc 1 1462 0
 1672 0030 034B     		ldr	r3, .L124
 1673 0032 FA68     		ldr	r2, [r7, #12]
 1674 0034 1A60     		str	r2, [r3]
 1675              	.L123:
1463:Generated_Source\PSoC4/CyLib.c ****         }
1464:Generated_Source\PSoC4/CyLib.c ****     }
 1676              		.loc 1 1464 0
 1677 0036 C046     		nop
 1678 0038 BD46     		mov	sp, r7
 1679 003a 04B0     		add	sp, sp, #16
 1680              		@ sp needed
 1681 003c 80BD     		pop	{r7, pc}
 1682              	.L125:
 1683 003e C046     		.align	2
 1684              	.L124:
 1685 0040 0C020B40 		.word	1074463244
 1686 0044 FFFFFFE0 		.word	-520093697
 1687              		.cfi_endproc
 1688              	.LFE21:
 1689              		.size	CySysWdtWriteToggleBit, .-CySysWdtWriteToggleBit
 1690              		.section	.text.CySysWdtReadToggleBit,"ax",%progbits
 1691              		.align	2
 1692              		.global	CySysWdtReadToggleBit
 1693              		.code	16
 1694              		.thumb_func
 1695              		.type	CySysWdtReadToggleBit, %function
 1696              	CySysWdtReadToggleBit:
 1697              	.LFB22:
1465:Generated_Source\PSoC4/CyLib.c **** 
1466:Generated_Source\PSoC4/CyLib.c **** 
1467:Generated_Source\PSoC4/CyLib.c ****     /*******************************************************************************
1468:Generated_Source\PSoC4/CyLib.c ****     * Function Name: CySysWdtReadToggleBit
1469:Generated_Source\PSoC4/CyLib.c ****     ********************************************************************************
1470:Generated_Source\PSoC4/CyLib.c ****     *
1471:Generated_Source\PSoC4/CyLib.c ****     * Summary:
1472:Generated_Source\PSoC4/CyLib.c ****     *  Reads which bit in the WDT counter 2 is monitored for a toggle.
1473:Generated_Source\PSoC4/CyLib.c ****     *
1474:Generated_Source\PSoC4/CyLib.c ****     * Parameters:
1475:Generated_Source\PSoC4/CyLib.c ****     *  None
1476:Generated_Source\PSoC4/CyLib.c ****     *
1477:Generated_Source\PSoC4/CyLib.c ****     * Return:
1478:Generated_Source\PSoC4/CyLib.c ****     *  The bit that is monitored (range of 0 to 31)
1479:Generated_Source\PSoC4/CyLib.c ****     *
1480:Generated_Source\PSoC4/CyLib.c ****     *******************************************************************************/
1481:Generated_Source\PSoC4/CyLib.c ****     uint32 CySysWdtReadToggleBit(void)
1482:Generated_Source\PSoC4/CyLib.c ****     {
ARM GAS  C:\Users\jdrd3\AppData\Local\Temp\ccRHZt6s.s 			page 57


 1698              		.loc 1 1482 0
 1699              		.cfi_startproc
 1700              		@ args = 0, pretend = 0, frame = 0
 1701              		@ frame_needed = 1, uses_anonymous_args = 0
 1702 0000 80B5     		push	{r7, lr}
 1703              		.cfi_def_cfa_offset 8
 1704              		.cfi_offset 7, -8
 1705              		.cfi_offset 14, -4
 1706 0002 00AF     		add	r7, sp, #0
 1707              		.cfi_def_cfa_register 7
1483:Generated_Source\PSoC4/CyLib.c ****         return ((CY_SYS_WDT_CONFIG_REG >> CY_SYS_WDT_CONFIG_BITS2_POS) & CY_SYS_WDT_CONFIG_BITS2_MA
 1708              		.loc 1 1483 0
 1709 0004 034B     		ldr	r3, .L128
 1710 0006 1B68     		ldr	r3, [r3]
 1711 0008 1B0E     		lsrs	r3, r3, #24
 1712 000a 1F22     		movs	r2, #31
 1713 000c 1340     		ands	r3, r2
1484:Generated_Source\PSoC4/CyLib.c ****     }
 1714              		.loc 1 1484 0
 1715 000e 1800     		movs	r0, r3
 1716 0010 BD46     		mov	sp, r7
 1717              		@ sp needed
 1718 0012 80BD     		pop	{r7, pc}
 1719              	.L129:
 1720              		.align	2
 1721              	.L128:
 1722 0014 0C020B40 		.word	1074463244
 1723              		.cfi_endproc
 1724              	.LFE22:
 1725              		.size	CySysWdtReadToggleBit, .-CySysWdtReadToggleBit
 1726              		.section	.text.CySysWdtReadMatch,"ax",%progbits
 1727              		.align	2
 1728              		.global	CySysWdtReadMatch
 1729              		.code	16
 1730              		.thumb_func
 1731              		.type	CySysWdtReadMatch, %function
 1732              	CySysWdtReadMatch:
 1733              	.LFB23:
1485:Generated_Source\PSoC4/CyLib.c **** 
1486:Generated_Source\PSoC4/CyLib.c **** 
1487:Generated_Source\PSoC4/CyLib.c ****     /*******************************************************************************
1488:Generated_Source\PSoC4/CyLib.c ****     * Function Name: CySysWdtReadMatch
1489:Generated_Source\PSoC4/CyLib.c ****     ********************************************************************************
1490:Generated_Source\PSoC4/CyLib.c ****     *
1491:Generated_Source\PSoC4/CyLib.c ****     * Summary:
1492:Generated_Source\PSoC4/CyLib.c ****     *  Reads the WDT counter match comparison value.
1493:Generated_Source\PSoC4/CyLib.c ****     *
1494:Generated_Source\PSoC4/CyLib.c ****     * Parameters:
1495:Generated_Source\PSoC4/CyLib.c ****     *  counterNum: Valid range [0-1].  Number of the WDT counter.  Match values
1496:Generated_Source\PSoC4/CyLib.c ****     *               are not supported by counter 2.
1497:Generated_Source\PSoC4/CyLib.c ****     *
1498:Generated_Source\PSoC4/CyLib.c ****     * Return:
1499:Generated_Source\PSoC4/CyLib.c ****     *  16-bit match value.
1500:Generated_Source\PSoC4/CyLib.c ****     *
1501:Generated_Source\PSoC4/CyLib.c ****     *******************************************************************************/
1502:Generated_Source\PSoC4/CyLib.c ****     uint32 CySysWdtReadMatch(uint32 counterNum)
1503:Generated_Source\PSoC4/CyLib.c ****     {
ARM GAS  C:\Users\jdrd3\AppData\Local\Temp\ccRHZt6s.s 			page 58


 1734              		.loc 1 1503 0
 1735              		.cfi_startproc
 1736              		@ args = 0, pretend = 0, frame = 8
 1737              		@ frame_needed = 1, uses_anonymous_args = 0
 1738 0000 80B5     		push	{r7, lr}
 1739              		.cfi_def_cfa_offset 8
 1740              		.cfi_offset 7, -8
 1741              		.cfi_offset 14, -4
 1742 0002 82B0     		sub	sp, sp, #8
 1743              		.cfi_def_cfa_offset 16
 1744 0004 00AF     		add	r7, sp, #0
 1745              		.cfi_def_cfa_register 7
 1746 0006 7860     		str	r0, [r7, #4]
1504:Generated_Source\PSoC4/CyLib.c ****         CYASSERT((counterNum == CY_SYS_WDT_COUNTER0) ||
 1747              		.loc 1 1504 0
 1748 0008 7B68     		ldr	r3, [r7, #4]
 1749 000a 002B     		cmp	r3, #0
 1750 000c 02D0     		beq	.L131
 1751              		.loc 1 1504 0 is_stmt 0 discriminator 2
 1752 000e 7B68     		ldr	r3, [r7, #4]
 1753 0010 012B     		cmp	r3, #1
 1754 0012 01D1     		bne	.L132
 1755              	.L131:
 1756              		.loc 1 1504 0 discriminator 3
 1757 0014 0123     		movs	r3, #1
 1758 0016 00E0     		b	.L133
 1759              	.L132:
 1760              		.loc 1 1504 0 discriminator 4
 1761 0018 0023     		movs	r3, #0
 1762              	.L133:
 1763              		.loc 1 1504 0 discriminator 6
 1764 001a 002B     		cmp	r3, #0
 1765 001c 02D1     		bne	.L134
 1766              		.loc 1 1504 0 discriminator 7
 1767 001e 0020     		movs	r0, #0
 1768 0020 FFF7FEFF 		bl	CyHalt
 1769              	.L134:
1505:Generated_Source\PSoC4/CyLib.c ****                  (counterNum == CY_SYS_WDT_COUNTER1));
1506:Generated_Source\PSoC4/CyLib.c **** 
1507:Generated_Source\PSoC4/CyLib.c ****         return ((uint32)(CY_SYS_WDT_MATCH_REG >> (counterNum * CY_SYS_WDT_CNT_MATCH_SHIFT)) & CY_SY
 1770              		.loc 1 1507 0 is_stmt 1
 1771 0024 054B     		ldr	r3, .L136
 1772 0026 1A68     		ldr	r2, [r3]
 1773 0028 7B68     		ldr	r3, [r7, #4]
 1774 002a 1B01     		lsls	r3, r3, #4
 1775 002c DA40     		lsrs	r2, r2, r3
 1776 002e 1300     		movs	r3, r2
 1777 0030 1B04     		lsls	r3, r3, #16
 1778 0032 1B0C     		lsrs	r3, r3, #16
1508:Generated_Source\PSoC4/CyLib.c ****     }
 1779              		.loc 1 1508 0
 1780 0034 1800     		movs	r0, r3
 1781 0036 BD46     		mov	sp, r7
 1782 0038 02B0     		add	sp, sp, #8
 1783              		@ sp needed
 1784 003a 80BD     		pop	{r7, pc}
 1785              	.L137:
ARM GAS  C:\Users\jdrd3\AppData\Local\Temp\ccRHZt6s.s 			page 59


 1786              		.align	2
 1787              	.L136:
 1788 003c 08020B40 		.word	1074463240
 1789              		.cfi_endproc
 1790              	.LFE23:
 1791              		.size	CySysWdtReadMatch, .-CySysWdtReadMatch
 1792              		.section	.text.CySysWdtReadCount,"ax",%progbits
 1793              		.align	2
 1794              		.global	CySysWdtReadCount
 1795              		.code	16
 1796              		.thumb_func
 1797              		.type	CySysWdtReadCount, %function
 1798              	CySysWdtReadCount:
 1799              	.LFB24:
1509:Generated_Source\PSoC4/CyLib.c **** 
1510:Generated_Source\PSoC4/CyLib.c **** 
1511:Generated_Source\PSoC4/CyLib.c ****     /*******************************************************************************
1512:Generated_Source\PSoC4/CyLib.c ****     * Function Name: CySysWdtReadCount
1513:Generated_Source\PSoC4/CyLib.c ****     ********************************************************************************
1514:Generated_Source\PSoC4/CyLib.c ****     *
1515:Generated_Source\PSoC4/CyLib.c ****     * Summary:
1516:Generated_Source\PSoC4/CyLib.c ****     *  Reads the current WDT counter value.
1517:Generated_Source\PSoC4/CyLib.c ****     *
1518:Generated_Source\PSoC4/CyLib.c ****     * Parameters:
1519:Generated_Source\PSoC4/CyLib.c ****     *  counterNum: Valid range [0-2].  Number of the WDT counter.
1520:Generated_Source\PSoC4/CyLib.c ****     *
1521:Generated_Source\PSoC4/CyLib.c ****     * Return:
1522:Generated_Source\PSoC4/CyLib.c ****     *  Live counter value.  Counter 0 and 1 are 16 bit counters and counter
1523:Generated_Source\PSoC4/CyLib.c ****     *  2 is a 32 bit counter.
1524:Generated_Source\PSoC4/CyLib.c ****     *
1525:Generated_Source\PSoC4/CyLib.c ****     *******************************************************************************/
1526:Generated_Source\PSoC4/CyLib.c ****     uint32 CySysWdtReadCount(uint32 counterNum)
1527:Generated_Source\PSoC4/CyLib.c ****     {
 1800              		.loc 1 1527 0
 1801              		.cfi_startproc
 1802              		@ args = 0, pretend = 0, frame = 16
 1803              		@ frame_needed = 1, uses_anonymous_args = 0
 1804 0000 80B5     		push	{r7, lr}
 1805              		.cfi_def_cfa_offset 8
 1806              		.cfi_offset 7, -8
 1807              		.cfi_offset 14, -4
 1808 0002 84B0     		sub	sp, sp, #16
 1809              		.cfi_def_cfa_offset 24
 1810 0004 00AF     		add	r7, sp, #0
 1811              		.cfi_def_cfa_register 7
 1812 0006 7860     		str	r0, [r7, #4]
1528:Generated_Source\PSoC4/CyLib.c ****         uint32 regValue = 0u;
 1813              		.loc 1 1528 0
 1814 0008 0023     		movs	r3, #0
 1815 000a FB60     		str	r3, [r7, #12]
1529:Generated_Source\PSoC4/CyLib.c **** 
1530:Generated_Source\PSoC4/CyLib.c ****         switch(counterNum)
 1816              		.loc 1 1530 0
 1817 000c 7B68     		ldr	r3, [r7, #4]
 1818 000e 012B     		cmp	r3, #1
 1819 0010 09D0     		beq	.L140
 1820 0012 02D3     		bcc	.L141
ARM GAS  C:\Users\jdrd3\AppData\Local\Temp\ccRHZt6s.s 			page 60


 1821 0014 022B     		cmp	r3, #2
 1822 0016 0BD0     		beq	.L142
 1823 0018 0EE0     		b	.L145
 1824              	.L141:
1531:Generated_Source\PSoC4/CyLib.c ****         {
1532:Generated_Source\PSoC4/CyLib.c ****             /* WDT Counter 0 */
1533:Generated_Source\PSoC4/CyLib.c ****             case 0u:
1534:Generated_Source\PSoC4/CyLib.c ****                 regValue = CY_SYS_WDT_CTRLOW_REG & CY_SYS_WDT_LOWER_16BITS_MASK;
 1825              		.loc 1 1534 0
 1826 001a 0C4B     		ldr	r3, .L146
 1827 001c 1B68     		ldr	r3, [r3]
 1828 001e 1B04     		lsls	r3, r3, #16
 1829 0020 1B0C     		lsrs	r3, r3, #16
 1830 0022 FB60     		str	r3, [r7, #12]
1535:Generated_Source\PSoC4/CyLib.c ****             break;
 1831              		.loc 1 1535 0
 1832 0024 0CE0     		b	.L143
 1833              	.L140:
1536:Generated_Source\PSoC4/CyLib.c **** 
1537:Generated_Source\PSoC4/CyLib.c ****             /* WDT Counter 1 */
1538:Generated_Source\PSoC4/CyLib.c ****             case 1u:
1539:Generated_Source\PSoC4/CyLib.c ****                 regValue = (CY_SYS_WDT_CTRLOW_REG >> CY_SYS_WDT_CNT_MATCH_SHIFT) & CY_SYS_WDT_LOWER
 1834              		.loc 1 1539 0
 1835 0026 094B     		ldr	r3, .L146
 1836 0028 1B68     		ldr	r3, [r3]
 1837 002a 1B0C     		lsrs	r3, r3, #16
 1838 002c FB60     		str	r3, [r7, #12]
1540:Generated_Source\PSoC4/CyLib.c ****             break;
 1839              		.loc 1 1540 0
 1840 002e 07E0     		b	.L143
 1841              	.L142:
1541:Generated_Source\PSoC4/CyLib.c **** 
1542:Generated_Source\PSoC4/CyLib.c ****             /* WDT Counter 2 */
1543:Generated_Source\PSoC4/CyLib.c ****             case 2u:
1544:Generated_Source\PSoC4/CyLib.c ****                 regValue = CY_SYS_WDT_CTRHIGH_REG;
 1842              		.loc 1 1544 0
 1843 0030 074B     		ldr	r3, .L146+4
 1844 0032 1B68     		ldr	r3, [r3]
 1845 0034 FB60     		str	r3, [r7, #12]
1545:Generated_Source\PSoC4/CyLib.c ****             break;
 1846              		.loc 1 1545 0
 1847 0036 03E0     		b	.L143
 1848              	.L145:
1546:Generated_Source\PSoC4/CyLib.c **** 
1547:Generated_Source\PSoC4/CyLib.c ****             default:
1548:Generated_Source\PSoC4/CyLib.c ****                 CYASSERT(0u != 0u);
 1849              		.loc 1 1548 0
 1850 0038 0020     		movs	r0, #0
 1851 003a FFF7FEFF 		bl	CyHalt
1549:Generated_Source\PSoC4/CyLib.c ****             break;
 1852              		.loc 1 1549 0
 1853 003e C046     		nop
 1854              	.L143:
1550:Generated_Source\PSoC4/CyLib.c ****         }
1551:Generated_Source\PSoC4/CyLib.c **** 
1552:Generated_Source\PSoC4/CyLib.c ****         return (regValue);
 1855              		.loc 1 1552 0
ARM GAS  C:\Users\jdrd3\AppData\Local\Temp\ccRHZt6s.s 			page 61


 1856 0040 FB68     		ldr	r3, [r7, #12]
1553:Generated_Source\PSoC4/CyLib.c ****     }
 1857              		.loc 1 1553 0
 1858 0042 1800     		movs	r0, r3
 1859 0044 BD46     		mov	sp, r7
 1860 0046 04B0     		add	sp, sp, #16
 1861              		@ sp needed
 1862 0048 80BD     		pop	{r7, pc}
 1863              	.L147:
 1864 004a C046     		.align	2
 1865              	.L146:
 1866 004c 00020B40 		.word	1074463232
 1867 0050 04020B40 		.word	1074463236
 1868              		.cfi_endproc
 1869              	.LFE24:
 1870              		.size	CySysWdtReadCount, .-CySysWdtReadCount
 1871              		.section	.text.CySysWdtGetInterruptSource,"ax",%progbits
 1872              		.align	2
 1873              		.global	CySysWdtGetInterruptSource
 1874              		.code	16
 1875              		.thumb_func
 1876              		.type	CySysWdtGetInterruptSource, %function
 1877              	CySysWdtGetInterruptSource:
 1878              	.LFB25:
1554:Generated_Source\PSoC4/CyLib.c **** 
1555:Generated_Source\PSoC4/CyLib.c **** 
1556:Generated_Source\PSoC4/CyLib.c ****     /*******************************************************************************
1557:Generated_Source\PSoC4/CyLib.c ****     * Function Name: CySysWdtGetInterruptSource
1558:Generated_Source\PSoC4/CyLib.c ****     ********************************************************************************
1559:Generated_Source\PSoC4/CyLib.c ****     *
1560:Generated_Source\PSoC4/CyLib.c ****     * Summary:
1561:Generated_Source\PSoC4/CyLib.c ****     *   Reads a mask containing all the WDT counters interrupts that are currently
1562:Generated_Source\PSoC4/CyLib.c ****     *   set by the hardware, if a corresponding mode is selected.
1563:Generated_Source\PSoC4/CyLib.c ****     *
1564:Generated_Source\PSoC4/CyLib.c ****     * Parameters:
1565:Generated_Source\PSoC4/CyLib.c ****     *   None
1566:Generated_Source\PSoC4/CyLib.c ****     *
1567:Generated_Source\PSoC4/CyLib.c ****     * Return:
1568:Generated_Source\PSoC4/CyLib.c ****     *   Mask of interrupts set.
1569:Generated_Source\PSoC4/CyLib.c ****     *   Define                    Counter
1570:Generated_Source\PSoC4/CyLib.c ****     *   CY_SYS_WDT_COUNTER0_INT    0
1571:Generated_Source\PSoC4/CyLib.c ****     *   CY_SYS_WDT_COUNTER1_INT    1
1572:Generated_Source\PSoC4/CyLib.c ****     *   CY_SYS_WDT_COUNTER2_INT    2
1573:Generated_Source\PSoC4/CyLib.c ****     *
1574:Generated_Source\PSoC4/CyLib.c ****     *******************************************************************************/
1575:Generated_Source\PSoC4/CyLib.c ****     uint32 CySysWdtGetInterruptSource(void)
1576:Generated_Source\PSoC4/CyLib.c ****     {
 1879              		.loc 1 1576 0
 1880              		.cfi_startproc
 1881              		@ args = 0, pretend = 0, frame = 0
 1882              		@ frame_needed = 1, uses_anonymous_args = 0
 1883 0000 80B5     		push	{r7, lr}
 1884              		.cfi_def_cfa_offset 8
 1885              		.cfi_offset 7, -8
 1886              		.cfi_offset 14, -4
 1887 0002 00AF     		add	r7, sp, #0
 1888              		.cfi_def_cfa_register 7
ARM GAS  C:\Users\jdrd3\AppData\Local\Temp\ccRHZt6s.s 			page 62


1577:Generated_Source\PSoC4/CyLib.c ****         return (CY_SYS_WDT_CONTROL_REG & (CY_SYS_WDT_COUNTER0_INT | CY_SYS_WDT_COUNTER1_INT | CY_SY
 1889              		.loc 1 1577 0
 1890 0004 034B     		ldr	r3, .L150
 1891 0006 1B68     		ldr	r3, [r3]
 1892 0008 034A     		ldr	r2, .L150+4
 1893 000a 1340     		ands	r3, r2
1578:Generated_Source\PSoC4/CyLib.c ****     }
 1894              		.loc 1 1578 0
 1895 000c 1800     		movs	r0, r3
 1896 000e BD46     		mov	sp, r7
 1897              		@ sp needed
 1898 0010 80BD     		pop	{r7, pc}
 1899              	.L151:
 1900 0012 C046     		.align	2
 1901              	.L150:
 1902 0014 10020B40 		.word	1074463248
 1903 0018 04040400 		.word	263172
 1904              		.cfi_endproc
 1905              	.LFE25:
 1906              		.size	CySysWdtGetInterruptSource, .-CySysWdtGetInterruptSource
 1907              		.section	.text.CySysWdtClearInterrupt,"ax",%progbits
 1908              		.align	2
 1909              		.global	CySysWdtClearInterrupt
 1910              		.code	16
 1911              		.thumb_func
 1912              		.type	CySysWdtClearInterrupt, %function
 1913              	CySysWdtClearInterrupt:
 1914              	.LFB26:
1579:Generated_Source\PSoC4/CyLib.c **** 
1580:Generated_Source\PSoC4/CyLib.c **** 
1581:Generated_Source\PSoC4/CyLib.c ****     /*******************************************************************************
1582:Generated_Source\PSoC4/CyLib.c ****     * Function Name: CySysWdtClearInterrupt
1583:Generated_Source\PSoC4/CyLib.c ****     ********************************************************************************
1584:Generated_Source\PSoC4/CyLib.c ****     *
1585:Generated_Source\PSoC4/CyLib.c ****     * Summary:
1586:Generated_Source\PSoC4/CyLib.c ****     *   Clears all the WDT counter interrupts set in the mask. Calling this function
1587:Generated_Source\PSoC4/CyLib.c ****     *   also prevents Reset from happening when the counter mode is set to generate
1588:Generated_Source\PSoC4/CyLib.c ****     *   3 interrupts and then reset the device.
1589:Generated_Source\PSoC4/CyLib.c ****     *
1590:Generated_Source\PSoC4/CyLib.c ****     *   All the WDT interrupts are to be cleared by the firmware, otherwise interrupts
1591:Generated_Source\PSoC4/CyLib.c ****     *   will be generated continuously.
1592:Generated_Source\PSoC4/CyLib.c ****     *
1593:Generated_Source\PSoC4/CyLib.c ****     * Parameters:
1594:Generated_Source\PSoC4/CyLib.c ****     *   counterMask: Mask of all counters to enable
1595:Generated_Source\PSoC4/CyLib.c ****     *   Define                    Counter
1596:Generated_Source\PSoC4/CyLib.c ****     *   CY_SYS_WDT_COUNTER0_INT    0
1597:Generated_Source\PSoC4/CyLib.c ****     *   CY_SYS_WDT_COUNTER1_INT    1
1598:Generated_Source\PSoC4/CyLib.c ****     *   CY_SYS_WDT_COUNTER2_INT    2
1599:Generated_Source\PSoC4/CyLib.c ****     *
1600:Generated_Source\PSoC4/CyLib.c ****     * Return:
1601:Generated_Source\PSoC4/CyLib.c ****     *   None
1602:Generated_Source\PSoC4/CyLib.c ****     *
1603:Generated_Source\PSoC4/CyLib.c ****     * Side effects:
1604:Generated_Source\PSoC4/CyLib.c ****     *   This function temporary removes the watchdog lock, if it was set, and
1605:Generated_Source\PSoC4/CyLib.c ****     *   restores the lock state, after cleaning the WDT interrupts, that are set in
1606:Generated_Source\PSoC4/CyLib.c ****     *   a mask.
1607:Generated_Source\PSoC4/CyLib.c ****     *
ARM GAS  C:\Users\jdrd3\AppData\Local\Temp\ccRHZt6s.s 			page 63


1608:Generated_Source\PSoC4/CyLib.c ****     *******************************************************************************/
1609:Generated_Source\PSoC4/CyLib.c ****     void CySysWdtClearInterrupt(uint32 counterMask)
1610:Generated_Source\PSoC4/CyLib.c ****     {
 1915              		.loc 1 1610 0
 1916              		.cfi_startproc
 1917              		@ args = 0, pretend = 0, frame = 16
 1918              		@ frame_needed = 1, uses_anonymous_args = 0
 1919 0000 90B5     		push	{r4, r7, lr}
 1920              		.cfi_def_cfa_offset 12
 1921              		.cfi_offset 4, -12
 1922              		.cfi_offset 7, -8
 1923              		.cfi_offset 14, -4
 1924 0002 85B0     		sub	sp, sp, #20
 1925              		.cfi_def_cfa_offset 32
 1926 0004 00AF     		add	r7, sp, #0
 1927              		.cfi_def_cfa_register 7
 1928 0006 7860     		str	r0, [r7, #4]
1611:Generated_Source\PSoC4/CyLib.c ****         uint8 interruptState;
1612:Generated_Source\PSoC4/CyLib.c ****         uint32 wdtLockState;
1613:Generated_Source\PSoC4/CyLib.c **** 
1614:Generated_Source\PSoC4/CyLib.c ****         interruptState = CyEnterCriticalSection();
 1929              		.loc 1 1614 0
 1930 0008 0B23     		movs	r3, #11
 1931 000a FC18     		adds	r4, r7, r3
 1932 000c FFF7FEFF 		bl	CyEnterCriticalSection
 1933 0010 0300     		movs	r3, r0
 1934 0012 2370     		strb	r3, [r4]
1615:Generated_Source\PSoC4/CyLib.c **** 
1616:Generated_Source\PSoC4/CyLib.c ****         if (0u != CySysWdtLocked())
 1935              		.loc 1 1616 0
 1936 0014 FFF7FEFF 		bl	CySysWdtLocked
 1937 0018 031E     		subs	r3, r0, #0
 1938 001a 04D0     		beq	.L153
1617:Generated_Source\PSoC4/CyLib.c ****         {
1618:Generated_Source\PSoC4/CyLib.c ****             wdtLockState = 1u;
 1939              		.loc 1 1618 0
 1940 001c 0123     		movs	r3, #1
 1941 001e FB60     		str	r3, [r7, #12]
1619:Generated_Source\PSoC4/CyLib.c ****             CySysWdtUnlock();
 1942              		.loc 1 1619 0
 1943 0020 FFF7FEFF 		bl	CySysWdtUnlock
 1944 0024 01E0     		b	.L154
 1945              	.L153:
1620:Generated_Source\PSoC4/CyLib.c ****         }
1621:Generated_Source\PSoC4/CyLib.c ****         else
1622:Generated_Source\PSoC4/CyLib.c ****         {
1623:Generated_Source\PSoC4/CyLib.c ****             wdtLockState = 0u;
 1946              		.loc 1 1623 0
 1947 0026 0023     		movs	r3, #0
 1948 0028 FB60     		str	r3, [r7, #12]
 1949              	.L154:
1624:Generated_Source\PSoC4/CyLib.c ****         }
1625:Generated_Source\PSoC4/CyLib.c **** 
1626:Generated_Source\PSoC4/CyLib.c ****         /* Set new WDT control register value */
1627:Generated_Source\PSoC4/CyLib.c ****         counterMask &= (CY_SYS_WDT_COUNTER0_INT |
 1950              		.loc 1 1627 0
 1951 002a 7B68     		ldr	r3, [r7, #4]
ARM GAS  C:\Users\jdrd3\AppData\Local\Temp\ccRHZt6s.s 			page 64


 1952 002c 0C4A     		ldr	r2, .L156
 1953 002e 1340     		ands	r3, r2
 1954 0030 7B60     		str	r3, [r7, #4]
1628:Generated_Source\PSoC4/CyLib.c ****                         CY_SYS_WDT_COUNTER1_INT |
1629:Generated_Source\PSoC4/CyLib.c ****                         CY_SYS_WDT_COUNTER2_INT);
1630:Generated_Source\PSoC4/CyLib.c **** 
1631:Generated_Source\PSoC4/CyLib.c ****         CY_SYS_WDT_CONTROL_REG = counterMask | (CY_SYS_WDT_CONTROL_REG & ~(CY_SYS_WDT_COUNTER0_INT 
 1955              		.loc 1 1631 0
 1956 0032 0C4B     		ldr	r3, .L156+4
 1957 0034 0B4A     		ldr	r2, .L156+4
 1958 0036 1268     		ldr	r2, [r2]
 1959 0038 0B49     		ldr	r1, .L156+8
 1960 003a 1140     		ands	r1, r2
 1961 003c 7A68     		ldr	r2, [r7, #4]
 1962 003e 0A43     		orrs	r2, r1
 1963 0040 1A60     		str	r2, [r3]
1632:Generated_Source\PSoC4/CyLib.c ****                                                                            CY_SYS_WDT_COUNTER1_INT 
1633:Generated_Source\PSoC4/CyLib.c ****                                                                            CY_SYS_WDT_COUNTER2_INT)
1634:Generated_Source\PSoC4/CyLib.c **** 
1635:Generated_Source\PSoC4/CyLib.c ****         if (1u == wdtLockState)
 1964              		.loc 1 1635 0
 1965 0042 FB68     		ldr	r3, [r7, #12]
 1966 0044 012B     		cmp	r3, #1
 1967 0046 01D1     		bne	.L155
1636:Generated_Source\PSoC4/CyLib.c ****         {
1637:Generated_Source\PSoC4/CyLib.c ****             CySysWdtLock();
 1968              		.loc 1 1637 0
 1969 0048 FFF7FEFF 		bl	CySysWdtLock
 1970              	.L155:
1638:Generated_Source\PSoC4/CyLib.c ****         }
1639:Generated_Source\PSoC4/CyLib.c **** 
1640:Generated_Source\PSoC4/CyLib.c ****         CyExitCriticalSection(interruptState);
 1971              		.loc 1 1640 0
 1972 004c 0B23     		movs	r3, #11
 1973 004e FB18     		adds	r3, r7, r3
 1974 0050 1B78     		ldrb	r3, [r3]
 1975 0052 1800     		movs	r0, r3
 1976 0054 FFF7FEFF 		bl	CyExitCriticalSection
1641:Generated_Source\PSoC4/CyLib.c ****     }
 1977              		.loc 1 1641 0
 1978 0058 C046     		nop
 1979 005a BD46     		mov	sp, r7
 1980 005c 05B0     		add	sp, sp, #20
 1981              		@ sp needed
 1982 005e 90BD     		pop	{r4, r7, pc}
 1983              	.L157:
 1984              		.align	2
 1985              	.L156:
 1986 0060 04040400 		.word	263172
 1987 0064 10020B40 		.word	1074463248
 1988 0068 FBFBFBFF 		.word	-263173
 1989              		.cfi_endproc
 1990              	.LFE26:
 1991              		.size	CySysWdtClearInterrupt, .-CySysWdtClearInterrupt
 1992              		.section	.text.CySysWdtResetCounters,"ax",%progbits
 1993              		.align	2
 1994              		.global	CySysWdtResetCounters
ARM GAS  C:\Users\jdrd3\AppData\Local\Temp\ccRHZt6s.s 			page 65


 1995              		.code	16
 1996              		.thumb_func
 1997              		.type	CySysWdtResetCounters, %function
 1998              	CySysWdtResetCounters:
 1999              	.LFB27:
1642:Generated_Source\PSoC4/CyLib.c **** 
1643:Generated_Source\PSoC4/CyLib.c **** 
1644:Generated_Source\PSoC4/CyLib.c ****     /*******************************************************************************
1645:Generated_Source\PSoC4/CyLib.c ****     * Function Name: CySysWdtResetCounters
1646:Generated_Source\PSoC4/CyLib.c ****     ********************************************************************************
1647:Generated_Source\PSoC4/CyLib.c ****     *
1648:Generated_Source\PSoC4/CyLib.c ****     * Summary:
1649:Generated_Source\PSoC4/CyLib.c ****     *  Resets all WDT counters set in the mask.
1650:Generated_Source\PSoC4/CyLib.c ****     *
1651:Generated_Source\PSoC4/CyLib.c ****     * Parameters:
1652:Generated_Source\PSoC4/CyLib.c ****     *  counterMask: Mask of all counters to reset.
1653:Generated_Source\PSoC4/CyLib.c ****     *   Define                       Counter
1654:Generated_Source\PSoC4/CyLib.c ****     *   CY_SYS_WDT_COUNTER0_RESET    0
1655:Generated_Source\PSoC4/CyLib.c ****     *   CY_SYS_WDT_COUNTER1_RESET    1
1656:Generated_Source\PSoC4/CyLib.c ****     *   CY_SYS_WDT_COUNTER2_RESET    2
1657:Generated_Source\PSoC4/CyLib.c ****     *
1658:Generated_Source\PSoC4/CyLib.c ****     * Return:
1659:Generated_Source\PSoC4/CyLib.c ****     *   None
1660:Generated_Source\PSoC4/CyLib.c ****     *
1661:Generated_Source\PSoC4/CyLib.c ****     * Side effects:
1662:Generated_Source\PSoC4/CyLib.c ****     *   This function will not reset counter values if the Watchdog is locked.
1663:Generated_Source\PSoC4/CyLib.c ****     *
1664:Generated_Source\PSoC4/CyLib.c ****     *******************************************************************************/
1665:Generated_Source\PSoC4/CyLib.c ****     void CySysWdtResetCounters(uint32 countersMask)
1666:Generated_Source\PSoC4/CyLib.c ****     {
 2000              		.loc 1 1666 0
 2001              		.cfi_startproc
 2002              		@ args = 0, pretend = 0, frame = 8
 2003              		@ frame_needed = 1, uses_anonymous_args = 0
 2004 0000 80B5     		push	{r7, lr}
 2005              		.cfi_def_cfa_offset 8
 2006              		.cfi_offset 7, -8
 2007              		.cfi_offset 14, -4
 2008 0002 82B0     		sub	sp, sp, #8
 2009              		.cfi_def_cfa_offset 16
 2010 0004 00AF     		add	r7, sp, #0
 2011              		.cfi_def_cfa_register 7
 2012 0006 7860     		str	r0, [r7, #4]
1667:Generated_Source\PSoC4/CyLib.c ****         /* Set new WDT reset value */
1668:Generated_Source\PSoC4/CyLib.c ****         CY_SYS_WDT_CONTROL_REG |= (countersMask & (CY_SYS_WDT_COUNTER0_RESET |
 2013              		.loc 1 1668 0
 2014 0008 054B     		ldr	r3, .L159
 2015 000a 054A     		ldr	r2, .L159
 2016 000c 1168     		ldr	r1, [r2]
 2017 000e 7A68     		ldr	r2, [r7, #4]
 2018 0010 0448     		ldr	r0, .L159+4
 2019 0012 0240     		ands	r2, r0
 2020 0014 0A43     		orrs	r2, r1
 2021 0016 1A60     		str	r2, [r3]
1669:Generated_Source\PSoC4/CyLib.c ****             CY_SYS_WDT_COUNTER1_RESET | CY_SYS_WDT_COUNTER2_RESET));
1670:Generated_Source\PSoC4/CyLib.c ****     }
 2022              		.loc 1 1670 0
ARM GAS  C:\Users\jdrd3\AppData\Local\Temp\ccRHZt6s.s 			page 66


 2023 0018 C046     		nop
 2024 001a BD46     		mov	sp, r7
 2025 001c 02B0     		add	sp, sp, #8
 2026              		@ sp needed
 2027 001e 80BD     		pop	{r7, pc}
 2028              	.L160:
 2029              		.align	2
 2030              	.L159:
 2031 0020 10020B40 		.word	1074463248
 2032 0024 08080800 		.word	526344
 2033              		.cfi_endproc
 2034              	.LFE27:
 2035              		.size	CySysWdtResetCounters, .-CySysWdtResetCounters
 2036              		.section	.text.CySysClkLfclkPosedgeCatch,"ax",%progbits
 2037              		.align	2
 2038              		.code	16
 2039              		.thumb_func
 2040              		.type	CySysClkLfclkPosedgeCatch, %function
 2041              	CySysClkLfclkPosedgeCatch:
 2042              	.LFB28:
1671:Generated_Source\PSoC4/CyLib.c **** 
1672:Generated_Source\PSoC4/CyLib.c **** 
1673:Generated_Source\PSoC4/CyLib.c ****     /*******************************************************************************
1674:Generated_Source\PSoC4/CyLib.c ****     * Function Name: CySysClkLfclkPosedgeCatch
1675:Generated_Source\PSoC4/CyLib.c ****     ********************************************************************************
1676:Generated_Source\PSoC4/CyLib.c ****     *
1677:Generated_Source\PSoC4/CyLib.c ****     * Summary:
1678:Generated_Source\PSoC4/CyLib.c ****     *  Returns once LFCLK positive edge occurred.
1679:Generated_Source\PSoC4/CyLib.c ****     *
1680:Generated_Source\PSoC4/CyLib.c ****     *  The CySysClkLfclkPosedgeRestore() should be called after this function in
1681:Generated_Source\PSoC4/CyLib.c ****     *  order to restore WDT configuration.
1682:Generated_Source\PSoC4/CyLib.c ****     *
1683:Generated_Source\PSoC4/CyLib.c ****     *  The pair of the CySysClkLfclkPosedgeCatch() and CySysClkLfclkPosedgeRestore()
1684:Generated_Source\PSoC4/CyLib.c ****     *  functions expected to be called inside of a critical section.
1685:Generated_Source\PSoC4/CyLib.c ****     *
1686:Generated_Source\PSoC4/CyLib.c ****     *  To ensure that the WDT counter value is read until it changes. The enabled
1687:Generated_Source\PSoC4/CyLib.c ****     *  WDT counter is used for that purpose. If no counters are enabled, the counter
1688:Generated_Source\PSoC4/CyLib.c ****     *  0 is enabled. And after LFCLK source is switched, the counter 0 configuration
1689:Generated_Source\PSoC4/CyLib.c ****     *  is restored back.
1690:Generated_Source\PSoC4/CyLib.c ****     *
1691:Generated_Source\PSoC4/CyLib.c ****     *  Not applicable for the PSoC 4000 devices.
1692:Generated_Source\PSoC4/CyLib.c ****     *
1693:Generated_Source\PSoC4/CyLib.c ****     * Parameters:
1694:Generated_Source\PSoC4/CyLib.c ****     *  None
1695:Generated_Source\PSoC4/CyLib.c ****     *
1696:Generated_Source\PSoC4/CyLib.c ****     * Return:
1697:Generated_Source\PSoC4/CyLib.c ****     *  None
1698:Generated_Source\PSoC4/CyLib.c ****     *
1699:Generated_Source\PSoC4/CyLib.c ****     * Side Effects:
1700:Generated_Source\PSoC4/CyLib.c ****     *  This function will have no effect if the WDT is locked (CySysWdtLock() is
1701:Generated_Source\PSoC4/CyLib.c ****     *  called). Call CySysWdtUnlock() to unlock the WDT.
1702:Generated_Source\PSoC4/CyLib.c ****     *
1703:Generated_Source\PSoC4/CyLib.c ****     *******************************************************************************/
1704:Generated_Source\PSoC4/CyLib.c ****     static void CySysClkLfclkPosedgeCatch(void)
1705:Generated_Source\PSoC4/CyLib.c ****     {
 2043              		.loc 1 1705 0
 2044              		.cfi_startproc
ARM GAS  C:\Users\jdrd3\AppData\Local\Temp\ccRHZt6s.s 			page 67


 2045              		@ args = 0, pretend = 0, frame = 8
 2046              		@ frame_needed = 1, uses_anonymous_args = 0
 2047 0000 80B5     		push	{r7, lr}
 2048              		.cfi_def_cfa_offset 8
 2049              		.cfi_offset 7, -8
 2050              		.cfi_offset 14, -4
 2051 0002 82B0     		sub	sp, sp, #8
 2052              		.cfi_def_cfa_offset 16
 2053 0004 00AF     		add	r7, sp, #0
 2054              		.cfi_def_cfa_register 7
1706:Generated_Source\PSoC4/CyLib.c ****         uint32 firstCount;
1707:Generated_Source\PSoC4/CyLib.c **** 
1708:Generated_Source\PSoC4/CyLib.c ****         if (0u != CySysWdtReadEnabledStatus(CY_SYS_WDT_COUNTER0))
 2055              		.loc 1 1708 0
 2056 0006 0020     		movs	r0, #0
 2057 0008 FFF7FEFF 		bl	CySysWdtReadEnabledStatus
 2058 000c 031E     		subs	r3, r0, #0
 2059 000e 03D0     		beq	.L162
1709:Generated_Source\PSoC4/CyLib.c ****         {
1710:Generated_Source\PSoC4/CyLib.c ****             lfclkPosedgeEnabledWdtCounter = CY_SYS_WDT_COUNTER0;
 2060              		.loc 1 1710 0
 2061 0010 1E4B     		ldr	r3, .L167
 2062 0012 0022     		movs	r2, #0
 2063 0014 1A60     		str	r2, [r3]
 2064 0016 24E0     		b	.L163
 2065              	.L162:
1711:Generated_Source\PSoC4/CyLib.c ****         }
1712:Generated_Source\PSoC4/CyLib.c ****         else if (0u != CySysWdtReadEnabledStatus(CY_SYS_WDT_COUNTER1))
 2066              		.loc 1 1712 0
 2067 0018 0120     		movs	r0, #1
 2068 001a FFF7FEFF 		bl	CySysWdtReadEnabledStatus
 2069 001e 031E     		subs	r3, r0, #0
 2070 0020 03D0     		beq	.L164
1713:Generated_Source\PSoC4/CyLib.c ****         {
1714:Generated_Source\PSoC4/CyLib.c ****             lfclkPosedgeEnabledWdtCounter = CY_SYS_WDT_COUNTER1;
 2071              		.loc 1 1714 0
 2072 0022 1A4B     		ldr	r3, .L167
 2073 0024 0122     		movs	r2, #1
 2074 0026 1A60     		str	r2, [r3]
 2075 0028 1BE0     		b	.L163
 2076              	.L164:
1715:Generated_Source\PSoC4/CyLib.c ****         }
1716:Generated_Source\PSoC4/CyLib.c ****         else if (0u != CySysWdtReadEnabledStatus(CY_SYS_WDT_COUNTER2))
 2077              		.loc 1 1716 0
 2078 002a 0220     		movs	r0, #2
 2079 002c FFF7FEFF 		bl	CySysWdtReadEnabledStatus
 2080 0030 031E     		subs	r3, r0, #0
 2081 0032 03D0     		beq	.L165
1717:Generated_Source\PSoC4/CyLib.c ****         {
1718:Generated_Source\PSoC4/CyLib.c ****             lfclkPosedgeEnabledWdtCounter = CY_SYS_WDT_COUNTER2;
 2082              		.loc 1 1718 0
 2083 0034 154B     		ldr	r3, .L167
 2084 0036 0222     		movs	r2, #2
 2085 0038 1A60     		str	r2, [r3]
 2086 003a 12E0     		b	.L163
 2087              	.L165:
1719:Generated_Source\PSoC4/CyLib.c ****         }
ARM GAS  C:\Users\jdrd3\AppData\Local\Temp\ccRHZt6s.s 			page 68


1720:Generated_Source\PSoC4/CyLib.c ****         else /* All WDT counters are disabled */
1721:Generated_Source\PSoC4/CyLib.c ****         {
1722:Generated_Source\PSoC4/CyLib.c ****             /* Configure WDT counter # 0 */
1723:Generated_Source\PSoC4/CyLib.c ****             lfclkPosedgeWdtCounter0Enabled = 1u;
 2088              		.loc 1 1723 0
 2089 003c 144B     		ldr	r3, .L167+4
 2090 003e 0122     		movs	r2, #1
 2091 0040 1A60     		str	r2, [r3]
1724:Generated_Source\PSoC4/CyLib.c ****             lfclkPosedgeEnabledWdtCounter = CY_SYS_WDT_COUNTER0;
 2092              		.loc 1 1724 0
 2093 0042 124B     		ldr	r3, .L167
 2094 0044 0022     		movs	r2, #0
 2095 0046 1A60     		str	r2, [r3]
1725:Generated_Source\PSoC4/CyLib.c **** 
1726:Generated_Source\PSoC4/CyLib.c ****             lfclkPosedgeWdtCounter0Mode = CySysWdtReadMode(CY_SYS_WDT_COUNTER0);
 2096              		.loc 1 1726 0
 2097 0048 0020     		movs	r0, #0
 2098 004a FFF7FEFF 		bl	CySysWdtReadMode
 2099 004e 0200     		movs	r2, r0
 2100 0050 104B     		ldr	r3, .L167+8
 2101 0052 1A60     		str	r2, [r3]
1727:Generated_Source\PSoC4/CyLib.c ****             CySysWdtWriteMode(CY_SYS_WDT_COUNTER0, CY_SYS_WDT_MODE_NONE);
 2102              		.loc 1 1727 0
 2103 0054 0021     		movs	r1, #0
 2104 0056 0020     		movs	r0, #0
 2105 0058 FFF7FEFF 		bl	CySysWdtWriteMode
1728:Generated_Source\PSoC4/CyLib.c ****             CySysWdtEnable(CY_SYS_WDT_COUNTER0_MASK);
 2106              		.loc 1 1728 0
 2107 005c 0120     		movs	r0, #1
 2108 005e FFF7FEFF 		bl	CySysWdtEnable
 2109              	.L163:
1729:Generated_Source\PSoC4/CyLib.c ****         }
1730:Generated_Source\PSoC4/CyLib.c **** 
1731:Generated_Source\PSoC4/CyLib.c ****         firstCount = CySysWdtReadCount(lfclkPosedgeEnabledWdtCounter);
 2110              		.loc 1 1731 0
 2111 0062 0A4B     		ldr	r3, .L167
 2112 0064 1B68     		ldr	r3, [r3]
 2113 0066 1800     		movs	r0, r3
 2114 0068 FFF7FEFF 		bl	CySysWdtReadCount
 2115 006c 0300     		movs	r3, r0
 2116 006e 7B60     		str	r3, [r7, #4]
1732:Generated_Source\PSoC4/CyLib.c ****         while (CySysWdtReadCount(lfclkPosedgeEnabledWdtCounter) == firstCount)
 2117              		.loc 1 1732 0
 2118 0070 C046     		nop
 2119              	.L166:
 2120              		.loc 1 1732 0 is_stmt 0 discriminator 1
 2121 0072 064B     		ldr	r3, .L167
 2122 0074 1B68     		ldr	r3, [r3]
 2123 0076 1800     		movs	r0, r3
 2124 0078 FFF7FEFF 		bl	CySysWdtReadCount
 2125 007c 0200     		movs	r2, r0
 2126 007e 7B68     		ldr	r3, [r7, #4]
 2127 0080 9A42     		cmp	r2, r3
 2128 0082 F6D0     		beq	.L166
1733:Generated_Source\PSoC4/CyLib.c ****         {
1734:Generated_Source\PSoC4/CyLib.c ****             /* Wait for counter to increment */
1735:Generated_Source\PSoC4/CyLib.c ****         }
ARM GAS  C:\Users\jdrd3\AppData\Local\Temp\ccRHZt6s.s 			page 69


1736:Generated_Source\PSoC4/CyLib.c ****     }
 2129              		.loc 1 1736 0 is_stmt 1
 2130 0084 C046     		nop
 2131 0086 BD46     		mov	sp, r7
 2132 0088 02B0     		add	sp, sp, #8
 2133              		@ sp needed
 2134 008a 80BD     		pop	{r7, pc}
 2135              	.L168:
 2136              		.align	2
 2137              	.L167:
 2138 008c 00000000 		.word	lfclkPosedgeEnabledWdtCounter
 2139 0090 00000000 		.word	lfclkPosedgeWdtCounter0Enabled
 2140 0094 00000000 		.word	lfclkPosedgeWdtCounter0Mode
 2141              		.cfi_endproc
 2142              	.LFE28:
 2143              		.size	CySysClkLfclkPosedgeCatch, .-CySysClkLfclkPosedgeCatch
 2144              		.section	.text.CySysClkLfclkPosedgeRestore,"ax",%progbits
 2145              		.align	2
 2146              		.code	16
 2147              		.thumb_func
 2148              		.type	CySysClkLfclkPosedgeRestore, %function
 2149              	CySysClkLfclkPosedgeRestore:
 2150              	.LFB29:
1737:Generated_Source\PSoC4/CyLib.c **** 
1738:Generated_Source\PSoC4/CyLib.c **** 
1739:Generated_Source\PSoC4/CyLib.c ****     /*******************************************************************************
1740:Generated_Source\PSoC4/CyLib.c ****     * Function Name: CySysClkLfclkPosedgeRestore
1741:Generated_Source\PSoC4/CyLib.c ****     ********************************************************************************
1742:Generated_Source\PSoC4/CyLib.c ****     *
1743:Generated_Source\PSoC4/CyLib.c ****     * Summary:
1744:Generated_Source\PSoC4/CyLib.c ****     *  Restores WDT configuration after CySysClkLfclkPosedgeCatch() call.
1745:Generated_Source\PSoC4/CyLib.c ****     *
1746:Generated_Source\PSoC4/CyLib.c ****     *  The pair of the CySysClkLfclkPosedgeCatch() and CySysClkLfclkPosedgeRestore()
1747:Generated_Source\PSoC4/CyLib.c ****     *  functions expected to be called inside of a critical section.
1748:Generated_Source\PSoC4/CyLib.c ****     *
1749:Generated_Source\PSoC4/CyLib.c ****     *  Not applicable for the PSoC 4000 devices.
1750:Generated_Source\PSoC4/CyLib.c ****     *
1751:Generated_Source\PSoC4/CyLib.c ****     * Parameters:
1752:Generated_Source\PSoC4/CyLib.c ****     *  None
1753:Generated_Source\PSoC4/CyLib.c ****     *
1754:Generated_Source\PSoC4/CyLib.c ****     * Return:
1755:Generated_Source\PSoC4/CyLib.c ****     *  None
1756:Generated_Source\PSoC4/CyLib.c ****     *
1757:Generated_Source\PSoC4/CyLib.c ****     * Side Effects:
1758:Generated_Source\PSoC4/CyLib.c ****     *  This function will have no effect if the WDT is locked (CySysWdtLock() is
1759:Generated_Source\PSoC4/CyLib.c ****     *  called). Call CySysWdtUnlock() to unlock the WDT.
1760:Generated_Source\PSoC4/CyLib.c ****     *
1761:Generated_Source\PSoC4/CyLib.c ****     *******************************************************************************/
1762:Generated_Source\PSoC4/CyLib.c ****     static void CySysClkLfclkPosedgeRestore(void)
1763:Generated_Source\PSoC4/CyLib.c ****     {
 2151              		.loc 1 1763 0
 2152              		.cfi_startproc
 2153              		@ args = 0, pretend = 0, frame = 0
 2154              		@ frame_needed = 1, uses_anonymous_args = 0
 2155 0000 80B5     		push	{r7, lr}
 2156              		.cfi_def_cfa_offset 8
 2157              		.cfi_offset 7, -8
ARM GAS  C:\Users\jdrd3\AppData\Local\Temp\ccRHZt6s.s 			page 70


 2158              		.cfi_offset 14, -4
 2159 0002 00AF     		add	r7, sp, #0
 2160              		.cfi_def_cfa_register 7
1764:Generated_Source\PSoC4/CyLib.c ****         if (lfclkPosedgeWdtCounter0Enabled != 0u)
 2161              		.loc 1 1764 0
 2162 0004 0A4B     		ldr	r3, .L172
 2163 0006 1B68     		ldr	r3, [r3]
 2164 0008 002B     		cmp	r3, #0
 2165 000a 0ED0     		beq	.L171
1765:Generated_Source\PSoC4/CyLib.c ****         {
1766:Generated_Source\PSoC4/CyLib.c ****             /* Restore counter # 0 configuration and force it's shutdown */
1767:Generated_Source\PSoC4/CyLib.c ****             CY_SYS_WDT_CONTROL_REG &= (uint32)(~CY_SYS_WDT_COUNTER0_MASK);
 2166              		.loc 1 1767 0
 2167 000c 094B     		ldr	r3, .L172+4
 2168 000e 094A     		ldr	r2, .L172+4
 2169 0010 1268     		ldr	r2, [r2]
 2170 0012 0121     		movs	r1, #1
 2171 0014 8A43     		bics	r2, r1
 2172 0016 1A60     		str	r2, [r3]
1768:Generated_Source\PSoC4/CyLib.c ****             CySysWdtWriteMode(CY_SYS_WDT_COUNTER0, lfclkPosedgeWdtCounter0Mode);
 2173              		.loc 1 1768 0
 2174 0018 074B     		ldr	r3, .L172+8
 2175 001a 1B68     		ldr	r3, [r3]
 2176 001c 1900     		movs	r1, r3
 2177 001e 0020     		movs	r0, #0
 2178 0020 FFF7FEFF 		bl	CySysWdtWriteMode
1769:Generated_Source\PSoC4/CyLib.c ****             lfclkPosedgeWdtCounter0Enabled = 0u;
 2179              		.loc 1 1769 0
 2180 0024 024B     		ldr	r3, .L172
 2181 0026 0022     		movs	r2, #0
 2182 0028 1A60     		str	r2, [r3]
 2183              	.L171:
1770:Generated_Source\PSoC4/CyLib.c ****         }
1771:Generated_Source\PSoC4/CyLib.c ****     }
 2184              		.loc 1 1771 0
 2185 002a C046     		nop
 2186 002c BD46     		mov	sp, r7
 2187              		@ sp needed
 2188 002e 80BD     		pop	{r7, pc}
 2189              	.L173:
 2190              		.align	2
 2191              	.L172:
 2192 0030 00000000 		.word	lfclkPosedgeWdtCounter0Enabled
 2193 0034 10020B40 		.word	1074463248
 2194 0038 00000000 		.word	lfclkPosedgeWdtCounter0Mode
 2195              		.cfi_endproc
 2196              	.LFE29:
 2197              		.size	CySysClkLfclkPosedgeRestore, .-CySysClkLfclkPosedgeRestore
 2198              		.section	.text.CySysLvdEnable,"ax",%progbits
 2199              		.align	2
 2200              		.global	CySysLvdEnable
 2201              		.code	16
 2202              		.thumb_func
 2203              		.type	CySysLvdEnable, %function
 2204              	CySysLvdEnable:
 2205              	.LFB30:
1772:Generated_Source\PSoC4/CyLib.c **** 
ARM GAS  C:\Users\jdrd3\AppData\Local\Temp\ccRHZt6s.s 			page 71


1773:Generated_Source\PSoC4/CyLib.c **** #else
1774:Generated_Source\PSoC4/CyLib.c **** 
1775:Generated_Source\PSoC4/CyLib.c ****     /*******************************************************************************
1776:Generated_Source\PSoC4/CyLib.c ****     * Function Name: CySysWdtReadEnabledStatus
1777:Generated_Source\PSoC4/CyLib.c ****     ********************************************************************************
1778:Generated_Source\PSoC4/CyLib.c ****     *
1779:Generated_Source\PSoC4/CyLib.c ****     * Summary:
1780:Generated_Source\PSoC4/CyLib.c ****     *  Reads the enabled status WDT counter.
1781:Generated_Source\PSoC4/CyLib.c ****     *
1782:Generated_Source\PSoC4/CyLib.c ****     * Parameters:
1783:Generated_Source\PSoC4/CyLib.c ****     *  None
1784:Generated_Source\PSoC4/CyLib.c ****     *
1785:Generated_Source\PSoC4/CyLib.c ****     * Return:
1786:Generated_Source\PSoC4/CyLib.c ****     *  Status of WDT counter:
1787:Generated_Source\PSoC4/CyLib.c ****     *   0 - counter is disabled
1788:Generated_Source\PSoC4/CyLib.c ****     *   1 - counter is enabled
1789:Generated_Source\PSoC4/CyLib.c ****     *
1790:Generated_Source\PSoC4/CyLib.c ****     *******************************************************************************/
1791:Generated_Source\PSoC4/CyLib.c ****     uint32 CySysWdtReadEnabledStatus(void)
1792:Generated_Source\PSoC4/CyLib.c ****     {
1793:Generated_Source\PSoC4/CyLib.c ****         return ((CY_SYS_WDT_DISABLE_KEY_REG == CY_SYS_WDT_KEY) ? (uint32) 0u : (uint32) 1u);
1794:Generated_Source\PSoC4/CyLib.c ****     }
1795:Generated_Source\PSoC4/CyLib.c **** 
1796:Generated_Source\PSoC4/CyLib.c **** 
1797:Generated_Source\PSoC4/CyLib.c ****     /*******************************************************************************
1798:Generated_Source\PSoC4/CyLib.c ****     * Function Name: CySysWdtEnable
1799:Generated_Source\PSoC4/CyLib.c ****     ********************************************************************************
1800:Generated_Source\PSoC4/CyLib.c ****     *
1801:Generated_Source\PSoC4/CyLib.c ****     * Summary:
1802:Generated_Source\PSoC4/CyLib.c ****     *  Enables the watchdog timer reset generation. The CySysWdtClearInterrupt()
1803:Generated_Source\PSoC4/CyLib.c ****     *  feeds the watch dog. Two unserviced interrupts will lead to a system reset
1804:Generated_Source\PSoC4/CyLib.c ****     *  (i.e. at the third match).
1805:Generated_Source\PSoC4/CyLib.c ****     *
1806:Generated_Source\PSoC4/CyLib.c ****     * Parameters:
1807:Generated_Source\PSoC4/CyLib.c ****     *  None
1808:Generated_Source\PSoC4/CyLib.c ****     *
1809:Generated_Source\PSoC4/CyLib.c ****     * Return:
1810:Generated_Source\PSoC4/CyLib.c ****     *  None
1811:Generated_Source\PSoC4/CyLib.c ****     *
1812:Generated_Source\PSoC4/CyLib.c ****     * Side Effects:
1813:Generated_Source\PSoC4/CyLib.c ****     *  The ILO is enabled by hardware once WDT is started.
1814:Generated_Source\PSoC4/CyLib.c ****     *
1815:Generated_Source\PSoC4/CyLib.c ****     *******************************************************************************/
1816:Generated_Source\PSoC4/CyLib.c ****     void CySysWdtEnable(void)
1817:Generated_Source\PSoC4/CyLib.c ****     {
1818:Generated_Source\PSoC4/CyLib.c ****         CY_SYS_WDT_DISABLE_KEY_REG = 0u;
1819:Generated_Source\PSoC4/CyLib.c ****     }
1820:Generated_Source\PSoC4/CyLib.c **** 
1821:Generated_Source\PSoC4/CyLib.c **** 
1822:Generated_Source\PSoC4/CyLib.c ****     /*******************************************************************************
1823:Generated_Source\PSoC4/CyLib.c ****     * Function Name: CySysWdtDisable
1824:Generated_Source\PSoC4/CyLib.c ****     ********************************************************************************
1825:Generated_Source\PSoC4/CyLib.c ****     *
1826:Generated_Source\PSoC4/CyLib.c ****     * Summary:
1827:Generated_Source\PSoC4/CyLib.c ****     *  Disables the WDT reset generation.
1828:Generated_Source\PSoC4/CyLib.c ****     *
1829:Generated_Source\PSoC4/CyLib.c ****     * Parameters:
ARM GAS  C:\Users\jdrd3\AppData\Local\Temp\ccRHZt6s.s 			page 72


1830:Generated_Source\PSoC4/CyLib.c ****     *  None
1831:Generated_Source\PSoC4/CyLib.c ****     *
1832:Generated_Source\PSoC4/CyLib.c ****     * Return:
1833:Generated_Source\PSoC4/CyLib.c ****     *  None
1834:Generated_Source\PSoC4/CyLib.c ****     *
1835:Generated_Source\PSoC4/CyLib.c ****     *******************************************************************************/
1836:Generated_Source\PSoC4/CyLib.c ****     void CySysWdtDisable(void)
1837:Generated_Source\PSoC4/CyLib.c ****     {
1838:Generated_Source\PSoC4/CyLib.c ****         CY_SYS_WDT_DISABLE_KEY_REG = CY_SYS_WDT_KEY;
1839:Generated_Source\PSoC4/CyLib.c ****     }
1840:Generated_Source\PSoC4/CyLib.c **** 
1841:Generated_Source\PSoC4/CyLib.c **** 
1842:Generated_Source\PSoC4/CyLib.c ****     /*******************************************************************************
1843:Generated_Source\PSoC4/CyLib.c ****     * Function Name: CySysWdtWriteMatch
1844:Generated_Source\PSoC4/CyLib.c ****     ********************************************************************************
1845:Generated_Source\PSoC4/CyLib.c ****     *
1846:Generated_Source\PSoC4/CyLib.c ****     * Summary:
1847:Generated_Source\PSoC4/CyLib.c ****     *  Configures the WDT counter match comparison value.
1848:Generated_Source\PSoC4/CyLib.c ****     *
1849:Generated_Source\PSoC4/CyLib.c ****     * Parameters:
1850:Generated_Source\PSoC4/CyLib.c ****     *  match:
1851:Generated_Source\PSoC4/CyLib.c ****     *   Valid range [0-65535]. Value to be used to match against the counter.
1852:Generated_Source\PSoC4/CyLib.c ****     *
1853:Generated_Source\PSoC4/CyLib.c ****     * Return:
1854:Generated_Source\PSoC4/CyLib.c ****     *  None
1855:Generated_Source\PSoC4/CyLib.c ****     *
1856:Generated_Source\PSoC4/CyLib.c ****     *******************************************************************************/
1857:Generated_Source\PSoC4/CyLib.c ****     void CySysWdtWriteMatch(uint32 match)
1858:Generated_Source\PSoC4/CyLib.c ****     {
1859:Generated_Source\PSoC4/CyLib.c ****         CY_SYS_WDT_MATCH_REG = (CY_SYS_WDT_MATCH_REG & (uint32)(~ (uint32)CY_SYS_WDT_MATCH_MASK)) |
1860:Generated_Source\PSoC4/CyLib.c ****     }
1861:Generated_Source\PSoC4/CyLib.c **** 
1862:Generated_Source\PSoC4/CyLib.c **** 
1863:Generated_Source\PSoC4/CyLib.c ****     /*******************************************************************************
1864:Generated_Source\PSoC4/CyLib.c ****     * Function Name: CySysWdtReadMatch
1865:Generated_Source\PSoC4/CyLib.c ****     ********************************************************************************
1866:Generated_Source\PSoC4/CyLib.c ****     *
1867:Generated_Source\PSoC4/CyLib.c ****     * Summary:
1868:Generated_Source\PSoC4/CyLib.c ****     *  Reads the WDT counter match comparison value.
1869:Generated_Source\PSoC4/CyLib.c ****     *
1870:Generated_Source\PSoC4/CyLib.c ****     * Parameters:
1871:Generated_Source\PSoC4/CyLib.c ****     *  None
1872:Generated_Source\PSoC4/CyLib.c ****     *
1873:Generated_Source\PSoC4/CyLib.c ****     * Return:
1874:Generated_Source\PSoC4/CyLib.c ****     *  Counter match value.
1875:Generated_Source\PSoC4/CyLib.c ****     *
1876:Generated_Source\PSoC4/CyLib.c ****     *******************************************************************************/
1877:Generated_Source\PSoC4/CyLib.c ****     uint32 CySysWdtReadMatch(void)
1878:Generated_Source\PSoC4/CyLib.c ****     {
1879:Generated_Source\PSoC4/CyLib.c ****         return (CY_SYS_WDT_MATCH_REG & CY_SYS_WDT_MATCH_MASK);
1880:Generated_Source\PSoC4/CyLib.c ****     }
1881:Generated_Source\PSoC4/CyLib.c **** 
1882:Generated_Source\PSoC4/CyLib.c **** 
1883:Generated_Source\PSoC4/CyLib.c ****     /*******************************************************************************
1884:Generated_Source\PSoC4/CyLib.c ****     * Function Name: CySysWdtReadCount
1885:Generated_Source\PSoC4/CyLib.c ****     ********************************************************************************
1886:Generated_Source\PSoC4/CyLib.c ****     *
ARM GAS  C:\Users\jdrd3\AppData\Local\Temp\ccRHZt6s.s 			page 73


1887:Generated_Source\PSoC4/CyLib.c ****     * Summary:
1888:Generated_Source\PSoC4/CyLib.c ****     *  Reads the current WDT counter value.
1889:Generated_Source\PSoC4/CyLib.c ****     *
1890:Generated_Source\PSoC4/CyLib.c ****     * Parameters:
1891:Generated_Source\PSoC4/CyLib.c ****     *  None
1892:Generated_Source\PSoC4/CyLib.c ****     *
1893:Generated_Source\PSoC4/CyLib.c ****     * Return:
1894:Generated_Source\PSoC4/CyLib.c ****     *  Live counter value
1895:Generated_Source\PSoC4/CyLib.c ****     *
1896:Generated_Source\PSoC4/CyLib.c ****     *******************************************************************************/
1897:Generated_Source\PSoC4/CyLib.c ****     uint32 CySysWdtReadCount(void)
1898:Generated_Source\PSoC4/CyLib.c ****     {
1899:Generated_Source\PSoC4/CyLib.c ****         return ((uint32)CY_SYS_WDT_COUNTER_REG);
1900:Generated_Source\PSoC4/CyLib.c ****     }
1901:Generated_Source\PSoC4/CyLib.c **** 
1902:Generated_Source\PSoC4/CyLib.c **** 
1903:Generated_Source\PSoC4/CyLib.c ****     /*******************************************************************************
1904:Generated_Source\PSoC4/CyLib.c ****     * Function Name: CySysWdtWriteIgnoreBits
1905:Generated_Source\PSoC4/CyLib.c ****     ********************************************************************************
1906:Generated_Source\PSoC4/CyLib.c ****     *
1907:Generated_Source\PSoC4/CyLib.c ****     * Summary:
1908:Generated_Source\PSoC4/CyLib.c ****     *  Configures the number of the MSB bits of the watchdog timer that are not
1909:Generated_Source\PSoC4/CyLib.c ****     *  checked against the match.
1910:Generated_Source\PSoC4/CyLib.c ****     *
1911:Generated_Source\PSoC4/CyLib.c ****     * Parameters:
1912:Generated_Source\PSoC4/CyLib.c ****     *  bitsNum:
1913:Generated_Source\PSoC4/CyLib.c ****     *   Valid range [0-15]. Number of MSB bits.
1914:Generated_Source\PSoC4/CyLib.c ****     *
1915:Generated_Source\PSoC4/CyLib.c ****     * Return:
1916:Generated_Source\PSoC4/CyLib.c ****     *  None
1917:Generated_Source\PSoC4/CyLib.c ****     *
1918:Generated_Source\PSoC4/CyLib.c ****     * Side Effects:
1919:Generated_Source\PSoC4/CyLib.c ****     *  The value of bitsNum provides control over the time-to-reset of the watchdog
1920:Generated_Source\PSoC4/CyLib.c ****     *  (which happens after 3 successive matches).
1921:Generated_Source\PSoC4/CyLib.c ****     *
1922:Generated_Source\PSoC4/CyLib.c ****     *******************************************************************************/
1923:Generated_Source\PSoC4/CyLib.c ****     void CySysWdtWriteIgnoreBits(uint32 bitsNum)
1924:Generated_Source\PSoC4/CyLib.c ****     {
1925:Generated_Source\PSoC4/CyLib.c ****         bitsNum = ((uint32)(bitsNum << CY_SYS_WDT_IGNORE_BITS_SHIFT) & CY_SYS_WDT_IGNORE_BITS_MASK)
1926:Generated_Source\PSoC4/CyLib.c ****         CY_SYS_WDT_MATCH_REG = (CY_SYS_WDT_MATCH_REG & (uint32)(~CY_SYS_WDT_IGNORE_BITS_MASK)) | bi
1927:Generated_Source\PSoC4/CyLib.c ****     }
1928:Generated_Source\PSoC4/CyLib.c **** 
1929:Generated_Source\PSoC4/CyLib.c **** 
1930:Generated_Source\PSoC4/CyLib.c ****     /*******************************************************************************
1931:Generated_Source\PSoC4/CyLib.c ****     * Function Name: CySysWdtReadIgnoreBits
1932:Generated_Source\PSoC4/CyLib.c ****     ********************************************************************************
1933:Generated_Source\PSoC4/CyLib.c ****     *
1934:Generated_Source\PSoC4/CyLib.c ****     * Summary:
1935:Generated_Source\PSoC4/CyLib.c ****     *  Reads the number of the  MSB bits of the watchdog timer that are not
1936:Generated_Source\PSoC4/CyLib.c ****     *  checked against the match.
1937:Generated_Source\PSoC4/CyLib.c ****     *
1938:Generated_Source\PSoC4/CyLib.c ****     * Parameters:
1939:Generated_Source\PSoC4/CyLib.c ****     *  None
1940:Generated_Source\PSoC4/CyLib.c ****     *
1941:Generated_Source\PSoC4/CyLib.c ****     * Return:
1942:Generated_Source\PSoC4/CyLib.c ****     *  Number of MSB bits.
1943:Generated_Source\PSoC4/CyLib.c ****     *
ARM GAS  C:\Users\jdrd3\AppData\Local\Temp\ccRHZt6s.s 			page 74


1944:Generated_Source\PSoC4/CyLib.c ****     *******************************************************************************/
1945:Generated_Source\PSoC4/CyLib.c ****     uint32 CySysWdtReadIgnoreBits(void)
1946:Generated_Source\PSoC4/CyLib.c ****     {
1947:Generated_Source\PSoC4/CyLib.c ****         return((uint32)((CY_SYS_WDT_MATCH_REG & CY_SYS_WDT_IGNORE_BITS_MASK) >> CY_SYS_WDT_IGNORE_B
1948:Generated_Source\PSoC4/CyLib.c ****     }
1949:Generated_Source\PSoC4/CyLib.c **** 
1950:Generated_Source\PSoC4/CyLib.c **** 
1951:Generated_Source\PSoC4/CyLib.c ****     /*******************************************************************************
1952:Generated_Source\PSoC4/CyLib.c ****     * Function Name: CySysWdtClearInterrupt
1953:Generated_Source\PSoC4/CyLib.c ****     ********************************************************************************
1954:Generated_Source\PSoC4/CyLib.c ****     *
1955:Generated_Source\PSoC4/CyLib.c ****     * Summary:
1956:Generated_Source\PSoC4/CyLib.c ****     *  Feeds the watch dog. Cleans the WDT match flag, which is set every time the
1957:Generated_Source\PSoC4/CyLib.c ****     *  WDT counter reaches a WDT match value.  Two unserviced interrupts will lead
1958:Generated_Source\PSoC4/CyLib.c ****     *  to a system reset (i.e. at the third match).
1959:Generated_Source\PSoC4/CyLib.c ****     *
1960:Generated_Source\PSoC4/CyLib.c ****     * Parameters:
1961:Generated_Source\PSoC4/CyLib.c ****     *  None
1962:Generated_Source\PSoC4/CyLib.c ****     *
1963:Generated_Source\PSoC4/CyLib.c ****     * Return:
1964:Generated_Source\PSoC4/CyLib.c ****     *  None
1965:Generated_Source\PSoC4/CyLib.c ****     *
1966:Generated_Source\PSoC4/CyLib.c ****     *******************************************************************************/
1967:Generated_Source\PSoC4/CyLib.c ****     void CySysWdtClearInterrupt(void)
1968:Generated_Source\PSoC4/CyLib.c ****     {
1969:Generated_Source\PSoC4/CyLib.c ****         CY_SYS_SRSS_INTR_REG |= CY_SYS_WDT_LOWER_BIT_MASK;
1970:Generated_Source\PSoC4/CyLib.c ****     }
1971:Generated_Source\PSoC4/CyLib.c **** 
1972:Generated_Source\PSoC4/CyLib.c **** 
1973:Generated_Source\PSoC4/CyLib.c ****     /*******************************************************************************
1974:Generated_Source\PSoC4/CyLib.c ****     * Function Name: CySysWdtMaskInterrupt
1975:Generated_Source\PSoC4/CyLib.c ****     ********************************************************************************
1976:Generated_Source\PSoC4/CyLib.c ****     *
1977:Generated_Source\PSoC4/CyLib.c ****     * Summary:
1978:Generated_Source\PSoC4/CyLib.c ****     *  After masking interrupts from the WDT, they are not passed to the CPU.
1979:Generated_Source\PSoC4/CyLib.c ****     *  This function does not disable the WDT reset generation.
1980:Generated_Source\PSoC4/CyLib.c ****     *
1981:Generated_Source\PSoC4/CyLib.c ****     * Parameters:
1982:Generated_Source\PSoC4/CyLib.c ****     *  None
1983:Generated_Source\PSoC4/CyLib.c ****     *
1984:Generated_Source\PSoC4/CyLib.c ****     * Return:
1985:Generated_Source\PSoC4/CyLib.c ****     *  None
1986:Generated_Source\PSoC4/CyLib.c ****     *
1987:Generated_Source\PSoC4/CyLib.c ****     *******************************************************************************/
1988:Generated_Source\PSoC4/CyLib.c ****     void CySysWdtMaskInterrupt(void)
1989:Generated_Source\PSoC4/CyLib.c ****     {
1990:Generated_Source\PSoC4/CyLib.c ****         CY_SYS_SRSS_INTR_MASK_REG &= (uint32)(~ (uint32)CY_SYS_WDT_LOWER_BIT_MASK);
1991:Generated_Source\PSoC4/CyLib.c ****     }
1992:Generated_Source\PSoC4/CyLib.c **** 
1993:Generated_Source\PSoC4/CyLib.c **** 
1994:Generated_Source\PSoC4/CyLib.c ****     /*******************************************************************************
1995:Generated_Source\PSoC4/CyLib.c ****     * Function Name: CySysWdtUnmaskInterrupt
1996:Generated_Source\PSoC4/CyLib.c ****     ********************************************************************************
1997:Generated_Source\PSoC4/CyLib.c ****     *
1998:Generated_Source\PSoC4/CyLib.c ****     * Summary:
1999:Generated_Source\PSoC4/CyLib.c ****     *  Unmasks WDT interrupts.
2000:Generated_Source\PSoC4/CyLib.c ****     *
ARM GAS  C:\Users\jdrd3\AppData\Local\Temp\ccRHZt6s.s 			page 75


2001:Generated_Source\PSoC4/CyLib.c ****     * Parameters:
2002:Generated_Source\PSoC4/CyLib.c ****     *  None
2003:Generated_Source\PSoC4/CyLib.c ****     *
2004:Generated_Source\PSoC4/CyLib.c ****     * Return:
2005:Generated_Source\PSoC4/CyLib.c ****     *  None
2006:Generated_Source\PSoC4/CyLib.c ****     *
2007:Generated_Source\PSoC4/CyLib.c ****     *******************************************************************************/
2008:Generated_Source\PSoC4/CyLib.c ****     void CySysWdtUnmaskInterrupt(void)
2009:Generated_Source\PSoC4/CyLib.c ****     {
2010:Generated_Source\PSoC4/CyLib.c ****         CY_SYS_SRSS_INTR_MASK_REG |= CY_SYS_WDT_LOWER_BIT_MASK;
2011:Generated_Source\PSoC4/CyLib.c ****     }
2012:Generated_Source\PSoC4/CyLib.c **** 
2013:Generated_Source\PSoC4/CyLib.c **** #endif /* (CY_IP_SRSSV2) */
2014:Generated_Source\PSoC4/CyLib.c **** 
2015:Generated_Source\PSoC4/CyLib.c **** 
2016:Generated_Source\PSoC4/CyLib.c **** #if(CY_IP_SRSSV2)
2017:Generated_Source\PSoC4/CyLib.c **** 
2018:Generated_Source\PSoC4/CyLib.c ****     /*******************************************************************************
2019:Generated_Source\PSoC4/CyLib.c ****     * Function Name: CySysLvdEnable
2020:Generated_Source\PSoC4/CyLib.c ****     ********************************************************************************
2021:Generated_Source\PSoC4/CyLib.c ****     *
2022:Generated_Source\PSoC4/CyLib.c ****     * Summary:
2023:Generated_Source\PSoC4/CyLib.c ****     *  Enables the output of the low-voltage monitor when Vddd is at or below the
2024:Generated_Source\PSoC4/CyLib.c ****     *  trip point, configures the device to generate an interrupt, and sets the voltage
2025:Generated_Source\PSoC4/CyLib.c ****     *  trip level.
2026:Generated_Source\PSoC4/CyLib.c ****     *
2027:Generated_Source\PSoC4/CyLib.c ****     * Parameters:
2028:Generated_Source\PSoC4/CyLib.c ****     *  threshold: Threshold selection for Low Voltage Detect circuit.
2029:Generated_Source\PSoC4/CyLib.c ****     *  Threshold variation is +/- 2.5% from these typical voltage choices.
2030:Generated_Source\PSoC4/CyLib.c ****     *         Define                     Voltage threshold
2031:Generated_Source\PSoC4/CyLib.c ****     *    CY_LVD_THRESHOLD_1_75_V       1.7500 V
2032:Generated_Source\PSoC4/CyLib.c ****     *    CY_LVD_THRESHOLD_1_80_V       1.8000 V
2033:Generated_Source\PSoC4/CyLib.c ****     *    CY_LVD_THRESHOLD_1_90_V       1.9000 V
2034:Generated_Source\PSoC4/CyLib.c ****     *    CY_LVD_THRESHOLD_2_00_V       2.0000 V
2035:Generated_Source\PSoC4/CyLib.c ****     *    CY_LVD_THRESHOLD_2_10_V       2.1000 V
2036:Generated_Source\PSoC4/CyLib.c ****     *    CY_LVD_THRESHOLD_2_20_V       2.2000 V
2037:Generated_Source\PSoC4/CyLib.c ****     *    CY_LVD_THRESHOLD_2_30_V       2.3000 V
2038:Generated_Source\PSoC4/CyLib.c ****     *    CY_LVD_THRESHOLD_2_40_V       2.4000 V
2039:Generated_Source\PSoC4/CyLib.c ****     *    CY_LVD_THRESHOLD_2_50_V       2.5000 V
2040:Generated_Source\PSoC4/CyLib.c ****     *    CY_LVD_THRESHOLD_2_60_V       2.6000 V
2041:Generated_Source\PSoC4/CyLib.c ****     *    CY_LVD_THRESHOLD_2_70_V       2.7000 V
2042:Generated_Source\PSoC4/CyLib.c ****     *    CY_LVD_THRESHOLD_2_80_V       2.8000 V
2043:Generated_Source\PSoC4/CyLib.c ****     *    CY_LVD_THRESHOLD_2_90_V       2.9000 V
2044:Generated_Source\PSoC4/CyLib.c ****     *    CY_LVD_THRESHOLD_3_00_V       3.0000 V
2045:Generated_Source\PSoC4/CyLib.c ****     *    CY_LVD_THRESHOLD_3_20_V       3.2000 V
2046:Generated_Source\PSoC4/CyLib.c ****     *    CY_LVD_THRESHOLD_4_50_V       4.5000 V
2047:Generated_Source\PSoC4/CyLib.c ****     *
2048:Generated_Source\PSoC4/CyLib.c ****     * Return:
2049:Generated_Source\PSoC4/CyLib.c ****     *  None
2050:Generated_Source\PSoC4/CyLib.c ****     *
2051:Generated_Source\PSoC4/CyLib.c ****     *******************************************************************************/
2052:Generated_Source\PSoC4/CyLib.c ****     void CySysLvdEnable(uint32 threshold)
2053:Generated_Source\PSoC4/CyLib.c ****     {
 2206              		.loc 1 2053 0
 2207              		.cfi_startproc
 2208              		@ args = 0, pretend = 0, frame = 8
 2209              		@ frame_needed = 1, uses_anonymous_args = 0
ARM GAS  C:\Users\jdrd3\AppData\Local\Temp\ccRHZt6s.s 			page 76


 2210 0000 80B5     		push	{r7, lr}
 2211              		.cfi_def_cfa_offset 8
 2212              		.cfi_offset 7, -8
 2213              		.cfi_offset 14, -4
 2214 0002 82B0     		sub	sp, sp, #8
 2215              		.cfi_def_cfa_offset 16
 2216 0004 00AF     		add	r7, sp, #0
 2217              		.cfi_def_cfa_register 7
 2218 0006 7860     		str	r0, [r7, #4]
2054:Generated_Source\PSoC4/CyLib.c ****         /* Set threshold */
2055:Generated_Source\PSoC4/CyLib.c ****         CY_LVD_PWR_VMON_CONFIG_REG = (CY_LVD_PWR_VMON_CONFIG_REG & ~CY_LVD_PWR_VMON_CONFIG_LVD_SEL_
 2219              		.loc 1 2055 0
 2220 0008 0D4B     		ldr	r3, .L175
 2221 000a 0D4A     		ldr	r2, .L175
 2222 000c 1268     		ldr	r2, [r2]
 2223 000e 1E21     		movs	r1, #30
 2224 0010 8A43     		bics	r2, r1
 2225 0012 1100     		movs	r1, r2
2056:Generated_Source\PSoC4/CyLib.c ****                 ((threshold << CY_LVD_PWR_VMON_CONFIG_LVD_SEL_SHIFT) & CY_LVD_PWR_VMON_CONFIG_LVD_S
 2226              		.loc 1 2056 0
 2227 0014 7A68     		ldr	r2, [r7, #4]
 2228 0016 5200     		lsls	r2, r2, #1
 2229 0018 1E20     		movs	r0, #30
 2230 001a 0240     		ands	r2, r0
2055:Generated_Source\PSoC4/CyLib.c ****                 ((threshold << CY_LVD_PWR_VMON_CONFIG_LVD_SEL_SHIFT) & CY_LVD_PWR_VMON_CONFIG_LVD_S
 2231              		.loc 1 2055 0
 2232 001c 0A43     		orrs	r2, r1
 2233 001e 1A60     		str	r2, [r3]
2057:Generated_Source\PSoC4/CyLib.c **** 
2058:Generated_Source\PSoC4/CyLib.c ****         CY_LVD_PWR_VMON_CONFIG_REG |= CY_LVD_PWR_VMON_CONFIG_LVD_EN;
 2234              		.loc 1 2058 0
 2235 0020 074B     		ldr	r3, .L175
 2236 0022 074A     		ldr	r2, .L175
 2237 0024 1268     		ldr	r2, [r2]
 2238 0026 0121     		movs	r1, #1
 2239 0028 0A43     		orrs	r2, r1
 2240 002a 1A60     		str	r2, [r3]
2059:Generated_Source\PSoC4/CyLib.c ****         CY_LVD_PWR_INTR_MASK_REG   |= CY_LVD_PROPAGATE_INT_TO_CPU;
 2241              		.loc 1 2059 0
 2242 002c 054B     		ldr	r3, .L175+4
 2243 002e 054A     		ldr	r2, .L175+4
 2244 0030 1268     		ldr	r2, [r2]
 2245 0032 0221     		movs	r1, #2
 2246 0034 0A43     		orrs	r2, r1
 2247 0036 1A60     		str	r2, [r3]
2060:Generated_Source\PSoC4/CyLib.c ****     }
 2248              		.loc 1 2060 0
 2249 0038 C046     		nop
 2250 003a BD46     		mov	sp, r7
 2251 003c 02B0     		add	sp, sp, #8
 2252              		@ sp needed
 2253 003e 80BD     		pop	{r7, pc}
 2254              	.L176:
 2255              		.align	2
 2256              	.L175:
 2257 0040 18000B40 		.word	1074462744
 2258 0044 08000B40 		.word	1074462728
ARM GAS  C:\Users\jdrd3\AppData\Local\Temp\ccRHZt6s.s 			page 77


 2259              		.cfi_endproc
 2260              	.LFE30:
 2261              		.size	CySysLvdEnable, .-CySysLvdEnable
 2262              		.section	.text.CySysLvdDisable,"ax",%progbits
 2263              		.align	2
 2264              		.global	CySysLvdDisable
 2265              		.code	16
 2266              		.thumb_func
 2267              		.type	CySysLvdDisable, %function
 2268              	CySysLvdDisable:
 2269              	.LFB31:
2061:Generated_Source\PSoC4/CyLib.c **** 
2062:Generated_Source\PSoC4/CyLib.c **** 
2063:Generated_Source\PSoC4/CyLib.c ****     /*******************************************************************************
2064:Generated_Source\PSoC4/CyLib.c ****     * Function Name: CySysLvdDisable
2065:Generated_Source\PSoC4/CyLib.c ****     ********************************************************************************
2066:Generated_Source\PSoC4/CyLib.c ****     *
2067:Generated_Source\PSoC4/CyLib.c ****     * Summary:
2068:Generated_Source\PSoC4/CyLib.c ****     *  Disables the low voltage detection. A low voltage interrupt is disabled.
2069:Generated_Source\PSoC4/CyLib.c ****     *
2070:Generated_Source\PSoC4/CyLib.c ****     * Parameters:
2071:Generated_Source\PSoC4/CyLib.c ****     *  None
