ARM GAS  C:\Users\jdrd3\AppData\Local\Temp\cckUuWzp.s 			page 1


   1              		.syntax unified
   2              		.cpu cortex-m0
   3              		.fpu softvfp
   4              		.eabi_attribute 20, 1
   5              		.eabi_attribute 21, 1
   6              		.eabi_attribute 23, 3
   7              		.eabi_attribute 24, 1
   8              		.eabi_attribute 25, 1
   9              		.eabi_attribute 26, 1
  10              		.eabi_attribute 30, 6
  11              		.eabi_attribute 34, 0
  12              		.eabi_attribute 18, 4
  13              		.thumb
  14              		.syntax unified
  15              		.file	"I2COLED_PM.c"
  16              		.text
  17              	.Ltext0:
  18              		.cfi_sections	.debug_frame
  19              		.global	I2COLED_backup
  20              		.bss
  21              		.align	2
  22              		.type	I2COLED_backup, %object
  23              		.size	I2COLED_backup, 1
  24              	I2COLED_backup:
  25 0000 00       		.space	1
  26              		.section	.text.I2COLED_Sleep,"ax",%progbits
  27              		.align	2
  28              		.global	I2COLED_Sleep
  29              		.code	16
  30              		.thumb_func
  31              		.type	I2COLED_Sleep, %function
  32              	I2COLED_Sleep:
  33              	.LFB0:
  34              		.file 1 "Generated_Source\\PSoC4\\I2COLED_PM.c"
   1:Generated_Source\PSoC4/I2COLED_PM.c **** /*******************************************************************************
   2:Generated_Source\PSoC4/I2COLED_PM.c **** * File Name: I2COLED_PM.c
   3:Generated_Source\PSoC4/I2COLED_PM.c **** * Version 2.0
   4:Generated_Source\PSoC4/I2COLED_PM.c **** *
   5:Generated_Source\PSoC4/I2COLED_PM.c **** * Description:
   6:Generated_Source\PSoC4/I2COLED_PM.c **** *  This file provides the source code to the Power Management support for
   7:Generated_Source\PSoC4/I2COLED_PM.c **** *  the SCB Component.
   8:Generated_Source\PSoC4/I2COLED_PM.c **** *
   9:Generated_Source\PSoC4/I2COLED_PM.c **** * Note:
  10:Generated_Source\PSoC4/I2COLED_PM.c **** *
  11:Generated_Source\PSoC4/I2COLED_PM.c **** ********************************************************************************
  12:Generated_Source\PSoC4/I2COLED_PM.c **** * Copyright 2013-2014, Cypress Semiconductor Corporation.  All rights reserved.
  13:Generated_Source\PSoC4/I2COLED_PM.c **** * You may use this file only in accordance with the license, terms, conditions,
  14:Generated_Source\PSoC4/I2COLED_PM.c **** * disclaimers, and limitations in the end user license agreement accompanying
  15:Generated_Source\PSoC4/I2COLED_PM.c **** * the software package with which this file was provided.
  16:Generated_Source\PSoC4/I2COLED_PM.c **** *******************************************************************************/
  17:Generated_Source\PSoC4/I2COLED_PM.c **** 
  18:Generated_Source\PSoC4/I2COLED_PM.c **** #include "I2COLED.h"
  19:Generated_Source\PSoC4/I2COLED_PM.c **** #include "I2COLED_PVT.h"
  20:Generated_Source\PSoC4/I2COLED_PM.c **** 
  21:Generated_Source\PSoC4/I2COLED_PM.c **** #if(I2COLED_SCB_MODE_I2C_INC)
  22:Generated_Source\PSoC4/I2COLED_PM.c ****     #include "I2COLED_I2C_PVT.h"
  23:Generated_Source\PSoC4/I2COLED_PM.c **** #endif /* (I2COLED_SCB_MODE_I2C_INC) */
ARM GAS  C:\Users\jdrd3\AppData\Local\Temp\cckUuWzp.s 			page 2


  24:Generated_Source\PSoC4/I2COLED_PM.c **** 
  25:Generated_Source\PSoC4/I2COLED_PM.c **** #if(I2COLED_SCB_MODE_EZI2C_INC)
  26:Generated_Source\PSoC4/I2COLED_PM.c ****     #include "I2COLED_EZI2C_PVT.h"
  27:Generated_Source\PSoC4/I2COLED_PM.c **** #endif /* (I2COLED_SCB_MODE_EZI2C_INC) */
  28:Generated_Source\PSoC4/I2COLED_PM.c **** 
  29:Generated_Source\PSoC4/I2COLED_PM.c **** #if(I2COLED_SCB_MODE_SPI_INC || I2COLED_SCB_MODE_UART_INC)
  30:Generated_Source\PSoC4/I2COLED_PM.c ****     #include "I2COLED_SPI_UART_PVT.h"
  31:Generated_Source\PSoC4/I2COLED_PM.c **** #endif /* (I2COLED_SCB_MODE_SPI_INC || I2COLED_SCB_MODE_UART_INC) */
  32:Generated_Source\PSoC4/I2COLED_PM.c **** 
  33:Generated_Source\PSoC4/I2COLED_PM.c **** 
  34:Generated_Source\PSoC4/I2COLED_PM.c **** /***************************************
  35:Generated_Source\PSoC4/I2COLED_PM.c **** *   Backup Structure declaration
  36:Generated_Source\PSoC4/I2COLED_PM.c **** ***************************************/
  37:Generated_Source\PSoC4/I2COLED_PM.c **** 
  38:Generated_Source\PSoC4/I2COLED_PM.c **** #if(I2COLED_SCB_MODE_UNCONFIG_CONST_CFG || \
  39:Generated_Source\PSoC4/I2COLED_PM.c ****    (I2COLED_SCB_MODE_I2C_CONST_CFG   && (!I2COLED_I2C_WAKE_ENABLE_CONST))   || \
  40:Generated_Source\PSoC4/I2COLED_PM.c ****    (I2COLED_SCB_MODE_EZI2C_CONST_CFG && (!I2COLED_EZI2C_WAKE_ENABLE_CONST)) || \
  41:Generated_Source\PSoC4/I2COLED_PM.c ****    (I2COLED_SCB_MODE_SPI_CONST_CFG   && (!I2COLED_SPI_WAKE_ENABLE_CONST))   || \
  42:Generated_Source\PSoC4/I2COLED_PM.c ****    (I2COLED_SCB_MODE_UART_CONST_CFG  && (!I2COLED_UART_WAKE_ENABLE_CONST)))
  43:Generated_Source\PSoC4/I2COLED_PM.c **** 
  44:Generated_Source\PSoC4/I2COLED_PM.c ****     I2COLED_BACKUP_STRUCT I2COLED_backup =
  45:Generated_Source\PSoC4/I2COLED_PM.c ****     {
  46:Generated_Source\PSoC4/I2COLED_PM.c ****         0u, /* enableState */
  47:Generated_Source\PSoC4/I2COLED_PM.c ****     };
  48:Generated_Source\PSoC4/I2COLED_PM.c **** #endif
  49:Generated_Source\PSoC4/I2COLED_PM.c **** 
  50:Generated_Source\PSoC4/I2COLED_PM.c **** 
  51:Generated_Source\PSoC4/I2COLED_PM.c **** /*******************************************************************************
  52:Generated_Source\PSoC4/I2COLED_PM.c **** * Function Name: I2COLED_Sleep
  53:Generated_Source\PSoC4/I2COLED_PM.c **** ********************************************************************************
  54:Generated_Source\PSoC4/I2COLED_PM.c **** *
  55:Generated_Source\PSoC4/I2COLED_PM.c **** * Summary:
  56:Generated_Source\PSoC4/I2COLED_PM.c **** *  Prepares the component to enter Deep Sleep.
  57:Generated_Source\PSoC4/I2COLED_PM.c **** *  The "Enable wakeup from Sleep Mode" selection has an influence on
  58:Generated_Source\PSoC4/I2COLED_PM.c **** *  this function implementation.
  59:Generated_Source\PSoC4/I2COLED_PM.c **** *
  60:Generated_Source\PSoC4/I2COLED_PM.c **** * Parameters:
  61:Generated_Source\PSoC4/I2COLED_PM.c **** *  None
  62:Generated_Source\PSoC4/I2COLED_PM.c **** *
  63:Generated_Source\PSoC4/I2COLED_PM.c **** * Return:
  64:Generated_Source\PSoC4/I2COLED_PM.c **** *  None
  65:Generated_Source\PSoC4/I2COLED_PM.c **** *
  66:Generated_Source\PSoC4/I2COLED_PM.c **** *******************************************************************************/
  67:Generated_Source\PSoC4/I2COLED_PM.c **** void I2COLED_Sleep(void)
  68:Generated_Source\PSoC4/I2COLED_PM.c **** {
  35              		.loc 1 68 0
  36              		.cfi_startproc
  37              		@ args = 0, pretend = 0, frame = 0
  38              		@ frame_needed = 1, uses_anonymous_args = 0
  39 0000 80B5     		push	{r7, lr}
  40              		.cfi_def_cfa_offset 8
  41              		.cfi_offset 7, -8
  42              		.cfi_offset 14, -4
  43 0002 00AF     		add	r7, sp, #0
  44              		.cfi_def_cfa_register 7
  69:Generated_Source\PSoC4/I2COLED_PM.c **** #if(I2COLED_SCB_MODE_UNCONFIG_CONST_CFG)
  70:Generated_Source\PSoC4/I2COLED_PM.c **** 
ARM GAS  C:\Users\jdrd3\AppData\Local\Temp\cckUuWzp.s 			page 3


  71:Generated_Source\PSoC4/I2COLED_PM.c ****     if(I2COLED_SCB_WAKE_ENABLE_CHECK)
  72:Generated_Source\PSoC4/I2COLED_PM.c ****     {
  73:Generated_Source\PSoC4/I2COLED_PM.c ****         if(I2COLED_SCB_MODE_I2C_RUNTM_CFG)
  74:Generated_Source\PSoC4/I2COLED_PM.c ****         {
  75:Generated_Source\PSoC4/I2COLED_PM.c ****             I2COLED_I2CSaveConfig();
  76:Generated_Source\PSoC4/I2COLED_PM.c ****         }
  77:Generated_Source\PSoC4/I2COLED_PM.c ****         else if(I2COLED_SCB_MODE_EZI2C_RUNTM_CFG)
  78:Generated_Source\PSoC4/I2COLED_PM.c ****         {
  79:Generated_Source\PSoC4/I2COLED_PM.c ****             I2COLED_EzI2CSaveConfig();
  80:Generated_Source\PSoC4/I2COLED_PM.c ****         }
  81:Generated_Source\PSoC4/I2COLED_PM.c ****     #if(!I2COLED_CY_SCBIP_V1)
  82:Generated_Source\PSoC4/I2COLED_PM.c ****         else if(I2COLED_SCB_MODE_SPI_RUNTM_CFG)
  83:Generated_Source\PSoC4/I2COLED_PM.c ****         {
  84:Generated_Source\PSoC4/I2COLED_PM.c ****             I2COLED_SpiSaveConfig();
  85:Generated_Source\PSoC4/I2COLED_PM.c ****         }
  86:Generated_Source\PSoC4/I2COLED_PM.c ****         else if(I2COLED_SCB_MODE_UART_RUNTM_CFG)
  87:Generated_Source\PSoC4/I2COLED_PM.c ****         {
  88:Generated_Source\PSoC4/I2COLED_PM.c ****             I2COLED_UartSaveConfig();
  89:Generated_Source\PSoC4/I2COLED_PM.c ****         }
  90:Generated_Source\PSoC4/I2COLED_PM.c ****     #endif /* (!I2COLED_CY_SCBIP_V1) */
  91:Generated_Source\PSoC4/I2COLED_PM.c ****         else
  92:Generated_Source\PSoC4/I2COLED_PM.c ****         {
  93:Generated_Source\PSoC4/I2COLED_PM.c ****             /* Unknown mode */
  94:Generated_Source\PSoC4/I2COLED_PM.c ****         }
  95:Generated_Source\PSoC4/I2COLED_PM.c ****     }
  96:Generated_Source\PSoC4/I2COLED_PM.c ****     else
  97:Generated_Source\PSoC4/I2COLED_PM.c ****     {
  98:Generated_Source\PSoC4/I2COLED_PM.c ****         I2COLED_backup.enableState = (uint8) I2COLED_GET_CTRL_ENABLED;
  99:Generated_Source\PSoC4/I2COLED_PM.c **** 
 100:Generated_Source\PSoC4/I2COLED_PM.c ****         if(0u != I2COLED_backup.enableState)
 101:Generated_Source\PSoC4/I2COLED_PM.c ****         {
 102:Generated_Source\PSoC4/I2COLED_PM.c ****             I2COLED_Stop();
 103:Generated_Source\PSoC4/I2COLED_PM.c ****         }
 104:Generated_Source\PSoC4/I2COLED_PM.c ****     }
 105:Generated_Source\PSoC4/I2COLED_PM.c **** 
 106:Generated_Source\PSoC4/I2COLED_PM.c **** #else
 107:Generated_Source\PSoC4/I2COLED_PM.c **** 
 108:Generated_Source\PSoC4/I2COLED_PM.c ****     #if (I2COLED_SCB_MODE_I2C_CONST_CFG && I2COLED_I2C_WAKE_ENABLE_CONST)
 109:Generated_Source\PSoC4/I2COLED_PM.c ****         I2COLED_I2CSaveConfig();
 110:Generated_Source\PSoC4/I2COLED_PM.c **** 
 111:Generated_Source\PSoC4/I2COLED_PM.c ****     #elif (I2COLED_SCB_MODE_EZI2C_CONST_CFG && I2COLED_EZI2C_WAKE_ENABLE_CONST)
 112:Generated_Source\PSoC4/I2COLED_PM.c ****         I2COLED_EzI2CSaveConfig();
 113:Generated_Source\PSoC4/I2COLED_PM.c **** 
 114:Generated_Source\PSoC4/I2COLED_PM.c ****     #elif (I2COLED_SCB_MODE_SPI_CONST_CFG && I2COLED_SPI_WAKE_ENABLE_CONST)
 115:Generated_Source\PSoC4/I2COLED_PM.c ****         I2COLED_SpiSaveConfig();
 116:Generated_Source\PSoC4/I2COLED_PM.c **** 
 117:Generated_Source\PSoC4/I2COLED_PM.c ****     #elif (I2COLED_SCB_MODE_UART_CONST_CFG && I2COLED_UART_WAKE_ENABLE_CONST)
 118:Generated_Source\PSoC4/I2COLED_PM.c ****         I2COLED_UartSaveConfig();
 119:Generated_Source\PSoC4/I2COLED_PM.c **** 
 120:Generated_Source\PSoC4/I2COLED_PM.c ****     #else
 121:Generated_Source\PSoC4/I2COLED_PM.c **** 
 122:Generated_Source\PSoC4/I2COLED_PM.c ****         I2COLED_backup.enableState = (uint8) I2COLED_GET_CTRL_ENABLED;
  45              		.loc 1 122 0
  46 0004 074B     		ldr	r3, .L4
  47 0006 1B68     		ldr	r3, [r3]
  48 0008 DB0F     		lsrs	r3, r3, #31
  49 000a DBB2     		uxtb	r3, r3
ARM GAS  C:\Users\jdrd3\AppData\Local\Temp\cckUuWzp.s 			page 4


  50 000c 1A00     		movs	r2, r3
  51 000e 064B     		ldr	r3, .L4+4
  52 0010 1A70     		strb	r2, [r3]
 123:Generated_Source\PSoC4/I2COLED_PM.c **** 
 124:Generated_Source\PSoC4/I2COLED_PM.c ****         if(0u != I2COLED_backup.enableState)
  53              		.loc 1 124 0
  54 0012 054B     		ldr	r3, .L4+4
  55 0014 1B78     		ldrb	r3, [r3]
  56 0016 002B     		cmp	r3, #0
  57 0018 01D0     		beq	.L3
 125:Generated_Source\PSoC4/I2COLED_PM.c ****         {
 126:Generated_Source\PSoC4/I2COLED_PM.c ****             I2COLED_Stop();
  58              		.loc 1 126 0
  59 001a FFF7FEFF 		bl	I2COLED_Stop
  60              	.L3:
 127:Generated_Source\PSoC4/I2COLED_PM.c ****         }
 128:Generated_Source\PSoC4/I2COLED_PM.c **** 
 129:Generated_Source\PSoC4/I2COLED_PM.c ****     #endif /* defined (I2COLED_SCB_MODE_I2C_CONST_CFG) && (I2COLED_I2C_WAKE_ENABLE_CONST) */
 130:Generated_Source\PSoC4/I2COLED_PM.c **** 
 131:Generated_Source\PSoC4/I2COLED_PM.c **** #endif /* (I2COLED_SCB_MODE_UNCONFIG_CONST_CFG) */
 132:Generated_Source\PSoC4/I2COLED_PM.c **** }
  61              		.loc 1 132 0
  62 001e C046     		nop
  63 0020 BD46     		mov	sp, r7
  64              		@ sp needed
  65 0022 80BD     		pop	{r7, pc}
  66              	.L5:
  67              		.align	2
  68              	.L4:
  69 0024 00000740 		.word	1074200576
  70 0028 00000000 		.word	I2COLED_backup
  71              		.cfi_endproc
  72              	.LFE0:
  73              		.size	I2COLED_Sleep, .-I2COLED_Sleep
  74              		.section	.text.I2COLED_Wakeup,"ax",%progbits
  75              		.align	2
  76              		.global	I2COLED_Wakeup
  77              		.code	16
  78              		.thumb_func
  79              		.type	I2COLED_Wakeup, %function
  80              	I2COLED_Wakeup:
  81              	.LFB1:
 133:Generated_Source\PSoC4/I2COLED_PM.c **** 
 134:Generated_Source\PSoC4/I2COLED_PM.c **** 
 135:Generated_Source\PSoC4/I2COLED_PM.c **** /*******************************************************************************
 136:Generated_Source\PSoC4/I2COLED_PM.c **** * Function Name: I2COLED_Wakeup
 137:Generated_Source\PSoC4/I2COLED_PM.c **** ********************************************************************************
 138:Generated_Source\PSoC4/I2COLED_PM.c **** *
 139:Generated_Source\PSoC4/I2COLED_PM.c **** * Summary:
 140:Generated_Source\PSoC4/I2COLED_PM.c **** *  Prepares the component for the Active mode operation after exiting
 141:Generated_Source\PSoC4/I2COLED_PM.c **** *  Deep Sleep. The "Enable wakeup from Sleep Mode" option has an influence
 142:Generated_Source\PSoC4/I2COLED_PM.c **** *  on this function implementation.
 143:Generated_Source\PSoC4/I2COLED_PM.c **** *  This function should not be called after exiting Sleep.
 144:Generated_Source\PSoC4/I2COLED_PM.c **** *
 145:Generated_Source\PSoC4/I2COLED_PM.c **** * Parameters:
 146:Generated_Source\PSoC4/I2COLED_PM.c **** *  None
 147:Generated_Source\PSoC4/I2COLED_PM.c **** *
ARM GAS  C:\Users\jdrd3\AppData\Local\Temp\cckUuWzp.s 			page 5


 148:Generated_Source\PSoC4/I2COLED_PM.c **** * Return:
 149:Generated_Source\PSoC4/I2COLED_PM.c **** *  None
 150:Generated_Source\PSoC4/I2COLED_PM.c **** *
 151:Generated_Source\PSoC4/I2COLED_PM.c **** *******************************************************************************/
 152:Generated_Source\PSoC4/I2COLED_PM.c **** void I2COLED_Wakeup(void)
 153:Generated_Source\PSoC4/I2COLED_PM.c **** {
  82              		.loc 1 153 0
  83              		.cfi_startproc
  84              		@ args = 0, pretend = 0, frame = 0
  85              		@ frame_needed = 1, uses_anonymous_args = 0
  86 0000 80B5     		push	{r7, lr}
  87              		.cfi_def_cfa_offset 8
  88              		.cfi_offset 7, -8
  89              		.cfi_offset 14, -4
  90 0002 00AF     		add	r7, sp, #0
  91              		.cfi_def_cfa_register 7
 154:Generated_Source\PSoC4/I2COLED_PM.c **** #if(I2COLED_SCB_MODE_UNCONFIG_CONST_CFG)
 155:Generated_Source\PSoC4/I2COLED_PM.c **** 
 156:Generated_Source\PSoC4/I2COLED_PM.c ****     if(I2COLED_SCB_WAKE_ENABLE_CHECK)
 157:Generated_Source\PSoC4/I2COLED_PM.c ****     {
 158:Generated_Source\PSoC4/I2COLED_PM.c ****         if(I2COLED_SCB_MODE_I2C_RUNTM_CFG)
 159:Generated_Source\PSoC4/I2COLED_PM.c ****         {
 160:Generated_Source\PSoC4/I2COLED_PM.c ****             I2COLED_I2CRestoreConfig();
 161:Generated_Source\PSoC4/I2COLED_PM.c ****         }
 162:Generated_Source\PSoC4/I2COLED_PM.c ****         else if(I2COLED_SCB_MODE_EZI2C_RUNTM_CFG)
 163:Generated_Source\PSoC4/I2COLED_PM.c ****         {
 164:Generated_Source\PSoC4/I2COLED_PM.c ****             I2COLED_EzI2CRestoreConfig();
 165:Generated_Source\PSoC4/I2COLED_PM.c ****         }
 166:Generated_Source\PSoC4/I2COLED_PM.c ****     #if(!I2COLED_CY_SCBIP_V1)
 167:Generated_Source\PSoC4/I2COLED_PM.c ****         else if(I2COLED_SCB_MODE_SPI_RUNTM_CFG)
 168:Generated_Source\PSoC4/I2COLED_PM.c ****         {
 169:Generated_Source\PSoC4/I2COLED_PM.c ****             I2COLED_SpiRestoreConfig();
 170:Generated_Source\PSoC4/I2COLED_PM.c ****         }
 171:Generated_Source\PSoC4/I2COLED_PM.c ****         else if(I2COLED_SCB_MODE_UART_RUNTM_CFG)
 172:Generated_Source\PSoC4/I2COLED_PM.c ****         {
 173:Generated_Source\PSoC4/I2COLED_PM.c ****             I2COLED_UartRestoreConfig();
 174:Generated_Source\PSoC4/I2COLED_PM.c ****         }
 175:Generated_Source\PSoC4/I2COLED_PM.c ****     #endif /* (!I2COLED_CY_SCBIP_V1) */
 176:Generated_Source\PSoC4/I2COLED_PM.c ****         else
 177:Generated_Source\PSoC4/I2COLED_PM.c ****         {
 178:Generated_Source\PSoC4/I2COLED_PM.c ****             /* Unknown mode */
 179:Generated_Source\PSoC4/I2COLED_PM.c ****         }
 180:Generated_Source\PSoC4/I2COLED_PM.c ****     }
 181:Generated_Source\PSoC4/I2COLED_PM.c ****     else
 182:Generated_Source\PSoC4/I2COLED_PM.c ****     {
 183:Generated_Source\PSoC4/I2COLED_PM.c ****         if(0u != I2COLED_backup.enableState)
 184:Generated_Source\PSoC4/I2COLED_PM.c ****         {
 185:Generated_Source\PSoC4/I2COLED_PM.c ****             I2COLED_Enable();
 186:Generated_Source\PSoC4/I2COLED_PM.c ****         }
 187:Generated_Source\PSoC4/I2COLED_PM.c ****     }
 188:Generated_Source\PSoC4/I2COLED_PM.c **** 
 189:Generated_Source\PSoC4/I2COLED_PM.c **** #else
 190:Generated_Source\PSoC4/I2COLED_PM.c **** 
 191:Generated_Source\PSoC4/I2COLED_PM.c ****     #if (I2COLED_SCB_MODE_I2C_CONST_CFG  && I2COLED_I2C_WAKE_ENABLE_CONST)
 192:Generated_Source\PSoC4/I2COLED_PM.c ****         I2COLED_I2CRestoreConfig();
 193:Generated_Source\PSoC4/I2COLED_PM.c **** 
 194:Generated_Source\PSoC4/I2COLED_PM.c ****     #elif (I2COLED_SCB_MODE_EZI2C_CONST_CFG && I2COLED_EZI2C_WAKE_ENABLE_CONST)
ARM GAS  C:\Users\jdrd3\AppData\Local\Temp\cckUuWzp.s 			page 6


 195:Generated_Source\PSoC4/I2COLED_PM.c ****         I2COLED_EzI2CRestoreConfig();
 196:Generated_Source\PSoC4/I2COLED_PM.c **** 
 197:Generated_Source\PSoC4/I2COLED_PM.c ****     #elif (I2COLED_SCB_MODE_SPI_CONST_CFG && I2COLED_SPI_WAKE_ENABLE_CONST)
 198:Generated_Source\PSoC4/I2COLED_PM.c ****         I2COLED_SpiRestoreConfig();
 199:Generated_Source\PSoC4/I2COLED_PM.c **** 
 200:Generated_Source\PSoC4/I2COLED_PM.c ****     #elif (I2COLED_SCB_MODE_UART_CONST_CFG && I2COLED_UART_WAKE_ENABLE_CONST)
 201:Generated_Source\PSoC4/I2COLED_PM.c ****         I2COLED_UartRestoreConfig();
 202:Generated_Source\PSoC4/I2COLED_PM.c **** 
 203:Generated_Source\PSoC4/I2COLED_PM.c ****     #else
 204:Generated_Source\PSoC4/I2COLED_PM.c **** 
 205:Generated_Source\PSoC4/I2COLED_PM.c ****         if(0u != I2COLED_backup.enableState)
  92              		.loc 1 205 0
  93 0004 044B     		ldr	r3, .L9
  94 0006 1B78     		ldrb	r3, [r3]
  95 0008 002B     		cmp	r3, #0
  96 000a 01D0     		beq	.L8
 206:Generated_Source\PSoC4/I2COLED_PM.c ****         {
 207:Generated_Source\PSoC4/I2COLED_PM.c ****             I2COLED_Enable();
  97              		.loc 1 207 0
  98 000c FFF7FEFF 		bl	I2COLED_Enable
  99              	.L8:
 208:Generated_Source\PSoC4/I2COLED_PM.c ****         }
 209:Generated_Source\PSoC4/I2COLED_PM.c **** 
 210:Generated_Source\PSoC4/I2COLED_PM.c ****     #endif /* (I2COLED_I2C_WAKE_ENABLE_CONST) */
 211:Generated_Source\PSoC4/I2COLED_PM.c **** 
 212:Generated_Source\PSoC4/I2COLED_PM.c **** #endif /* (I2COLED_SCB_MODE_UNCONFIG_CONST_CFG) */
 213:Generated_Source\PSoC4/I2COLED_PM.c **** }
 100              		.loc 1 213 0
 101 0010 C046     		nop
 102 0012 BD46     		mov	sp, r7
 103              		@ sp needed
 104 0014 80BD     		pop	{r7, pc}
 105              	.L10:
 106 0016 C046     		.align	2
 107              	.L9:
 108 0018 00000000 		.word	I2COLED_backup
 109              		.cfi_endproc
 110              	.LFE1:
 111              		.size	I2COLED_Wakeup, .-I2COLED_Wakeup
 112              		.text
 113              	.Letext0:
 114              		.file 2 "Generated_Source\\PSoC4/cytypes.h"
 115              		.file 3 "Generated_Source\\PSoC4\\I2COLED.h"