ARM GAS  C:\Users\jdrd3\AppData\Local\Temp\cch5OljY.s 			page 1


   1              		.syntax unified
   2              		.cpu cortex-m0
   3              		.fpu softvfp
   4              		.eabi_attribute 20, 1
   5              		.eabi_attribute 21, 1
   6              		.eabi_attribute 23, 3
   7              		.eabi_attribute 24, 1
   8              		.eabi_attribute 25, 1
   9              		.eabi_attribute 26, 1
  10              		.eabi_attribute 30, 6
  11              		.eabi_attribute 34, 0
  12              		.eabi_attribute 18, 4
  13              		.thumb
  14              		.syntax unified
  15              		.file	"I2COLED_I2C_MASTER.c"
  16              		.text
  17              	.Ltext0:
  18              		.cfi_sections	.debug_frame
  19              		.comm	I2COLED_mstrStatus,2,2
  20              		.comm	I2COLED_mstrControl,1,1
  21              		.comm	I2COLED_mstrRdBufPtr,4,4
  22              		.comm	I2COLED_mstrRdBufSize,4,4
  23              		.comm	I2COLED_mstrRdBufIndex,4,4
  24              		.comm	I2COLED_mstrWrBufPtr,4,4
  25              		.comm	I2COLED_mstrWrBufSize,4,4
  26              		.comm	I2COLED_mstrWrBufIndex,4,4
  27              		.comm	I2COLED_mstrWrBufIndexTmp,4,4
  28              		.section	.text.I2COLED_I2CMasterWriteBuf,"ax",%progbits
  29              		.align	2
  30              		.global	I2COLED_I2CMasterWriteBuf
  31              		.code	16
  32              		.thumb_func
  33              		.type	I2COLED_I2CMasterWriteBuf, %function
  34              	I2COLED_I2CMasterWriteBuf:
  35              	.LFB0:
  36              		.file 1 "Generated_Source\\PSoC4\\I2COLED_I2C_MASTER.c"
   1:Generated_Source\PSoC4/I2COLED_I2C_MASTER.c **** /*******************************************************************************
   2:Generated_Source\PSoC4/I2COLED_I2C_MASTER.c **** * File Name: I2COLED_I2C_MASTER.c
   3:Generated_Source\PSoC4/I2COLED_I2C_MASTER.c **** * Version 2.0
   4:Generated_Source\PSoC4/I2COLED_I2C_MASTER.c **** *
   5:Generated_Source\PSoC4/I2COLED_I2C_MASTER.c **** * Description:
   6:Generated_Source\PSoC4/I2COLED_I2C_MASTER.c **** *  This file provides the source code to the API for the SCB Component in
   7:Generated_Source\PSoC4/I2COLED_I2C_MASTER.c **** *  I2C Master mode.
   8:Generated_Source\PSoC4/I2COLED_I2C_MASTER.c **** *
   9:Generated_Source\PSoC4/I2COLED_I2C_MASTER.c **** * Note:
  10:Generated_Source\PSoC4/I2COLED_I2C_MASTER.c **** *
  11:Generated_Source\PSoC4/I2COLED_I2C_MASTER.c **** *******************************************************************************
  12:Generated_Source\PSoC4/I2COLED_I2C_MASTER.c **** * Copyright 2013-2014, Cypress Semiconductor Corporation.  All rights reserved.
  13:Generated_Source\PSoC4/I2COLED_I2C_MASTER.c **** * You may use this file only in accordance with the license, terms, conditions,
  14:Generated_Source\PSoC4/I2COLED_I2C_MASTER.c **** * disclaimers, and limitations in the end user license agreement accompanying
  15:Generated_Source\PSoC4/I2COLED_I2C_MASTER.c **** * the software package with which this file was provided.
  16:Generated_Source\PSoC4/I2COLED_I2C_MASTER.c **** *******************************************************************************/
  17:Generated_Source\PSoC4/I2COLED_I2C_MASTER.c **** 
  18:Generated_Source\PSoC4/I2COLED_I2C_MASTER.c **** #include "I2COLED_PVT.h"
  19:Generated_Source\PSoC4/I2COLED_I2C_MASTER.c **** #include "I2COLED_I2C_PVT.h"
  20:Generated_Source\PSoC4/I2COLED_I2C_MASTER.c **** 
  21:Generated_Source\PSoC4/I2COLED_I2C_MASTER.c **** #if(I2COLED_I2C_MASTER_CONST)
ARM GAS  C:\Users\jdrd3\AppData\Local\Temp\cch5OljY.s 			page 2


  22:Generated_Source\PSoC4/I2COLED_I2C_MASTER.c **** 
  23:Generated_Source\PSoC4/I2COLED_I2C_MASTER.c **** /***************************************
  24:Generated_Source\PSoC4/I2COLED_I2C_MASTER.c **** *      I2C Master Private Vars
  25:Generated_Source\PSoC4/I2COLED_I2C_MASTER.c **** ***************************************/
  26:Generated_Source\PSoC4/I2COLED_I2C_MASTER.c **** 
  27:Generated_Source\PSoC4/I2COLED_I2C_MASTER.c **** /* Master variables */
  28:Generated_Source\PSoC4/I2COLED_I2C_MASTER.c **** volatile uint16 I2COLED_mstrStatus;      /* Master Status byte  */
  29:Generated_Source\PSoC4/I2COLED_I2C_MASTER.c **** volatile uint8  I2COLED_mstrControl;     /* Master Control byte */
  30:Generated_Source\PSoC4/I2COLED_I2C_MASTER.c **** 
  31:Generated_Source\PSoC4/I2COLED_I2C_MASTER.c **** /* Receive buffer variables */
  32:Generated_Source\PSoC4/I2COLED_I2C_MASTER.c **** volatile uint8 * I2COLED_mstrRdBufPtr;   /* Pointer to Master Read buffer */
  33:Generated_Source\PSoC4/I2COLED_I2C_MASTER.c **** volatile uint32  I2COLED_mstrRdBufSize;  /* Master Read buffer size       */
  34:Generated_Source\PSoC4/I2COLED_I2C_MASTER.c **** volatile uint32  I2COLED_mstrRdBufIndex; /* Master Read buffer Index      */
  35:Generated_Source\PSoC4/I2COLED_I2C_MASTER.c **** 
  36:Generated_Source\PSoC4/I2COLED_I2C_MASTER.c **** /* Transmit buffer variables */
  37:Generated_Source\PSoC4/I2COLED_I2C_MASTER.c **** volatile uint8 * I2COLED_mstrWrBufPtr;   /* Pointer to Master Write buffer */
  38:Generated_Source\PSoC4/I2COLED_I2C_MASTER.c **** volatile uint32  I2COLED_mstrWrBufSize;  /* Master Write buffer size       */
  39:Generated_Source\PSoC4/I2COLED_I2C_MASTER.c **** volatile uint32  I2COLED_mstrWrBufIndex; /* Master Write buffer Index      */
  40:Generated_Source\PSoC4/I2COLED_I2C_MASTER.c **** volatile uint32  I2COLED_mstrWrBufIndexTmp; /* Master Write buffer Index Tmp */
  41:Generated_Source\PSoC4/I2COLED_I2C_MASTER.c **** 
  42:Generated_Source\PSoC4/I2COLED_I2C_MASTER.c **** #if (!I2COLED_CY_SCBIP_V0 && \
  43:Generated_Source\PSoC4/I2COLED_I2C_MASTER.c ****     I2COLED_I2C_MULTI_MASTER_SLAVE_CONST && I2COLED_I2C_WAKE_ENABLE_CONST)
  44:Generated_Source\PSoC4/I2COLED_I2C_MASTER.c ****     static void I2COLED_I2CMasterDisableEcAm(void);
  45:Generated_Source\PSoC4/I2COLED_I2C_MASTER.c **** #endif /* (!I2COLED_CY_SCBIP_V0) */
  46:Generated_Source\PSoC4/I2COLED_I2C_MASTER.c **** 
  47:Generated_Source\PSoC4/I2COLED_I2C_MASTER.c **** 
  48:Generated_Source\PSoC4/I2COLED_I2C_MASTER.c **** /*******************************************************************************
  49:Generated_Source\PSoC4/I2COLED_I2C_MASTER.c **** * Function Name: I2COLED_I2CMasterWriteBuf
  50:Generated_Source\PSoC4/I2COLED_I2C_MASTER.c **** ********************************************************************************
  51:Generated_Source\PSoC4/I2COLED_I2C_MASTER.c **** *
  52:Generated_Source\PSoC4/I2COLED_I2C_MASTER.c **** * Summary:
  53:Generated_Source\PSoC4/I2COLED_I2C_MASTER.c **** * Automatically writes an entire buffer of data to a slave device.
  54:Generated_Source\PSoC4/I2COLED_I2C_MASTER.c **** * Once the data transfer is initiated by this function, further data transfer
  55:Generated_Source\PSoC4/I2COLED_I2C_MASTER.c **** * is handled by the included ISR.
  56:Generated_Source\PSoC4/I2COLED_I2C_MASTER.c **** * Enables the I2C interrupt and clears SCB_ I2C_MSTAT_WR_CMPLT status.
  57:Generated_Source\PSoC4/I2COLED_I2C_MASTER.c **** *
  58:Generated_Source\PSoC4/I2COLED_I2C_MASTER.c **** * Parameters:
  59:Generated_Source\PSoC4/I2COLED_I2C_MASTER.c **** *  slaveAddr: 7-bit slave address.
  60:Generated_Source\PSoC4/I2COLED_I2C_MASTER.c **** *  xferData:  Pointer to buffer of data to be sent.
  61:Generated_Source\PSoC4/I2COLED_I2C_MASTER.c **** *  cnt:       Size of buffer to send.
  62:Generated_Source\PSoC4/I2COLED_I2C_MASTER.c **** *  mode:      Transfer mode defines: start or restart condition generation at
  63:Generated_Source\PSoC4/I2COLED_I2C_MASTER.c **** *             begin of the transfer and complete the transfer or halt before
  64:Generated_Source\PSoC4/I2COLED_I2C_MASTER.c **** *             generating a stop.
  65:Generated_Source\PSoC4/I2COLED_I2C_MASTER.c **** *
  66:Generated_Source\PSoC4/I2COLED_I2C_MASTER.c **** * Return:
  67:Generated_Source\PSoC4/I2COLED_I2C_MASTER.c **** *  Error status.
  68:Generated_Source\PSoC4/I2COLED_I2C_MASTER.c **** *
  69:Generated_Source\PSoC4/I2COLED_I2C_MASTER.c **** * Global variables:
  70:Generated_Source\PSoC4/I2COLED_I2C_MASTER.c **** *  I2COLED_mstrStatus  - used to store current status of I2C Master.
  71:Generated_Source\PSoC4/I2COLED_I2C_MASTER.c **** *  I2COLED_state       - used to store current state of software FSM.
  72:Generated_Source\PSoC4/I2COLED_I2C_MASTER.c **** *  I2COLED_mstrControl - used to control master end of transaction with
  73:Generated_Source\PSoC4/I2COLED_I2C_MASTER.c **** *  or without the Stop generation.
  74:Generated_Source\PSoC4/I2COLED_I2C_MASTER.c **** *  I2COLED_mstrWrBufPtr - used to store pointer to master write buffer.
  75:Generated_Source\PSoC4/I2COLED_I2C_MASTER.c **** *  I2COLED_mstrWrBufIndex - used to current index within master write
  76:Generated_Source\PSoC4/I2COLED_I2C_MASTER.c **** *  buffer.
  77:Generated_Source\PSoC4/I2COLED_I2C_MASTER.c **** *  I2COLED_mstrWrBufSize - used to store master write buffer size.
  78:Generated_Source\PSoC4/I2COLED_I2C_MASTER.c **** *
ARM GAS  C:\Users\jdrd3\AppData\Local\Temp\cch5OljY.s 			page 3


  79:Generated_Source\PSoC4/I2COLED_I2C_MASTER.c **** *******************************************************************************/
  80:Generated_Source\PSoC4/I2COLED_I2C_MASTER.c **** uint32 I2COLED_I2CMasterWriteBuf(uint32 slaveAddress, uint8 * wrData, uint32 cnt, uint32 mode)
  81:Generated_Source\PSoC4/I2COLED_I2C_MASTER.c **** {
  37              		.loc 1 81 0
  38              		.cfi_startproc
  39              		@ args = 0, pretend = 0, frame = 24
  40              		@ frame_needed = 1, uses_anonymous_args = 0
  41 0000 80B5     		push	{r7, lr}
  42              		.cfi_def_cfa_offset 8
  43              		.cfi_offset 7, -8
  44              		.cfi_offset 14, -4
  45 0002 86B0     		sub	sp, sp, #24
  46              		.cfi_def_cfa_offset 32
  47 0004 00AF     		add	r7, sp, #0
  48              		.cfi_def_cfa_register 7
  49 0006 F860     		str	r0, [r7, #12]
  50 0008 B960     		str	r1, [r7, #8]
  51 000a 7A60     		str	r2, [r7, #4]
  52 000c 3B60     		str	r3, [r7]
  82:Generated_Source\PSoC4/I2COLED_I2C_MASTER.c ****     uint32 errStatus;
  83:Generated_Source\PSoC4/I2COLED_I2C_MASTER.c **** 
  84:Generated_Source\PSoC4/I2COLED_I2C_MASTER.c ****     errStatus = I2COLED_I2C_MSTR_NOT_READY;
  53              		.loc 1 84 0
  54 000e 0423     		movs	r3, #4
  55 0010 7B61     		str	r3, [r7, #20]
  85:Generated_Source\PSoC4/I2COLED_I2C_MASTER.c **** 
  86:Generated_Source\PSoC4/I2COLED_I2C_MASTER.c ****     if(NULL != wrData)  /* Check buffer pointer */
  56              		.loc 1 86 0
  57 0012 BB68     		ldr	r3, [r7, #8]
  58 0014 002B     		cmp	r3, #0
  59 0016 20D0     		beq	.L2
  87:Generated_Source\PSoC4/I2COLED_I2C_MASTER.c ****     {
  88:Generated_Source\PSoC4/I2COLED_I2C_MASTER.c ****         /* Check FSM state and bus before generating Start/ReStart condition */
  89:Generated_Source\PSoC4/I2COLED_I2C_MASTER.c ****         if(I2COLED_CHECK_I2C_FSM_IDLE)
  60              		.loc 1 89 0
  61 0018 324B     		ldr	r3, .L10
  62 001a 1B78     		ldrb	r3, [r3]
  63 001c DBB2     		uxtb	r3, r3
  64 001e 102B     		cmp	r3, #16
  65 0020 0CD1     		bne	.L3
  90:Generated_Source\PSoC4/I2COLED_I2C_MASTER.c ****         {
  91:Generated_Source\PSoC4/I2COLED_I2C_MASTER.c ****             I2COLED_DisableInt();  /* Lock from interruption */
  66              		.loc 1 91 0
  67 0022 0B20     		movs	r0, #11
  68 0024 FFF7FEFF 		bl	CyIntDisable
  92:Generated_Source\PSoC4/I2COLED_I2C_MASTER.c **** 
  93:Generated_Source\PSoC4/I2COLED_I2C_MASTER.c ****             /* Check bus state */
  94:Generated_Source\PSoC4/I2COLED_I2C_MASTER.c ****             errStatus = I2COLED_CHECK_I2C_STATUS(I2COLED_I2C_STATUS_BUS_BUSY) ?
  69              		.loc 1 94 0
  70 0028 2F4B     		ldr	r3, .L10+4
  71 002a 1B68     		ldr	r3, [r3]
  72 002c 0122     		movs	r2, #1
  73 002e 1340     		ands	r3, r2
  74 0030 01D0     		beq	.L4
  75              		.loc 1 94 0 is_stmt 0 discriminator 1
  76 0032 0823     		movs	r3, #8
  77 0034 00E0     		b	.L5
ARM GAS  C:\Users\jdrd3\AppData\Local\Temp\cch5OljY.s 			page 4


  78              	.L4:
  79              		.loc 1 94 0 discriminator 2
  80 0036 0023     		movs	r3, #0
  81              	.L5:
  82              		.loc 1 94 0 discriminator 4
  83 0038 7B61     		str	r3, [r7, #20]
  84 003a 0EE0     		b	.L2
  85              	.L3:
  95:Generated_Source\PSoC4/I2COLED_I2C_MASTER.c ****                             I2COLED_I2C_MSTR_BUS_BUSY : I2COLED_I2C_MSTR_NO_ERROR;
  96:Generated_Source\PSoC4/I2COLED_I2C_MASTER.c ****         }
  97:Generated_Source\PSoC4/I2COLED_I2C_MASTER.c ****         else if(I2COLED_CHECK_I2C_FSM_HALT)
  86              		.loc 1 97 0 is_stmt 1
  87 003c 294B     		ldr	r3, .L10
  88 003e 1B78     		ldrb	r3, [r3]
  89 0040 DBB2     		uxtb	r3, r3
  90 0042 602B     		cmp	r3, #96
  91 0044 09D1     		bne	.L2
  98:Generated_Source\PSoC4/I2COLED_I2C_MASTER.c ****         {
  99:Generated_Source\PSoC4/I2COLED_I2C_MASTER.c ****             I2COLED_mstrStatus &= (uint16) ~I2COLED_I2C_MSTAT_XFER_HALT;
  92              		.loc 1 99 0
  93 0046 294B     		ldr	r3, .L10+8
  94 0048 1B88     		ldrh	r3, [r3]
  95 004a 9BB2     		uxth	r3, r3
  96 004c 0822     		movs	r2, #8
  97 004e 9343     		bics	r3, r2
  98 0050 9AB2     		uxth	r2, r3
  99 0052 264B     		ldr	r3, .L10+8
 100 0054 1A80     		strh	r2, [r3]
 100:Generated_Source\PSoC4/I2COLED_I2C_MASTER.c ****                               errStatus  = I2COLED_I2C_MSTR_NO_ERROR;
 101              		.loc 1 100 0
 102 0056 0023     		movs	r3, #0
 103 0058 7B61     		str	r3, [r7, #20]
 104              	.L2:
 101:Generated_Source\PSoC4/I2COLED_I2C_MASTER.c ****         }
 102:Generated_Source\PSoC4/I2COLED_I2C_MASTER.c ****         else
 103:Generated_Source\PSoC4/I2COLED_I2C_MASTER.c ****         {
 104:Generated_Source\PSoC4/I2COLED_I2C_MASTER.c ****             /* Unexpected FSM state: exit */
 105:Generated_Source\PSoC4/I2COLED_I2C_MASTER.c ****         }
 106:Generated_Source\PSoC4/I2COLED_I2C_MASTER.c ****     }
 107:Generated_Source\PSoC4/I2COLED_I2C_MASTER.c **** 
 108:Generated_Source\PSoC4/I2COLED_I2C_MASTER.c ****     /* Check if master is ready to start  */
 109:Generated_Source\PSoC4/I2COLED_I2C_MASTER.c ****     if(I2COLED_I2C_MSTR_NO_ERROR == errStatus) /* No error proceed */
 105              		.loc 1 109 0
 106 005a 7B69     		ldr	r3, [r7, #20]
 107 005c 002B     		cmp	r3, #0
 108 005e 38D1     		bne	.L6
 110:Generated_Source\PSoC4/I2COLED_I2C_MASTER.c ****     {
 111:Generated_Source\PSoC4/I2COLED_I2C_MASTER.c ****     #if (!I2COLED_CY_SCBIP_V0 && \
 112:Generated_Source\PSoC4/I2COLED_I2C_MASTER.c ****         I2COLED_I2C_MULTI_MASTER_SLAVE_CONST && I2COLED_I2C_WAKE_ENABLE_CONST)
 113:Generated_Source\PSoC4/I2COLED_I2C_MASTER.c ****             I2COLED_I2CMasterDisableEcAm();
 114:Generated_Source\PSoC4/I2COLED_I2C_MASTER.c ****     #endif /* (!I2COLED_CY_SCBIP_V0) */
 115:Generated_Source\PSoC4/I2COLED_I2C_MASTER.c **** 
 116:Generated_Source\PSoC4/I2COLED_I2C_MASTER.c ****         /* Set up write transaction */
 117:Generated_Source\PSoC4/I2COLED_I2C_MASTER.c ****         I2COLED_state = I2COLED_I2C_FSM_MSTR_WR_ADDR;
 109              		.loc 1 117 0
 110 0060 204B     		ldr	r3, .L10
 111 0062 2822     		movs	r2, #40
ARM GAS  C:\Users\jdrd3\AppData\Local\Temp\cch5OljY.s 			page 5


 112 0064 1A70     		strb	r2, [r3]
 118:Generated_Source\PSoC4/I2COLED_I2C_MASTER.c ****         I2COLED_mstrWrBufIndexTmp = 0u;
 113              		.loc 1 118 0
 114 0066 224B     		ldr	r3, .L10+12
 115 0068 0022     		movs	r2, #0
 116 006a 1A60     		str	r2, [r3]
 119:Generated_Source\PSoC4/I2COLED_I2C_MASTER.c ****         I2COLED_mstrWrBufIndex    = 0u;
 117              		.loc 1 119 0
 118 006c 214B     		ldr	r3, .L10+16
 119 006e 0022     		movs	r2, #0
 120 0070 1A60     		str	r2, [r3]
 120:Generated_Source\PSoC4/I2COLED_I2C_MASTER.c ****         I2COLED_mstrWrBufSize     = cnt;
 121              		.loc 1 120 0
 122 0072 214B     		ldr	r3, .L10+20
 123 0074 7A68     		ldr	r2, [r7, #4]
 124 0076 1A60     		str	r2, [r3]
 121:Generated_Source\PSoC4/I2COLED_I2C_MASTER.c ****         I2COLED_mstrWrBufPtr      = (volatile uint8 *) wrData;
 125              		.loc 1 121 0
 126 0078 204B     		ldr	r3, .L10+24
 127 007a BA68     		ldr	r2, [r7, #8]
 128 007c 1A60     		str	r2, [r3]
 122:Generated_Source\PSoC4/I2COLED_I2C_MASTER.c ****         I2COLED_mstrControl       = (uint8) mode;
 129              		.loc 1 122 0
 130 007e 3B68     		ldr	r3, [r7]
 131 0080 DAB2     		uxtb	r2, r3
 132 0082 1F4B     		ldr	r3, .L10+28
 133 0084 1A70     		strb	r2, [r3]
 123:Generated_Source\PSoC4/I2COLED_I2C_MASTER.c **** 
 124:Generated_Source\PSoC4/I2COLED_I2C_MASTER.c ****         slaveAddress = I2COLED_GET_I2C_8BIT_ADDRESS(slaveAddress);
 134              		.loc 1 124 0
 135 0086 FB68     		ldr	r3, [r7, #12]
 136 0088 5B00     		lsls	r3, r3, #1
 137 008a FF22     		movs	r2, #255
 138 008c 1340     		ands	r3, r2
 139 008e FB60     		str	r3, [r7, #12]
 125:Generated_Source\PSoC4/I2COLED_I2C_MASTER.c **** 
 126:Generated_Source\PSoC4/I2COLED_I2C_MASTER.c ****         I2COLED_mstrStatus &= (uint16) ~I2COLED_I2C_MSTAT_WR_CMPLT;
 140              		.loc 1 126 0
 141 0090 164B     		ldr	r3, .L10+8
 142 0092 1B88     		ldrh	r3, [r3]
 143 0094 9BB2     		uxth	r3, r3
 144 0096 0222     		movs	r2, #2
 145 0098 9343     		bics	r3, r2
 146 009a 9AB2     		uxth	r2, r3
 147 009c 134B     		ldr	r3, .L10+8
 148 009e 1A80     		strh	r2, [r3]
 127:Generated_Source\PSoC4/I2COLED_I2C_MASTER.c **** 
 128:Generated_Source\PSoC4/I2COLED_I2C_MASTER.c ****         I2COLED_ClearMasterInterruptSource(I2COLED_INTR_MASTER_ALL);
 149              		.loc 1 128 0
 150 00a0 184B     		ldr	r3, .L10+32
 151 00a2 194A     		ldr	r2, .L10+36
 152 00a4 1A60     		str	r2, [r3]
 129:Generated_Source\PSoC4/I2COLED_I2C_MASTER.c ****         I2COLED_ClearTxInterruptSource(I2COLED_INTR_TX_UNDERFLOW);
 153              		.loc 1 129 0
 154 00a6 194B     		ldr	r3, .L10+40
 155 00a8 4022     		movs	r2, #64
 156 00aa 1A60     		str	r2, [r3]
ARM GAS  C:\Users\jdrd3\AppData\Local\Temp\cch5OljY.s 			page 6


 130:Generated_Source\PSoC4/I2COLED_I2C_MASTER.c ****         /* The TX and RX FIFO have to be EMPTY */
 131:Generated_Source\PSoC4/I2COLED_I2C_MASTER.c **** 
 132:Generated_Source\PSoC4/I2COLED_I2C_MASTER.c ****         /* Generate Start or ReStart */
 133:Generated_Source\PSoC4/I2COLED_I2C_MASTER.c ****         if(I2COLED_CHECK_I2C_MODE_RESTART(mode))
 157              		.loc 1 133 0
 158 00ac 3B68     		ldr	r3, [r7]
 159 00ae 0122     		movs	r2, #1
 160 00b0 1340     		ands	r3, r2
 161 00b2 05D0     		beq	.L7
 134:Generated_Source\PSoC4/I2COLED_I2C_MASTER.c ****         {
 135:Generated_Source\PSoC4/I2COLED_I2C_MASTER.c ****             I2COLED_I2C_MASTER_GENERATE_RESTART;
 162              		.loc 1 135 0
 163 00b4 FFF7FEFF 		bl	I2COLED_I2CReStartGeneration
 136:Generated_Source\PSoC4/I2COLED_I2C_MASTER.c ****             I2COLED_TX_FIFO_WR_REG = slaveAddress;
 164              		.loc 1 136 0
 165 00b8 154B     		ldr	r3, .L10+44
 166 00ba FA68     		ldr	r2, [r7, #12]
 167 00bc 1A60     		str	r2, [r3]
 168 00be 05E0     		b	.L8
 169              	.L7:
 137:Generated_Source\PSoC4/I2COLED_I2C_MASTER.c ****         }
 138:Generated_Source\PSoC4/I2COLED_I2C_MASTER.c ****         else
 139:Generated_Source\PSoC4/I2COLED_I2C_MASTER.c ****         {
 140:Generated_Source\PSoC4/I2COLED_I2C_MASTER.c ****             I2COLED_TX_FIFO_WR_REG = slaveAddress;
 170              		.loc 1 140 0
 171 00c0 134B     		ldr	r3, .L10+44
 172 00c2 FA68     		ldr	r2, [r7, #12]
 173 00c4 1A60     		str	r2, [r3]
 141:Generated_Source\PSoC4/I2COLED_I2C_MASTER.c ****             I2COLED_I2C_MASTER_GENERATE_START;
 174              		.loc 1 141 0
 175 00c6 134B     		ldr	r3, .L10+48
 176 00c8 0222     		movs	r2, #2
 177 00ca 1A60     		str	r2, [r3]
 178              	.L8:
 142:Generated_Source\PSoC4/I2COLED_I2C_MASTER.c ****         }
 143:Generated_Source\PSoC4/I2COLED_I2C_MASTER.c **** 
 144:Generated_Source\PSoC4/I2COLED_I2C_MASTER.c ****          /* Catch when address is sent */
 145:Generated_Source\PSoC4/I2COLED_I2C_MASTER.c ****         I2COLED_SetTxInterruptMode(I2COLED_INTR_TX_UNDERFLOW);
 179              		.loc 1 145 0
 180 00cc 124B     		ldr	r3, .L10+52
 181 00ce 4022     		movs	r2, #64
 182 00d0 1A60     		str	r2, [r3]
 183              	.L6:
 146:Generated_Source\PSoC4/I2COLED_I2C_MASTER.c ****     }
 147:Generated_Source\PSoC4/I2COLED_I2C_MASTER.c **** 
 148:Generated_Source\PSoC4/I2COLED_I2C_MASTER.c ****     I2COLED_EnableInt();   /* Release lock */
 184              		.loc 1 148 0
 185 00d2 0B20     		movs	r0, #11
 186 00d4 FFF7FEFF 		bl	CyIntEnable
 149:Generated_Source\PSoC4/I2COLED_I2C_MASTER.c **** 
 150:Generated_Source\PSoC4/I2COLED_I2C_MASTER.c ****     return(errStatus);
 187              		.loc 1 150 0
 188 00d8 7B69     		ldr	r3, [r7, #20]
 151:Generated_Source\PSoC4/I2COLED_I2C_MASTER.c **** }
 189              		.loc 1 151 0
 190 00da 1800     		movs	r0, r3
 191 00dc BD46     		mov	sp, r7
ARM GAS  C:\Users\jdrd3\AppData\Local\Temp\cch5OljY.s 			page 7


 192 00de 06B0     		add	sp, sp, #24
 193              		@ sp needed
 194 00e0 80BD     		pop	{r7, pc}
 195              	.L11:
 196 00e2 C046     		.align	2
 197              	.L10:
 198 00e4 00000000 		.word	I2COLED_state
 199 00e8 64000740 		.word	1074200676
 200 00ec 00000000 		.word	I2COLED_mstrStatus
 201 00f0 00000000 		.word	I2COLED_mstrWrBufIndexTmp
 202 00f4 00000000 		.word	I2COLED_mstrWrBufIndex
 203 00f8 00000000 		.word	I2COLED_mstrWrBufSize
 204 00fc 00000000 		.word	I2COLED_mstrWrBufPtr
 205 0100 00000000 		.word	I2COLED_mstrControl
 206 0104 000F0740 		.word	1074204416
 207 0108 17030000 		.word	791
 208 010c 800F0740 		.word	1074204544
 209 0110 40020740 		.word	1074201152
 210 0114 68000740 		.word	1074200680
 211 0118 880F0740 		.word	1074204552
 212              		.cfi_endproc
 213              	.LFE0:
 214              		.size	I2COLED_I2CMasterWriteBuf, .-I2COLED_I2CMasterWriteBuf
 215              		.section	.text.I2COLED_I2CMasterReadBuf,"ax",%progbits
 216              		.align	2
 217              		.global	I2COLED_I2CMasterReadBuf
 218              		.code	16
 219              		.thumb_func
 220              		.type	I2COLED_I2CMasterReadBuf, %function
 221              	I2COLED_I2CMasterReadBuf:
 222              	.LFB1:
 152:Generated_Source\PSoC4/I2COLED_I2C_MASTER.c **** 
 153:Generated_Source\PSoC4/I2COLED_I2C_MASTER.c **** 
 154:Generated_Source\PSoC4/I2COLED_I2C_MASTER.c **** /*******************************************************************************
 155:Generated_Source\PSoC4/I2COLED_I2C_MASTER.c **** * Function Name: I2COLED_I2CMasterReadBuf
 156:Generated_Source\PSoC4/I2COLED_I2C_MASTER.c **** ********************************************************************************
 157:Generated_Source\PSoC4/I2COLED_I2C_MASTER.c **** *
 158:Generated_Source\PSoC4/I2COLED_I2C_MASTER.c **** * Summary:
 159:Generated_Source\PSoC4/I2COLED_I2C_MASTER.c **** *  Automatically reads an entire buffer of data from a slave device.
 160:Generated_Source\PSoC4/I2COLED_I2C_MASTER.c **** *  Once the data transfer is initiated by this function, further data transfer
 161:Generated_Source\PSoC4/I2COLED_I2C_MASTER.c **** *  is handled by the included ISR.
 162:Generated_Source\PSoC4/I2COLED_I2C_MASTER.c **** * Enables the I2C interrupt and clears SCB_ I2C_MSTAT_RD_CMPLT status.
 163:Generated_Source\PSoC4/I2COLED_I2C_MASTER.c **** *
 164:Generated_Source\PSoC4/I2COLED_I2C_MASTER.c **** * Parameters:
 165:Generated_Source\PSoC4/I2COLED_I2C_MASTER.c **** *  slaveAddr: 7-bit slave address.
 166:Generated_Source\PSoC4/I2COLED_I2C_MASTER.c **** *  xferData:  Pointer to buffer where to put data from slave.
 167:Generated_Source\PSoC4/I2COLED_I2C_MASTER.c **** *  cnt:       Size of buffer to read.
 168:Generated_Source\PSoC4/I2COLED_I2C_MASTER.c **** *  mode:      Transfer mode defines: start or restart condition generation at
 169:Generated_Source\PSoC4/I2COLED_I2C_MASTER.c **** *             begin of the transfer and complete the transfer or halt before
 170:Generated_Source\PSoC4/I2COLED_I2C_MASTER.c **** *             generating a stop.
 171:Generated_Source\PSoC4/I2COLED_I2C_MASTER.c **** *
 172:Generated_Source\PSoC4/I2COLED_I2C_MASTER.c **** * Return:
 173:Generated_Source\PSoC4/I2COLED_I2C_MASTER.c **** *  Error status.
 174:Generated_Source\PSoC4/I2COLED_I2C_MASTER.c **** *
 175:Generated_Source\PSoC4/I2COLED_I2C_MASTER.c **** * Global variables:
 176:Generated_Source\PSoC4/I2COLED_I2C_MASTER.c **** *  I2COLED_mstrStatus  - used to store current status of I2C Master.
 177:Generated_Source\PSoC4/I2COLED_I2C_MASTER.c **** *  I2COLED_state       - used to store current state of software FSM.
ARM GAS  C:\Users\jdrd3\AppData\Local\Temp\cch5OljY.s 			page 8


 178:Generated_Source\PSoC4/I2COLED_I2C_MASTER.c **** *  I2COLED_mstrControl - used to control master end of transaction with
 179:Generated_Source\PSoC4/I2COLED_I2C_MASTER.c **** *  or without the Stop generation.
 180:Generated_Source\PSoC4/I2COLED_I2C_MASTER.c **** *  I2COLED_mstrRdBufPtr - used to store pointer to master write buffer.
 181:Generated_Source\PSoC4/I2COLED_I2C_MASTER.c **** *  I2COLED_mstrRdBufIndex - used to current index within master write
 182:Generated_Source\PSoC4/I2COLED_I2C_MASTER.c **** *  buffer.
 183:Generated_Source\PSoC4/I2COLED_I2C_MASTER.c **** *  I2COLED_mstrRdBufSize - used to store master write buffer size.
 184:Generated_Source\PSoC4/I2COLED_I2C_MASTER.c **** *
 185:Generated_Source\PSoC4/I2COLED_I2C_MASTER.c **** *******************************************************************************/
 186:Generated_Source\PSoC4/I2COLED_I2C_MASTER.c **** uint32 I2COLED_I2CMasterReadBuf(uint32 slaveAddress, uint8 * rdData, uint32 cnt, uint32 mode)
 187:Generated_Source\PSoC4/I2COLED_I2C_MASTER.c **** {
 223              		.loc 1 187 0
 224              		.cfi_startproc
 225              		@ args = 0, pretend = 0, frame = 24
 226              		@ frame_needed = 1, uses_anonymous_args = 0
 227 0000 80B5     		push	{r7, lr}
 228              		.cfi_def_cfa_offset 8
 229              		.cfi_offset 7, -8
 230              		.cfi_offset 14, -4
 231 0002 86B0     		sub	sp, sp, #24
 232              		.cfi_def_cfa_offset 32
 233 0004 00AF     		add	r7, sp, #0
 234              		.cfi_def_cfa_register 7
 235 0006 F860     		str	r0, [r7, #12]
 236 0008 B960     		str	r1, [r7, #8]
 237 000a 7A60     		str	r2, [r7, #4]
 238 000c 3B60     		str	r3, [r7]
 188:Generated_Source\PSoC4/I2COLED_I2C_MASTER.c ****     uint32 errStatus;
 189:Generated_Source\PSoC4/I2COLED_I2C_MASTER.c **** 
 190:Generated_Source\PSoC4/I2COLED_I2C_MASTER.c ****     errStatus = I2COLED_I2C_MSTR_NOT_READY;
 239              		.loc 1 190 0
 240 000e 0423     		movs	r3, #4
 241 0010 7B61     		str	r3, [r7, #20]
 191:Generated_Source\PSoC4/I2COLED_I2C_MASTER.c **** 
 192:Generated_Source\PSoC4/I2COLED_I2C_MASTER.c ****     if(NULL != rdData)
 242              		.loc 1 192 0
 243 0012 BB68     		ldr	r3, [r7, #8]
 244 0014 002B     		cmp	r3, #0
 245 0016 20D0     		beq	.L13
 193:Generated_Source\PSoC4/I2COLED_I2C_MASTER.c ****     {
 194:Generated_Source\PSoC4/I2COLED_I2C_MASTER.c ****         /* Check FSM state and bus before generating Start/ReStart condition */
 195:Generated_Source\PSoC4/I2COLED_I2C_MASTER.c ****         if(I2COLED_CHECK_I2C_FSM_IDLE)
 246              		.loc 1 195 0
 247 0018 374B     		ldr	r3, .L22
 248 001a 1B78     		ldrb	r3, [r3]
 249 001c DBB2     		uxtb	r3, r3
 250 001e 102B     		cmp	r3, #16
 251 0020 0CD1     		bne	.L14
 196:Generated_Source\PSoC4/I2COLED_I2C_MASTER.c ****         {
 197:Generated_Source\PSoC4/I2COLED_I2C_MASTER.c ****             I2COLED_DisableInt();  /* Lock from interruption */
 252              		.loc 1 197 0
 253 0022 0B20     		movs	r0, #11
 254 0024 FFF7FEFF 		bl	CyIntDisable
 198:Generated_Source\PSoC4/I2COLED_I2C_MASTER.c **** 
 199:Generated_Source\PSoC4/I2COLED_I2C_MASTER.c ****             /* Check bus state */
 200:Generated_Source\PSoC4/I2COLED_I2C_MASTER.c ****             errStatus = I2COLED_CHECK_I2C_STATUS(I2COLED_I2C_STATUS_BUS_BUSY) ?
 255              		.loc 1 200 0
 256 0028 344B     		ldr	r3, .L22+4
ARM GAS  C:\Users\jdrd3\AppData\Local\Temp\cch5OljY.s 			page 9


 257 002a 1B68     		ldr	r3, [r3]
 258 002c 0122     		movs	r2, #1
 259 002e 1340     		ands	r3, r2
 260 0030 01D0     		beq	.L15
 261              		.loc 1 200 0 is_stmt 0 discriminator 1
 262 0032 0823     		movs	r3, #8
 263 0034 00E0     		b	.L16
 264              	.L15:
 265              		.loc 1 200 0 discriminator 2
 266 0036 0023     		movs	r3, #0
 267              	.L16:
 268              		.loc 1 200 0 discriminator 4
 269 0038 7B61     		str	r3, [r7, #20]
 270 003a 0EE0     		b	.L13
 271              	.L14:
 201:Generated_Source\PSoC4/I2COLED_I2C_MASTER.c ****                             I2COLED_I2C_MSTR_BUS_BUSY : I2COLED_I2C_MSTR_NO_ERROR;
 202:Generated_Source\PSoC4/I2COLED_I2C_MASTER.c ****         }
 203:Generated_Source\PSoC4/I2COLED_I2C_MASTER.c ****         else if(I2COLED_CHECK_I2C_FSM_HALT)
 272              		.loc 1 203 0 is_stmt 1
 273 003c 2E4B     		ldr	r3, .L22
 274 003e 1B78     		ldrb	r3, [r3]
 275 0040 DBB2     		uxtb	r3, r3
 276 0042 602B     		cmp	r3, #96
 277 0044 09D1     		bne	.L13
 204:Generated_Source\PSoC4/I2COLED_I2C_MASTER.c ****         {
 205:Generated_Source\PSoC4/I2COLED_I2C_MASTER.c ****             I2COLED_mstrStatus &= (uint16) ~I2COLED_I2C_MSTAT_XFER_HALT;
 278              		.loc 1 205 0
 279 0046 2E4B     		ldr	r3, .L22+8
 280 0048 1B88     		ldrh	r3, [r3]
 281 004a 9BB2     		uxth	r3, r3
 282 004c 0822     		movs	r2, #8
 283 004e 9343     		bics	r3, r2
 284 0050 9AB2     		uxth	r2, r3
 285 0052 2B4B     		ldr	r3, .L22+8
 286 0054 1A80     		strh	r2, [r3]
 206:Generated_Source\PSoC4/I2COLED_I2C_MASTER.c ****                               errStatus  =  I2COLED_I2C_MSTR_NO_ERROR;
 287              		.loc 1 206 0
 288 0056 0023     		movs	r3, #0
 289 0058 7B61     		str	r3, [r7, #20]
 290              	.L13:
 207:Generated_Source\PSoC4/I2COLED_I2C_MASTER.c ****         }
 208:Generated_Source\PSoC4/I2COLED_I2C_MASTER.c ****         else
 209:Generated_Source\PSoC4/I2COLED_I2C_MASTER.c ****         {
 210:Generated_Source\PSoC4/I2COLED_I2C_MASTER.c ****             /* Unexpected FSM state: exit */
 211:Generated_Source\PSoC4/I2COLED_I2C_MASTER.c ****         }
 212:Generated_Source\PSoC4/I2COLED_I2C_MASTER.c ****     }
 213:Generated_Source\PSoC4/I2COLED_I2C_MASTER.c **** 
 214:Generated_Source\PSoC4/I2COLED_I2C_MASTER.c ****     /* Check master ready to proceed */
 215:Generated_Source\PSoC4/I2COLED_I2C_MASTER.c ****     if(I2COLED_I2C_MSTR_NO_ERROR == errStatus) /* No error proceed */
 291              		.loc 1 215 0
 292 005a 7B69     		ldr	r3, [r7, #20]
 293 005c 002B     		cmp	r3, #0
 294 005e 43D1     		bne	.L17
 216:Generated_Source\PSoC4/I2COLED_I2C_MASTER.c ****     {
 217:Generated_Source\PSoC4/I2COLED_I2C_MASTER.c ****         #if (!I2COLED_CY_SCBIP_V0 && \
 218:Generated_Source\PSoC4/I2COLED_I2C_MASTER.c ****         I2COLED_I2C_MULTI_MASTER_SLAVE_CONST && I2COLED_I2C_WAKE_ENABLE_CONST)
 219:Generated_Source\PSoC4/I2COLED_I2C_MASTER.c ****             I2COLED_I2CMasterDisableEcAm();
ARM GAS  C:\Users\jdrd3\AppData\Local\Temp\cch5OljY.s 			page 10


 220:Generated_Source\PSoC4/I2COLED_I2C_MASTER.c ****         #endif /* (!I2COLED_CY_SCBIP_V0) */
 221:Generated_Source\PSoC4/I2COLED_I2C_MASTER.c **** 
 222:Generated_Source\PSoC4/I2COLED_I2C_MASTER.c ****         /* Set up read transaction */
 223:Generated_Source\PSoC4/I2COLED_I2C_MASTER.c ****         I2COLED_state = I2COLED_I2C_FSM_MSTR_RD_ADDR;
 295              		.loc 1 223 0
 296 0060 254B     		ldr	r3, .L22
 297 0062 2922     		movs	r2, #41
 298 0064 1A70     		strb	r2, [r3]
 224:Generated_Source\PSoC4/I2COLED_I2C_MASTER.c ****         I2COLED_mstrRdBufIndex = 0u;
 299              		.loc 1 224 0
 300 0066 274B     		ldr	r3, .L22+12
 301 0068 0022     		movs	r2, #0
 302 006a 1A60     		str	r2, [r3]
 225:Generated_Source\PSoC4/I2COLED_I2C_MASTER.c ****         I2COLED_mstrRdBufSize  = cnt;
 303              		.loc 1 225 0
 304 006c 264B     		ldr	r3, .L22+16
 305 006e 7A68     		ldr	r2, [r7, #4]
 306 0070 1A60     		str	r2, [r3]
 226:Generated_Source\PSoC4/I2COLED_I2C_MASTER.c ****         I2COLED_mstrRdBufPtr   = (volatile uint8 *) rdData;
 307              		.loc 1 226 0
 308 0072 264B     		ldr	r3, .L22+20
 309 0074 BA68     		ldr	r2, [r7, #8]
 310 0076 1A60     		str	r2, [r3]
 227:Generated_Source\PSoC4/I2COLED_I2C_MASTER.c ****         I2COLED_mstrControl    = (uint8) mode;
 311              		.loc 1 227 0
 312 0078 3B68     		ldr	r3, [r7]
 313 007a DAB2     		uxtb	r2, r3
 314 007c 244B     		ldr	r3, .L22+24
 315 007e 1A70     		strb	r2, [r3]
 228:Generated_Source\PSoC4/I2COLED_I2C_MASTER.c **** 
 229:Generated_Source\PSoC4/I2COLED_I2C_MASTER.c ****         slaveAddress = (I2COLED_GET_I2C_8BIT_ADDRESS(slaveAddress) | I2COLED_I2C_READ_FLAG);
 316              		.loc 1 229 0
 317 0080 FB68     		ldr	r3, [r7, #12]
 318 0082 5B00     		lsls	r3, r3, #1
 319 0084 FF22     		movs	r2, #255
 320 0086 1340     		ands	r3, r2
 321 0088 0122     		movs	r2, #1
 322 008a 1343     		orrs	r3, r2
 323 008c FB60     		str	r3, [r7, #12]
 230:Generated_Source\PSoC4/I2COLED_I2C_MASTER.c **** 
 231:Generated_Source\PSoC4/I2COLED_I2C_MASTER.c ****         I2COLED_mstrStatus &= (uint16) ~I2COLED_I2C_MSTAT_RD_CMPLT;
 324              		.loc 1 231 0
 325 008e 1C4B     		ldr	r3, .L22+8
 326 0090 1B88     		ldrh	r3, [r3]
 327 0092 9BB2     		uxth	r3, r3
 328 0094 0122     		movs	r2, #1
 329 0096 9343     		bics	r3, r2
 330 0098 9AB2     		uxth	r2, r3
 331 009a 194B     		ldr	r3, .L22+8
 332 009c 1A80     		strh	r2, [r3]
 232:Generated_Source\PSoC4/I2COLED_I2C_MASTER.c **** 
 233:Generated_Source\PSoC4/I2COLED_I2C_MASTER.c ****         I2COLED_ClearMasterInterruptSource(I2COLED_INTR_MASTER_ALL);
 333              		.loc 1 233 0
 334 009e 1D4B     		ldr	r3, .L22+28
 335 00a0 1D4A     		ldr	r2, .L22+32
 336 00a2 1A60     		str	r2, [r3]
 234:Generated_Source\PSoC4/I2COLED_I2C_MASTER.c **** 
ARM GAS  C:\Users\jdrd3\AppData\Local\Temp\cch5OljY.s 			page 11


 235:Generated_Source\PSoC4/I2COLED_I2C_MASTER.c ****         /* TX and RX FIFO have to be EMPTY */
 236:Generated_Source\PSoC4/I2COLED_I2C_MASTER.c **** 
 237:Generated_Source\PSoC4/I2COLED_I2C_MASTER.c ****         /* Generate Start or ReStart */
 238:Generated_Source\PSoC4/I2COLED_I2C_MASTER.c ****         if(I2COLED_CHECK_I2C_MODE_RESTART(mode))
 337              		.loc 1 238 0
 338 00a4 3B68     		ldr	r3, [r7]
 339 00a6 0122     		movs	r2, #1
 340 00a8 1340     		ands	r3, r2
 341 00aa 05D0     		beq	.L18
 239:Generated_Source\PSoC4/I2COLED_I2C_MASTER.c ****         {
 240:Generated_Source\PSoC4/I2COLED_I2C_MASTER.c ****             I2COLED_I2C_MASTER_GENERATE_RESTART;
 342              		.loc 1 240 0
 343 00ac FFF7FEFF 		bl	I2COLED_I2CReStartGeneration
 241:Generated_Source\PSoC4/I2COLED_I2C_MASTER.c ****             I2COLED_TX_FIFO_WR_REG = (slaveAddress);
 344              		.loc 1 241 0
 345 00b0 1A4B     		ldr	r3, .L22+36
 346 00b2 FA68     		ldr	r2, [r7, #12]
 347 00b4 1A60     		str	r2, [r3]
 348 00b6 05E0     		b	.L19
 349              	.L18:
 242:Generated_Source\PSoC4/I2COLED_I2C_MASTER.c ****         }
 243:Generated_Source\PSoC4/I2COLED_I2C_MASTER.c ****         else
 244:Generated_Source\PSoC4/I2COLED_I2C_MASTER.c ****         {
 245:Generated_Source\PSoC4/I2COLED_I2C_MASTER.c ****             I2COLED_TX_FIFO_WR_REG = (slaveAddress);
 350              		.loc 1 245 0
 351 00b8 184B     		ldr	r3, .L22+36
 352 00ba FA68     		ldr	r2, [r7, #12]
 353 00bc 1A60     		str	r2, [r3]
 246:Generated_Source\PSoC4/I2COLED_I2C_MASTER.c ****             I2COLED_I2C_MASTER_GENERATE_START;
 354              		.loc 1 246 0
 355 00be 184B     		ldr	r3, .L22+40
 356 00c0 0222     		movs	r2, #2
 357 00c2 1A60     		str	r2, [r3]
 358              	.L19:
 247:Generated_Source\PSoC4/I2COLED_I2C_MASTER.c ****         }
 248:Generated_Source\PSoC4/I2COLED_I2C_MASTER.c **** 
 249:Generated_Source\PSoC4/I2COLED_I2C_MASTER.c ****         /* Prepare reading */
 250:Generated_Source\PSoC4/I2COLED_I2C_MASTER.c ****         if(I2COLED_mstrRdBufSize < I2COLED_I2C_FIFO_SIZE) /* Reading byte-by-byte */
 359              		.loc 1 250 0
 360 00c4 104B     		ldr	r3, .L22+16
 361 00c6 1B68     		ldr	r3, [r3]
 362 00c8 072B     		cmp	r3, #7
 363 00ca 03D8     		bhi	.L20
 251:Generated_Source\PSoC4/I2COLED_I2C_MASTER.c ****         {
 252:Generated_Source\PSoC4/I2COLED_I2C_MASTER.c ****             I2COLED_SetRxInterruptMode(I2COLED_INTR_RX_NOT_EMPTY);
 364              		.loc 1 252 0
 365 00cc 154B     		ldr	r3, .L22+44
 366 00ce 0422     		movs	r2, #4
 367 00d0 1A60     		str	r2, [r3]
 368 00d2 09E0     		b	.L17
 369              	.L20:
 253:Generated_Source\PSoC4/I2COLED_I2C_MASTER.c ****         }
 254:Generated_Source\PSoC4/I2COLED_I2C_MASTER.c ****         else /* Receive RX FIFO chunks */
 255:Generated_Source\PSoC4/I2COLED_I2C_MASTER.c ****         {
 256:Generated_Source\PSoC4/I2COLED_I2C_MASTER.c ****             I2COLED_ENABLE_MASTER_AUTO_DATA_ACK;
 370              		.loc 1 256 0
 371 00d4 144B     		ldr	r3, .L22+48
ARM GAS  C:\Users\jdrd3\AppData\Local\Temp\cch5OljY.s 			page 12


 372 00d6 144A     		ldr	r2, .L22+48
 373 00d8 1268     		ldr	r2, [r2]
 374 00da 8021     		movs	r1, #128
 375 00dc 4900     		lsls	r1, r1, #1
 376 00de 0A43     		orrs	r2, r1
 377 00e0 1A60     		str	r2, [r3]
 257:Generated_Source\PSoC4/I2COLED_I2C_MASTER.c ****             I2COLED_SetRxInterruptMode(I2COLED_INTR_RX_FULL);
 378              		.loc 1 257 0
 379 00e2 104B     		ldr	r3, .L22+44
 380 00e4 0822     		movs	r2, #8
 381 00e6 1A60     		str	r2, [r3]
 382              	.L17:
 258:Generated_Source\PSoC4/I2COLED_I2C_MASTER.c ****         }
 259:Generated_Source\PSoC4/I2COLED_I2C_MASTER.c ****     }
 260:Generated_Source\PSoC4/I2COLED_I2C_MASTER.c **** 
 261:Generated_Source\PSoC4/I2COLED_I2C_MASTER.c ****     I2COLED_EnableInt();   /* Release lock */
 383              		.loc 1 261 0
 384 00e8 0B20     		movs	r0, #11
 385 00ea FFF7FEFF 		bl	CyIntEnable
 262:Generated_Source\PSoC4/I2COLED_I2C_MASTER.c **** 
 263:Generated_Source\PSoC4/I2COLED_I2C_MASTER.c ****     return(errStatus);
 386              		.loc 1 263 0
 387 00ee 7B69     		ldr	r3, [r7, #20]
 264:Generated_Source\PSoC4/I2COLED_I2C_MASTER.c **** }
 388              		.loc 1 264 0
 389 00f0 1800     		movs	r0, r3
 390 00f2 BD46     		mov	sp, r7
 391 00f4 06B0     		add	sp, sp, #24
 392              		@ sp needed
 393 00f6 80BD     		pop	{r7, pc}
 394              	.L23:
 395              		.align	2
 396              	.L22:
 397 00f8 00000000 		.word	I2COLED_state
 398 00fc 64000740 		.word	1074200676
 399 0100 00000000 		.word	I2COLED_mstrStatus
 400 0104 00000000 		.word	I2COLED_mstrRdBufIndex
 401 0108 00000000 		.word	I2COLED_mstrRdBufSize
 402 010c 00000000 		.word	I2COLED_mstrRdBufPtr
 403 0110 00000000 		.word	I2COLED_mstrControl
 404 0114 000F0740 		.word	1074204416
 405 0118 17030000 		.word	791
 406 011c 40020740 		.word	1074201152
 407 0120 68000740 		.word	1074200680
 408 0124 C80F0740 		.word	1074204616
 409 0128 60000740 		.word	1074200672
 410              		.cfi_endproc
 411              	.LFE1:
 412              		.size	I2COLED_I2CMasterReadBuf, .-I2COLED_I2CMasterReadBuf
 413              		.section	.text.I2COLED_I2CMasterSendStart,"ax",%progbits
 414              		.align	2
 415              		.global	I2COLED_I2CMasterSendStart
 416              		.code	16
 417              		.thumb_func
 418              		.type	I2COLED_I2CMasterSendStart, %function
 419              	I2COLED_I2CMasterSendStart:
 420              	.LFB2:
ARM GAS  C:\Users\jdrd3\AppData\Local\Temp\cch5OljY.s 			page 13


 265:Generated_Source\PSoC4/I2COLED_I2C_MASTER.c **** 
 266:Generated_Source\PSoC4/I2COLED_I2C_MASTER.c **** 
 267:Generated_Source\PSoC4/I2COLED_I2C_MASTER.c **** /*******************************************************************************
 268:Generated_Source\PSoC4/I2COLED_I2C_MASTER.c **** * Function Name: I2COLED_I2CMasterSendStart
 269:Generated_Source\PSoC4/I2COLED_I2C_MASTER.c **** ********************************************************************************
 270:Generated_Source\PSoC4/I2COLED_I2C_MASTER.c **** *
 271:Generated_Source\PSoC4/I2COLED_I2C_MASTER.c **** * Summary:
 272:Generated_Source\PSoC4/I2COLED_I2C_MASTER.c **** *  Generates Start condition and sends slave address with read/write bit.
 273:Generated_Source\PSoC4/I2COLED_I2C_MASTER.c **** *  Disables the I2C interrupt.
 274:Generated_Source\PSoC4/I2COLED_I2C_MASTER.c **** *  This function is blocking and does not return until start condition and
 275:Generated_Source\PSoC4/I2COLED_I2C_MASTER.c **** *  address byte are sent and ACK/NACK response is received or errors occurred.
 276:Generated_Source\PSoC4/I2COLED_I2C_MASTER.c **** *
 277:Generated_Source\PSoC4/I2COLED_I2C_MASTER.c **** * Parameters:
 278:Generated_Source\PSoC4/I2COLED_I2C_MASTER.c **** *  slaveAddress: Right justified 7-bit Slave address (valid range 8 to 120).
 279:Generated_Source\PSoC4/I2COLED_I2C_MASTER.c **** *  bitRnW:       Direction of the following transfer. It is defined by
 280:Generated_Source\PSoC4/I2COLED_I2C_MASTER.c **** *                read/write bit within address byte.
 281:Generated_Source\PSoC4/I2COLED_I2C_MASTER.c **** *
 282:Generated_Source\PSoC4/I2COLED_I2C_MASTER.c **** * Return:
 283:Generated_Source\PSoC4/I2COLED_I2C_MASTER.c **** *  Erorr status.
 284:Generated_Source\PSoC4/I2COLED_I2C_MASTER.c **** *
 285:Generated_Source\PSoC4/I2COLED_I2C_MASTER.c **** * Global variables:
 286:Generated_Source\PSoC4/I2COLED_I2C_MASTER.c **** *  I2COLED_state - used to store current state of software FSM.
 287:Generated_Source\PSoC4/I2COLED_I2C_MASTER.c **** *
 288:Generated_Source\PSoC4/I2COLED_I2C_MASTER.c **** *******************************************************************************/
 289:Generated_Source\PSoC4/I2COLED_I2C_MASTER.c **** uint32 I2COLED_I2CMasterSendStart(uint32 slaveAddress, uint32 bitRnW)
 290:Generated_Source\PSoC4/I2COLED_I2C_MASTER.c **** {
 421              		.loc 1 290 0
 422              		.cfi_startproc
 423              		@ args = 0, pretend = 0, frame = 16
 424              		@ frame_needed = 1, uses_anonymous_args = 0
 425 0000 80B5     		push	{r7, lr}
 426              		.cfi_def_cfa_offset 8
 427              		.cfi_offset 7, -8
 428              		.cfi_offset 14, -4
 429 0002 84B0     		sub	sp, sp, #16
 430              		.cfi_def_cfa_offset 24
 431 0004 00AF     		add	r7, sp, #0
 432              		.cfi_def_cfa_register 7
 433 0006 7860     		str	r0, [r7, #4]
 434 0008 3960     		str	r1, [r7]
 291:Generated_Source\PSoC4/I2COLED_I2C_MASTER.c ****     uint32  resetIp;
 292:Generated_Source\PSoC4/I2COLED_I2C_MASTER.c ****     uint32 errStatus;
 293:Generated_Source\PSoC4/I2COLED_I2C_MASTER.c **** 
 294:Generated_Source\PSoC4/I2COLED_I2C_MASTER.c ****     resetIp   = 0u;
 435              		.loc 1 294 0
 436 000a 0023     		movs	r3, #0
 437 000c FB60     		str	r3, [r7, #12]
 295:Generated_Source\PSoC4/I2COLED_I2C_MASTER.c ****     errStatus = I2COLED_I2C_MSTR_NOT_READY;
 438              		.loc 1 295 0
 439 000e 0423     		movs	r3, #4
 440 0010 BB60     		str	r3, [r7, #8]
 296:Generated_Source\PSoC4/I2COLED_I2C_MASTER.c **** 
 297:Generated_Source\PSoC4/I2COLED_I2C_MASTER.c ****     /* Check FSM state before generating Start condition */
 298:Generated_Source\PSoC4/I2COLED_I2C_MASTER.c ****     if(I2COLED_CHECK_I2C_FSM_IDLE)
 441              		.loc 1 298 0
 442 0012 384B     		ldr	r3, .L35
 443 0014 1B78     		ldrb	r3, [r3]
ARM GAS  C:\Users\jdrd3\AppData\Local\Temp\cch5OljY.s 			page 14


 444 0016 DBB2     		uxtb	r3, r3
 445 0018 102B     		cmp	r3, #16
 446 001a 66D1     		bne	.L25
 299:Generated_Source\PSoC4/I2COLED_I2C_MASTER.c ****     {
 300:Generated_Source\PSoC4/I2COLED_I2C_MASTER.c ****         /* If bus is free, generate Start condition */
 301:Generated_Source\PSoC4/I2COLED_I2C_MASTER.c ****         if(I2COLED_CHECK_I2C_STATUS(I2COLED_I2C_STATUS_BUS_BUSY))
 447              		.loc 1 301 0
 448 001c 364B     		ldr	r3, .L35+4
 449 001e 1B68     		ldr	r3, [r3]
 450 0020 0122     		movs	r2, #1
 451 0022 1340     		ands	r3, r2
 452 0024 02D0     		beq	.L26
 302:Generated_Source\PSoC4/I2COLED_I2C_MASTER.c ****         {
 303:Generated_Source\PSoC4/I2COLED_I2C_MASTER.c ****             errStatus = I2COLED_I2C_MSTR_BUS_BUSY;
 453              		.loc 1 303 0
 454 0026 0823     		movs	r3, #8
 455 0028 BB60     		str	r3, [r7, #8]
 456 002a 5EE0     		b	.L25
 457              	.L26:
 304:Generated_Source\PSoC4/I2COLED_I2C_MASTER.c ****         }
 305:Generated_Source\PSoC4/I2COLED_I2C_MASTER.c ****         else
 306:Generated_Source\PSoC4/I2COLED_I2C_MASTER.c ****         {
 307:Generated_Source\PSoC4/I2COLED_I2C_MASTER.c ****             I2COLED_DisableInt();  /* Lock from interruption */
 458              		.loc 1 307 0
 459 002c 0B20     		movs	r0, #11
 460 002e FFF7FEFF 		bl	CyIntDisable
 308:Generated_Source\PSoC4/I2COLED_I2C_MASTER.c **** 
 309:Generated_Source\PSoC4/I2COLED_I2C_MASTER.c ****         #if (!I2COLED_CY_SCBIP_V0 && \
 310:Generated_Source\PSoC4/I2COLED_I2C_MASTER.c ****             I2COLED_I2C_MULTI_MASTER_SLAVE_CONST && I2COLED_I2C_WAKE_ENABLE_CONST)
 311:Generated_Source\PSoC4/I2COLED_I2C_MASTER.c ****             I2COLED_I2CMasterDisableEcAm();
 312:Generated_Source\PSoC4/I2COLED_I2C_MASTER.c ****         #endif /* (!I2COLED_CY_SCBIP_V0) */
 313:Generated_Source\PSoC4/I2COLED_I2C_MASTER.c **** 
 314:Generated_Source\PSoC4/I2COLED_I2C_MASTER.c ****             slaveAddress = I2COLED_GET_I2C_8BIT_ADDRESS(slaveAddress);
 461              		.loc 1 314 0
 462 0032 7B68     		ldr	r3, [r7, #4]
 463 0034 5B00     		lsls	r3, r3, #1
 464 0036 FF22     		movs	r2, #255
 465 0038 1340     		ands	r3, r2
 466 003a 7B60     		str	r3, [r7, #4]
 315:Generated_Source\PSoC4/I2COLED_I2C_MASTER.c **** 
 316:Generated_Source\PSoC4/I2COLED_I2C_MASTER.c ****             if(0u == bitRnW) /* Write direction */
 467              		.loc 1 316 0
 468 003c 3B68     		ldr	r3, [r7]
 469 003e 002B     		cmp	r3, #0
 470 0040 03D1     		bne	.L27
 317:Generated_Source\PSoC4/I2COLED_I2C_MASTER.c ****             {
 318:Generated_Source\PSoC4/I2COLED_I2C_MASTER.c ****                 I2COLED_state = I2COLED_I2C_FSM_MSTR_WR_DATA;
 471              		.loc 1 318 0
 472 0042 2C4B     		ldr	r3, .L35
 473 0044 2422     		movs	r2, #36
 474 0046 1A70     		strb	r2, [r3]
 475 0048 06E0     		b	.L28
 476              	.L27:
 319:Generated_Source\PSoC4/I2COLED_I2C_MASTER.c ****             }
 320:Generated_Source\PSoC4/I2COLED_I2C_MASTER.c ****             else /* Read direction */
 321:Generated_Source\PSoC4/I2COLED_I2C_MASTER.c ****             {
 322:Generated_Source\PSoC4/I2COLED_I2C_MASTER.c ****                 I2COLED_state = I2COLED_I2C_FSM_MSTR_RD_DATA;
ARM GAS  C:\Users\jdrd3\AppData\Local\Temp\cch5OljY.s 			page 15


 477              		.loc 1 322 0
 478 004a 2A4B     		ldr	r3, .L35
 479 004c 2522     		movs	r2, #37
 480 004e 1A70     		strb	r2, [r3]
 323:Generated_Source\PSoC4/I2COLED_I2C_MASTER.c ****                          slaveAddress |= I2COLED_I2C_READ_FLAG;
 481              		.loc 1 323 0
 482 0050 7B68     		ldr	r3, [r7, #4]
 483 0052 0122     		movs	r2, #1
 484 0054 1343     		orrs	r3, r2
 485 0056 7B60     		str	r3, [r7, #4]
 486              	.L28:
 324:Generated_Source\PSoC4/I2COLED_I2C_MASTER.c ****             }
 325:Generated_Source\PSoC4/I2COLED_I2C_MASTER.c **** 
 326:Generated_Source\PSoC4/I2COLED_I2C_MASTER.c ****             /* TX and RX FIFO have to be EMPTY */
 327:Generated_Source\PSoC4/I2COLED_I2C_MASTER.c **** 
 328:Generated_Source\PSoC4/I2COLED_I2C_MASTER.c ****             I2COLED_TX_FIFO_WR_REG = slaveAddress; /* Put address in TX FIFO */
 487              		.loc 1 328 0
 488 0058 284B     		ldr	r3, .L35+8
 489 005a 7A68     		ldr	r2, [r7, #4]
 490 005c 1A60     		str	r2, [r3]
 329:Generated_Source\PSoC4/I2COLED_I2C_MASTER.c ****             I2COLED_ClearMasterInterruptSource(I2COLED_INTR_MASTER_ALL);
 491              		.loc 1 329 0
 492 005e 284B     		ldr	r3, .L35+12
 493 0060 284A     		ldr	r2, .L35+16
 494 0062 1A60     		str	r2, [r3]
 330:Generated_Source\PSoC4/I2COLED_I2C_MASTER.c **** 
 331:Generated_Source\PSoC4/I2COLED_I2C_MASTER.c ****             I2COLED_I2C_MASTER_GENERATE_START;
 495              		.loc 1 331 0
 496 0064 284B     		ldr	r3, .L35+20
 497 0066 0222     		movs	r2, #2
 498 0068 1A60     		str	r2, [r3]
 332:Generated_Source\PSoC4/I2COLED_I2C_MASTER.c **** 
 333:Generated_Source\PSoC4/I2COLED_I2C_MASTER.c **** 
 334:Generated_Source\PSoC4/I2COLED_I2C_MASTER.c ****             while(!I2COLED_CHECK_INTR_MASTER(I2COLED_INTR_MASTER_I2C_ACK      |
 499              		.loc 1 334 0
 500 006a C046     		nop
 501              	.L29:
 502              		.loc 1 334 0 is_stmt 0 discriminator 1
 503 006c 244B     		ldr	r3, .L35+12
 504 006e 1A68     		ldr	r2, [r3]
 505 0070 0823     		movs	r3, #8
 506 0072 FF33     		adds	r3, r3, #255
 507 0074 1340     		ands	r3, r2
 508 0076 F9D0     		beq	.L29
 335:Generated_Source\PSoC4/I2COLED_I2C_MASTER.c ****                                                       I2COLED_INTR_MASTER_I2C_NACK     |
 336:Generated_Source\PSoC4/I2COLED_I2C_MASTER.c ****                                                       I2COLED_INTR_MASTER_I2C_ARB_LOST |
 337:Generated_Source\PSoC4/I2COLED_I2C_MASTER.c ****                                                       I2COLED_INTR_MASTER_I2C_BUS_ERROR))
 338:Generated_Source\PSoC4/I2COLED_I2C_MASTER.c ****             {
 339:Generated_Source\PSoC4/I2COLED_I2C_MASTER.c ****                 /*
 340:Generated_Source\PSoC4/I2COLED_I2C_MASTER.c ****                 * Write: wait until address has been transferred
 341:Generated_Source\PSoC4/I2COLED_I2C_MASTER.c ****                 * Read : wait until address has been transferred, data byte is going to RX FIFO as 
 342:Generated_Source\PSoC4/I2COLED_I2C_MASTER.c ****                 */
 343:Generated_Source\PSoC4/I2COLED_I2C_MASTER.c ****             }
 344:Generated_Source\PSoC4/I2COLED_I2C_MASTER.c **** 
 345:Generated_Source\PSoC4/I2COLED_I2C_MASTER.c ****             /* Check the results of the address phase */
 346:Generated_Source\PSoC4/I2COLED_I2C_MASTER.c ****             if(I2COLED_CHECK_INTR_MASTER(I2COLED_INTR_MASTER_I2C_ACK))
 509              		.loc 1 346 0 is_stmt 1
ARM GAS  C:\Users\jdrd3\AppData\Local\Temp\cch5OljY.s 			page 16


 510 0078 214B     		ldr	r3, .L35+12
 511 007a 1B68     		ldr	r3, [r3]
 512 007c 0422     		movs	r2, #4
 513 007e 1340     		ands	r3, r2
 514 0080 02D0     		beq	.L30
 347:Generated_Source\PSoC4/I2COLED_I2C_MASTER.c ****             {
 348:Generated_Source\PSoC4/I2COLED_I2C_MASTER.c ****                 errStatus = I2COLED_I2C_MSTR_NO_ERROR;
 515              		.loc 1 348 0
 516 0082 0023     		movs	r3, #0
 517 0084 BB60     		str	r3, [r7, #8]
 518 0086 1CE0     		b	.L31
 519              	.L30:
 349:Generated_Source\PSoC4/I2COLED_I2C_MASTER.c ****             }
 350:Generated_Source\PSoC4/I2COLED_I2C_MASTER.c ****             else if(I2COLED_CHECK_INTR_MASTER(I2COLED_INTR_MASTER_I2C_NACK))
 520              		.loc 1 350 0
 521 0088 1D4B     		ldr	r3, .L35+12
 522 008a 1B68     		ldr	r3, [r3]
 523 008c 0222     		movs	r2, #2
 524 008e 1340     		ands	r3, r2
 525 0090 02D0     		beq	.L32
 351:Generated_Source\PSoC4/I2COLED_I2C_MASTER.c ****             {
 352:Generated_Source\PSoC4/I2COLED_I2C_MASTER.c ****                 errStatus = I2COLED_I2C_MSTR_ERR_LB_NAK;
 526              		.loc 1 352 0
 527 0092 0223     		movs	r3, #2
 528 0094 BB60     		str	r3, [r7, #8]
 529 0096 14E0     		b	.L31
 530              	.L32:
 353:Generated_Source\PSoC4/I2COLED_I2C_MASTER.c ****             }
 354:Generated_Source\PSoC4/I2COLED_I2C_MASTER.c ****             else if(I2COLED_CHECK_INTR_MASTER(I2COLED_INTR_MASTER_I2C_ARB_LOST))
 531              		.loc 1 354 0
 532 0098 194B     		ldr	r3, .L35+12
 533 009a 1B68     		ldr	r3, [r3]
 534 009c 0122     		movs	r2, #1
 535 009e 1340     		ands	r3, r2
 536 00a0 07D0     		beq	.L33
 355:Generated_Source\PSoC4/I2COLED_I2C_MASTER.c ****             {
 356:Generated_Source\PSoC4/I2COLED_I2C_MASTER.c ****                 I2COLED_state = I2COLED_I2C_FSM_IDLE;
 537              		.loc 1 356 0
 538 00a2 144B     		ldr	r3, .L35
 539 00a4 1022     		movs	r2, #16
 540 00a6 1A70     		strb	r2, [r3]
 357:Generated_Source\PSoC4/I2COLED_I2C_MASTER.c ****                              errStatus = I2COLED_I2C_MSTR_ERR_ARB_LOST;
 541              		.loc 1 357 0
 542 00a8 0123     		movs	r3, #1
 543 00aa BB60     		str	r3, [r7, #8]
 358:Generated_Source\PSoC4/I2COLED_I2C_MASTER.c ****                              resetIp   = I2COLED_I2C_RESET_ERROR;
 544              		.loc 1 358 0
 545 00ac 0123     		movs	r3, #1
 546 00ae FB60     		str	r3, [r7, #12]
 547 00b0 07E0     		b	.L31
 548              	.L33:
 359:Generated_Source\PSoC4/I2COLED_I2C_MASTER.c ****             }
 360:Generated_Source\PSoC4/I2COLED_I2C_MASTER.c ****             else /* I2COLED_INTR_MASTER_I2C_BUS_ERROR set is else condition */
 361:Generated_Source\PSoC4/I2COLED_I2C_MASTER.c ****             {
 362:Generated_Source\PSoC4/I2COLED_I2C_MASTER.c ****                 I2COLED_state = I2COLED_I2C_FSM_IDLE;
 549              		.loc 1 362 0
 550 00b2 104B     		ldr	r3, .L35
ARM GAS  C:\Users\jdrd3\AppData\Local\Temp\cch5OljY.s 			page 17


 551 00b4 1022     		movs	r2, #16
 552 00b6 1A70     		strb	r2, [r3]
 363:Generated_Source\PSoC4/I2COLED_I2C_MASTER.c ****                              errStatus = I2COLED_I2C_MSTR_ERR_BUS_ERR;
 553              		.loc 1 363 0
 554 00b8 8023     		movs	r3, #128
 555 00ba 5B00     		lsls	r3, r3, #1
 556 00bc BB60     		str	r3, [r7, #8]
 364:Generated_Source\PSoC4/I2COLED_I2C_MASTER.c ****                              resetIp   = I2COLED_I2C_RESET_ERROR;
 557              		.loc 1 364 0
 558 00be 0123     		movs	r3, #1
 559 00c0 FB60     		str	r3, [r7, #12]
 560              	.L31:
 365:Generated_Source\PSoC4/I2COLED_I2C_MASTER.c ****             }
 366:Generated_Source\PSoC4/I2COLED_I2C_MASTER.c **** 
 367:Generated_Source\PSoC4/I2COLED_I2C_MASTER.c ****             I2COLED_ClearMasterInterruptSource(I2COLED_INTR_MASTER_I2C_ACK      |
 561              		.loc 1 367 0
 562 00c2 0F4B     		ldr	r3, .L35+12
 563 00c4 0822     		movs	r2, #8
 564 00c6 FF32     		adds	r2, r2, #255
 565 00c8 1A60     		str	r2, [r3]
 368:Generated_Source\PSoC4/I2COLED_I2C_MASTER.c ****                                                         I2COLED_INTR_MASTER_I2C_NACK     |
 369:Generated_Source\PSoC4/I2COLED_I2C_MASTER.c ****                                                         I2COLED_INTR_MASTER_I2C_ARB_LOST |
 370:Generated_Source\PSoC4/I2COLED_I2C_MASTER.c ****                                                         I2COLED_INTR_MASTER_I2C_BUS_ERROR);
 371:Generated_Source\PSoC4/I2COLED_I2C_MASTER.c **** 
 372:Generated_Source\PSoC4/I2COLED_I2C_MASTER.c ****             /* Reset block in case of: LOST_ARB or BUS_ERR */
 373:Generated_Source\PSoC4/I2COLED_I2C_MASTER.c ****             if(0u != resetIp)
 566              		.loc 1 373 0
 567 00ca FB68     		ldr	r3, [r7, #12]
 568 00cc 002B     		cmp	r3, #0
 569 00ce 0CD0     		beq	.L25
 374:Generated_Source\PSoC4/I2COLED_I2C_MASTER.c ****             {
 375:Generated_Source\PSoC4/I2COLED_I2C_MASTER.c ****                 I2COLED_SCB_SW_RESET;
 570              		.loc 1 375 0
 571 00d0 0E4B     		ldr	r3, .L35+24
 572 00d2 0E4A     		ldr	r2, .L35+24
 573 00d4 1268     		ldr	r2, [r2]
 574 00d6 5200     		lsls	r2, r2, #1
 575 00d8 5208     		lsrs	r2, r2, #1
 576 00da 1A60     		str	r2, [r3]
 577 00dc 0B4B     		ldr	r3, .L35+24
 578 00de 0B4A     		ldr	r2, .L35+24
 579 00e0 1268     		ldr	r2, [r2]
 580 00e2 8021     		movs	r1, #128
 581 00e4 0906     		lsls	r1, r1, #24
 582 00e6 0A43     		orrs	r2, r1
 583 00e8 1A60     		str	r2, [r3]
 584              	.L25:
 376:Generated_Source\PSoC4/I2COLED_I2C_MASTER.c ****             }
 377:Generated_Source\PSoC4/I2COLED_I2C_MASTER.c ****         }
 378:Generated_Source\PSoC4/I2COLED_I2C_MASTER.c ****     }
 379:Generated_Source\PSoC4/I2COLED_I2C_MASTER.c **** 
 380:Generated_Source\PSoC4/I2COLED_I2C_MASTER.c ****     return(errStatus);
 585              		.loc 1 380 0
 586 00ea BB68     		ldr	r3, [r7, #8]
 381:Generated_Source\PSoC4/I2COLED_I2C_MASTER.c **** }
 587              		.loc 1 381 0
 588 00ec 1800     		movs	r0, r3
ARM GAS  C:\Users\jdrd3\AppData\Local\Temp\cch5OljY.s 			page 18


 589 00ee BD46     		mov	sp, r7
 590 00f0 04B0     		add	sp, sp, #16
 591              		@ sp needed
 592 00f2 80BD     		pop	{r7, pc}
 593              	.L36:
 594              		.align	2
 595              	.L35:
 596 00f4 00000000 		.word	I2COLED_state
 597 00f8 64000740 		.word	1074200676
 598 00fc 40020740 		.word	1074201152
 599 0100 000F0740 		.word	1074204416
 600 0104 17030000 		.word	791
 601 0108 68000740 		.word	1074200680
 602 010c 00000740 		.word	1074200576
 603              		.cfi_endproc
 604              	.LFE2:
 605              		.size	I2COLED_I2CMasterSendStart, .-I2COLED_I2CMasterSendStart
 606              		.section	.text.I2COLED_I2CMasterSendRestart,"ax",%progbits
 607              		.align	2
 608              		.global	I2COLED_I2CMasterSendRestart
 609              		.code	16
 610              		.thumb_func
 611              		.type	I2COLED_I2CMasterSendRestart, %function
 612              	I2COLED_I2CMasterSendRestart:
 613              	.LFB3:
 382:Generated_Source\PSoC4/I2COLED_I2C_MASTER.c **** 
 383:Generated_Source\PSoC4/I2COLED_I2C_MASTER.c **** 
 384:Generated_Source\PSoC4/I2COLED_I2C_MASTER.c **** /*******************************************************************************
 385:Generated_Source\PSoC4/I2COLED_I2C_MASTER.c **** * Function Name: I2COLED_I2CMasterSendRestart
 386:Generated_Source\PSoC4/I2COLED_I2C_MASTER.c **** ********************************************************************************
 387:Generated_Source\PSoC4/I2COLED_I2C_MASTER.c **** *
 388:Generated_Source\PSoC4/I2COLED_I2C_MASTER.c **** * Summary:
 389:Generated_Source\PSoC4/I2COLED_I2C_MASTER.c **** *  Generates Restart condition and sends slave address with read/write bit.
 390:Generated_Source\PSoC4/I2COLED_I2C_MASTER.c **** *  This function is blocking and does not return until start condition and
 391:Generated_Source\PSoC4/I2COLED_I2C_MASTER.c **** *  address are sent and ACK/NACK response is received or errors occurred.
 392:Generated_Source\PSoC4/I2COLED_I2C_MASTER.c **** *
 393:Generated_Source\PSoC4/I2COLED_I2C_MASTER.c **** * Parameters:
 394:Generated_Source\PSoC4/I2COLED_I2C_MASTER.c **** *  slaveAddress: Right justified 7-bit Slave address (valid range 8 to 120).
 395:Generated_Source\PSoC4/I2COLED_I2C_MASTER.c **** *  bitRnW:       Direction of the following transfer. It is defined by
 396:Generated_Source\PSoC4/I2COLED_I2C_MASTER.c **** *                read/write bit within address byte.
 397:Generated_Source\PSoC4/I2COLED_I2C_MASTER.c **** *
 398:Generated_Source\PSoC4/I2COLED_I2C_MASTER.c **** * Return:
 399:Generated_Source\PSoC4/I2COLED_I2C_MASTER.c **** *  Error status
 400:Generated_Source\PSoC4/I2COLED_I2C_MASTER.c **** *
 401:Generated_Source\PSoC4/I2COLED_I2C_MASTER.c **** *
 402:Generated_Source\PSoC4/I2COLED_I2C_MASTER.c **** * Global variables:
 403:Generated_Source\PSoC4/I2COLED_I2C_MASTER.c **** *  I2COLED_state - used to store current state of software FSM.
 404:Generated_Source\PSoC4/I2COLED_I2C_MASTER.c **** *
 405:Generated_Source\PSoC4/I2COLED_I2C_MASTER.c **** *******************************************************************************/
 406:Generated_Source\PSoC4/I2COLED_I2C_MASTER.c **** uint32 I2COLED_I2CMasterSendRestart(uint32 slaveAddress, uint32 bitRnW)
 407:Generated_Source\PSoC4/I2COLED_I2C_MASTER.c **** {
 614              		.loc 1 407 0
 615              		.cfi_startproc
 616              		@ args = 0, pretend = 0, frame = 16
 617              		@ frame_needed = 1, uses_anonymous_args = 0
 618 0000 80B5     		push	{r7, lr}
 619              		.cfi_def_cfa_offset 8
ARM GAS  C:\Users\jdrd3\AppData\Local\Temp\cch5OljY.s 			page 19


 620              		.cfi_offset 7, -8
 621              		.cfi_offset 14, -4
 622 0002 84B0     		sub	sp, sp, #16
 623              		.cfi_def_cfa_offset 24
 624 0004 00AF     		add	r7, sp, #0
 625              		.cfi_def_cfa_register 7
 626 0006 7860     		str	r0, [r7, #4]
 627 0008 3960     		str	r1, [r7]
 408:Generated_Source\PSoC4/I2COLED_I2C_MASTER.c ****     uint32 resetIp;
 409:Generated_Source\PSoC4/I2COLED_I2C_MASTER.c ****     uint32 errStatus;
 410:Generated_Source\PSoC4/I2COLED_I2C_MASTER.c **** 
 411:Generated_Source\PSoC4/I2COLED_I2C_MASTER.c ****     resetIp   = 0u;
 628              		.loc 1 411 0
 629 000a 0023     		movs	r3, #0
 630 000c FB60     		str	r3, [r7, #12]
 412:Generated_Source\PSoC4/I2COLED_I2C_MASTER.c ****     errStatus = I2COLED_I2C_MSTR_NOT_READY;
 631              		.loc 1 412 0
 632 000e 0423     		movs	r3, #4
 633 0010 BB60     		str	r3, [r7, #8]
 413:Generated_Source\PSoC4/I2COLED_I2C_MASTER.c **** 
 414:Generated_Source\PSoC4/I2COLED_I2C_MASTER.c ****     /* Check FSM state before generating ReStart condition */
 415:Generated_Source\PSoC4/I2COLED_I2C_MASTER.c ****     if(I2COLED_CHECK_I2C_MASTER_ACTIVE)
 634              		.loc 1 415 0
 635 0012 374B     		ldr	r3, .L48
 636 0014 1B78     		ldrb	r3, [r3]
 637 0016 DBB2     		uxtb	r3, r3
 638 0018 2022     		movs	r2, #32
 639 001a 1340     		ands	r3, r2
 640 001c DBB2     		uxtb	r3, r3
 641 001e 002B     		cmp	r3, #0
 642 0020 60D0     		beq	.L38
 416:Generated_Source\PSoC4/I2COLED_I2C_MASTER.c ****     {
 417:Generated_Source\PSoC4/I2COLED_I2C_MASTER.c ****         slaveAddress = I2COLED_GET_I2C_8BIT_ADDRESS(slaveAddress);
 643              		.loc 1 417 0
 644 0022 7B68     		ldr	r3, [r7, #4]
 645 0024 5B00     		lsls	r3, r3, #1
 646 0026 FF22     		movs	r2, #255
 647 0028 1340     		ands	r3, r2
 648 002a 7B60     		str	r3, [r7, #4]
 418:Generated_Source\PSoC4/I2COLED_I2C_MASTER.c **** 
 419:Generated_Source\PSoC4/I2COLED_I2C_MASTER.c ****         if(0u == bitRnW) /* Write direction */
 649              		.loc 1 419 0
 650 002c 3B68     		ldr	r3, [r7]
 651 002e 002B     		cmp	r3, #0
 652 0030 03D1     		bne	.L39
 420:Generated_Source\PSoC4/I2COLED_I2C_MASTER.c ****         {
 421:Generated_Source\PSoC4/I2COLED_I2C_MASTER.c ****             I2COLED_state = I2COLED_I2C_FSM_MSTR_WR_DATA;
 653              		.loc 1 421 0
 654 0032 2F4B     		ldr	r3, .L48
 655 0034 2422     		movs	r2, #36
 656 0036 1A70     		strb	r2, [r3]
 657 0038 06E0     		b	.L40
 658              	.L39:
 422:Generated_Source\PSoC4/I2COLED_I2C_MASTER.c ****         }
 423:Generated_Source\PSoC4/I2COLED_I2C_MASTER.c ****         else  /* Read direction */
 424:Generated_Source\PSoC4/I2COLED_I2C_MASTER.c ****         {
 425:Generated_Source\PSoC4/I2COLED_I2C_MASTER.c ****             I2COLED_state  = I2COLED_I2C_FSM_MSTR_RD_DATA;
ARM GAS  C:\Users\jdrd3\AppData\Local\Temp\cch5OljY.s 			page 20


 659              		.loc 1 425 0
 660 003a 2D4B     		ldr	r3, .L48
 661 003c 2522     		movs	r2, #37
 662 003e 1A70     		strb	r2, [r3]
 426:Generated_Source\PSoC4/I2COLED_I2C_MASTER.c ****                       slaveAddress |= I2COLED_I2C_READ_FLAG;
 663              		.loc 1 426 0
 664 0040 7B68     		ldr	r3, [r7, #4]
 665 0042 0122     		movs	r2, #1
 666 0044 1343     		orrs	r3, r2
 667 0046 7B60     		str	r3, [r7, #4]
 668              	.L40:
 427:Generated_Source\PSoC4/I2COLED_I2C_MASTER.c ****         }
 428:Generated_Source\PSoC4/I2COLED_I2C_MASTER.c **** 
 429:Generated_Source\PSoC4/I2COLED_I2C_MASTER.c ****         /* TX and RX FIFO have to be EMPTY */
 430:Generated_Source\PSoC4/I2COLED_I2C_MASTER.c **** 
 431:Generated_Source\PSoC4/I2COLED_I2C_MASTER.c ****         /* Clean-up interrupt status */
 432:Generated_Source\PSoC4/I2COLED_I2C_MASTER.c ****         I2COLED_ClearMasterInterruptSource(I2COLED_INTR_MASTER_ALL);
 669              		.loc 1 432 0
 670 0048 2A4B     		ldr	r3, .L48+4
 671 004a 2B4A     		ldr	r2, .L48+8
 672 004c 1A60     		str	r2, [r3]
 433:Generated_Source\PSoC4/I2COLED_I2C_MASTER.c **** 
 434:Generated_Source\PSoC4/I2COLED_I2C_MASTER.c ****         /* A proper ReStart sequence is: generate ReStart, then put an address byte in the TX FIFO.
 435:Generated_Source\PSoC4/I2COLED_I2C_MASTER.c ****         * Otherwise the master treats the address in the TX FIFO as a data byte if a previous trans
 436:Generated_Source\PSoC4/I2COLED_I2C_MASTER.c ****         * The write transfer continues instead of ReStart.
 437:Generated_Source\PSoC4/I2COLED_I2C_MASTER.c ****         */
 438:Generated_Source\PSoC4/I2COLED_I2C_MASTER.c ****         I2COLED_I2C_MASTER_GENERATE_RESTART;
 673              		.loc 1 438 0
 674 004e FFF7FEFF 		bl	I2COLED_I2CReStartGeneration
 439:Generated_Source\PSoC4/I2COLED_I2C_MASTER.c **** 
 440:Generated_Source\PSoC4/I2COLED_I2C_MASTER.c ****         while(I2COLED_CHECK_I2C_MASTER_CMD(I2COLED_I2C_MASTER_CMD_M_START))
 675              		.loc 1 440 0
 676 0052 C046     		nop
 677              	.L41:
 678              		.loc 1 440 0 is_stmt 0 discriminator 1
 679 0054 294B     		ldr	r3, .L48+12
 680 0056 1B68     		ldr	r3, [r3]
 681 0058 0122     		movs	r2, #1
 682 005a 1340     		ands	r3, r2
 683 005c FAD1     		bne	.L41
 441:Generated_Source\PSoC4/I2COLED_I2C_MASTER.c ****         {
 442:Generated_Source\PSoC4/I2COLED_I2C_MASTER.c ****             /* Wait until ReStart has been generated */
 443:Generated_Source\PSoC4/I2COLED_I2C_MASTER.c ****         }
 444:Generated_Source\PSoC4/I2COLED_I2C_MASTER.c **** 
 445:Generated_Source\PSoC4/I2COLED_I2C_MASTER.c ****         /* Put address into TX FIFO */
 446:Generated_Source\PSoC4/I2COLED_I2C_MASTER.c ****         I2COLED_TX_FIFO_WR_REG = slaveAddress;
 684              		.loc 1 446 0 is_stmt 1
 685 005e 284B     		ldr	r3, .L48+16
 686 0060 7A68     		ldr	r2, [r7, #4]
 687 0062 1A60     		str	r2, [r3]
 447:Generated_Source\PSoC4/I2COLED_I2C_MASTER.c **** 
 448:Generated_Source\PSoC4/I2COLED_I2C_MASTER.c ****         /* Wait for address to be transferred */
 449:Generated_Source\PSoC4/I2COLED_I2C_MASTER.c ****         while(!I2COLED_CHECK_INTR_MASTER(I2COLED_INTR_MASTER_I2C_ACK      |
 688              		.loc 1 449 0
 689 0064 C046     		nop
 690              	.L42:
 691              		.loc 1 449 0 is_stmt 0 discriminator 1
ARM GAS  C:\Users\jdrd3\AppData\Local\Temp\cch5OljY.s 			page 21


 692 0066 234B     		ldr	r3, .L48+4
 693 0068 1A68     		ldr	r2, [r3]
 694 006a 0823     		movs	r3, #8
 695 006c FF33     		adds	r3, r3, #255
 696 006e 1340     		ands	r3, r2
 697 0070 F9D0     		beq	.L42
 450:Generated_Source\PSoC4/I2COLED_I2C_MASTER.c ****                                                   I2COLED_INTR_MASTER_I2C_NACK     |
 451:Generated_Source\PSoC4/I2COLED_I2C_MASTER.c ****                                                   I2COLED_INTR_MASTER_I2C_ARB_LOST |
 452:Generated_Source\PSoC4/I2COLED_I2C_MASTER.c ****                                                   I2COLED_INTR_MASTER_I2C_BUS_ERROR))
 453:Generated_Source\PSoC4/I2COLED_I2C_MASTER.c ****         {
 454:Generated_Source\PSoC4/I2COLED_I2C_MASTER.c ****             /* Wait until address has been transferred */
 455:Generated_Source\PSoC4/I2COLED_I2C_MASTER.c ****         }
 456:Generated_Source\PSoC4/I2COLED_I2C_MASTER.c **** 
 457:Generated_Source\PSoC4/I2COLED_I2C_MASTER.c ****         /* Check results of address phase */
 458:Generated_Source\PSoC4/I2COLED_I2C_MASTER.c ****         if(I2COLED_CHECK_INTR_MASTER(I2COLED_INTR_MASTER_I2C_ACK))
 698              		.loc 1 458 0 is_stmt 1
 699 0072 204B     		ldr	r3, .L48+4
 700 0074 1B68     		ldr	r3, [r3]
 701 0076 0422     		movs	r2, #4
 702 0078 1340     		ands	r3, r2
 703 007a 02D0     		beq	.L43
 459:Generated_Source\PSoC4/I2COLED_I2C_MASTER.c ****         {
 460:Generated_Source\PSoC4/I2COLED_I2C_MASTER.c ****             errStatus = I2COLED_I2C_MSTR_NO_ERROR;
 704              		.loc 1 460 0
 705 007c 0023     		movs	r3, #0
 706 007e BB60     		str	r3, [r7, #8]
 707 0080 1CE0     		b	.L44
 708              	.L43:
 461:Generated_Source\PSoC4/I2COLED_I2C_MASTER.c ****         }
 462:Generated_Source\PSoC4/I2COLED_I2C_MASTER.c ****         else if(I2COLED_CHECK_INTR_MASTER(I2COLED_INTR_MASTER_I2C_NACK))
 709              		.loc 1 462 0
 710 0082 1C4B     		ldr	r3, .L48+4
 711 0084 1B68     		ldr	r3, [r3]
 712 0086 0222     		movs	r2, #2
 713 0088 1340     		ands	r3, r2
 714 008a 02D0     		beq	.L45
 463:Generated_Source\PSoC4/I2COLED_I2C_MASTER.c ****         {
 464:Generated_Source\PSoC4/I2COLED_I2C_MASTER.c ****              errStatus = I2COLED_I2C_MSTR_ERR_LB_NAK;
 715              		.loc 1 464 0
 716 008c 0223     		movs	r3, #2
 717 008e BB60     		str	r3, [r7, #8]
 718 0090 14E0     		b	.L44
 719              	.L45:
 465:Generated_Source\PSoC4/I2COLED_I2C_MASTER.c ****         }
 466:Generated_Source\PSoC4/I2COLED_I2C_MASTER.c ****         else if(I2COLED_CHECK_INTR_MASTER(I2COLED_INTR_MASTER_I2C_ARB_LOST))
 720              		.loc 1 466 0
 721 0092 184B     		ldr	r3, .L48+4
 722 0094 1B68     		ldr	r3, [r3]
 723 0096 0122     		movs	r2, #1
 724 0098 1340     		ands	r3, r2
 725 009a 07D0     		beq	.L46
 467:Generated_Source\PSoC4/I2COLED_I2C_MASTER.c ****         {
 468:Generated_Source\PSoC4/I2COLED_I2C_MASTER.c ****             I2COLED_state = I2COLED_I2C_FSM_IDLE;
 726              		.loc 1 468 0
 727 009c 144B     		ldr	r3, .L48
 728 009e 1022     		movs	r2, #16
 729 00a0 1A70     		strb	r2, [r3]
ARM GAS  C:\Users\jdrd3\AppData\Local\Temp\cch5OljY.s 			page 22


 469:Generated_Source\PSoC4/I2COLED_I2C_MASTER.c ****                          errStatus = I2COLED_I2C_MSTR_ERR_ARB_LOST;
 730              		.loc 1 469 0
 731 00a2 0123     		movs	r3, #1
 732 00a4 BB60     		str	r3, [r7, #8]
 470:Generated_Source\PSoC4/I2COLED_I2C_MASTER.c ****                          resetIp   = I2COLED_I2C_RESET_ERROR;
 733              		.loc 1 470 0
 734 00a6 0123     		movs	r3, #1
 735 00a8 FB60     		str	r3, [r7, #12]
 736 00aa 07E0     		b	.L44
 737              	.L46:
 471:Generated_Source\PSoC4/I2COLED_I2C_MASTER.c ****         }
 472:Generated_Source\PSoC4/I2COLED_I2C_MASTER.c ****         else /* I2COLED_INTR_MASTER_I2C_BUS_ERROR set is else condition */
 473:Generated_Source\PSoC4/I2COLED_I2C_MASTER.c ****         {
 474:Generated_Source\PSoC4/I2COLED_I2C_MASTER.c ****             I2COLED_state = I2COLED_I2C_FSM_IDLE;
 738              		.loc 1 474 0
 739 00ac 104B     		ldr	r3, .L48
 740 00ae 1022     		movs	r2, #16
 741 00b0 1A70     		strb	r2, [r3]
 475:Generated_Source\PSoC4/I2COLED_I2C_MASTER.c ****                          errStatus = I2COLED_I2C_MSTR_ERR_BUS_ERR;
 742              		.loc 1 475 0
 743 00b2 8023     		movs	r3, #128
 744 00b4 5B00     		lsls	r3, r3, #1
 745 00b6 BB60     		str	r3, [r7, #8]
 476:Generated_Source\PSoC4/I2COLED_I2C_MASTER.c ****                          resetIp   = I2COLED_I2C_RESET_ERROR;
 746              		.loc 1 476 0
 747 00b8 0123     		movs	r3, #1
 748 00ba FB60     		str	r3, [r7, #12]
 749              	.L44:
 477:Generated_Source\PSoC4/I2COLED_I2C_MASTER.c ****         }
 478:Generated_Source\PSoC4/I2COLED_I2C_MASTER.c **** 
 479:Generated_Source\PSoC4/I2COLED_I2C_MASTER.c ****         I2COLED_ClearMasterInterruptSource(I2COLED_INTR_MASTER_I2C_ACK      |
 750              		.loc 1 479 0
 751 00bc 0D4B     		ldr	r3, .L48+4
 752 00be 0822     		movs	r2, #8
 753 00c0 FF32     		adds	r2, r2, #255
 754 00c2 1A60     		str	r2, [r3]
 480:Generated_Source\PSoC4/I2COLED_I2C_MASTER.c ****                                                     I2COLED_INTR_MASTER_I2C_NACK     |
 481:Generated_Source\PSoC4/I2COLED_I2C_MASTER.c ****                                                     I2COLED_INTR_MASTER_I2C_ARB_LOST |
 482:Generated_Source\PSoC4/I2COLED_I2C_MASTER.c ****                                                     I2COLED_INTR_MASTER_I2C_BUS_ERROR);
 483:Generated_Source\PSoC4/I2COLED_I2C_MASTER.c **** 
 484:Generated_Source\PSoC4/I2COLED_I2C_MASTER.c ****         /* Reset block in case of: LOST_ARB or BUS_ERR */
 485:Generated_Source\PSoC4/I2COLED_I2C_MASTER.c ****         if(0u != resetIp)
 755              		.loc 1 485 0
 756 00c4 FB68     		ldr	r3, [r7, #12]
 757 00c6 002B     		cmp	r3, #0
 758 00c8 0CD0     		beq	.L38
 486:Generated_Source\PSoC4/I2COLED_I2C_MASTER.c ****         {
 487:Generated_Source\PSoC4/I2COLED_I2C_MASTER.c ****             I2COLED_SCB_SW_RESET;
 759              		.loc 1 487 0
 760 00ca 0E4B     		ldr	r3, .L48+20
 761 00cc 0D4A     		ldr	r2, .L48+20
 762 00ce 1268     		ldr	r2, [r2]
 763 00d0 5200     		lsls	r2, r2, #1
 764 00d2 5208     		lsrs	r2, r2, #1
 765 00d4 1A60     		str	r2, [r3]
 766 00d6 0B4B     		ldr	r3, .L48+20
 767 00d8 0A4A     		ldr	r2, .L48+20
ARM GAS  C:\Users\jdrd3\AppData\Local\Temp\cch5OljY.s 			page 23


 768 00da 1268     		ldr	r2, [r2]
 769 00dc 8021     		movs	r1, #128
 770 00de 0906     		lsls	r1, r1, #24
 771 00e0 0A43     		orrs	r2, r1
 772 00e2 1A60     		str	r2, [r3]
 773              	.L38:
 488:Generated_Source\PSoC4/I2COLED_I2C_MASTER.c ****         }
 489:Generated_Source\PSoC4/I2COLED_I2C_MASTER.c ****     }
 490:Generated_Source\PSoC4/I2COLED_I2C_MASTER.c **** 
 491:Generated_Source\PSoC4/I2COLED_I2C_MASTER.c ****     return(errStatus);
 774              		.loc 1 491 0
 775 00e4 BB68     		ldr	r3, [r7, #8]
 492:Generated_Source\PSoC4/I2COLED_I2C_MASTER.c **** }
 776              		.loc 1 492 0
 777 00e6 1800     		movs	r0, r3
 778 00e8 BD46     		mov	sp, r7
 779 00ea 04B0     		add	sp, sp, #16
 780              		@ sp needed
 781 00ec 80BD     		pop	{r7, pc}
 782              	.L49:
 783 00ee C046     		.align	2
 784              	.L48:
 785 00f0 00000000 		.word	I2COLED_state
 786 00f4 000F0740 		.word	1074204416
 787 00f8 17030000 		.word	791
 788 00fc 68000740 		.word	1074200680
 789 0100 40020740 		.word	1074201152
 790 0104 00000740 		.word	1074200576
 791              		.cfi_endproc
 792              	.LFE3:
 793              		.size	I2COLED_I2CMasterSendRestart, .-I2COLED_I2CMasterSendRestart
 794              		.section	.text.I2COLED_I2CMasterSendStop,"ax",%progbits
 795              		.align	2
 796              		.global	I2COLED_I2CMasterSendStop
 797              		.code	16
 798              		.thumb_func
 799              		.type	I2COLED_I2CMasterSendStop, %function
 800              	I2COLED_I2CMasterSendStop:
 801              	.LFB4:
 493:Generated_Source\PSoC4/I2COLED_I2C_MASTER.c **** 
 494:Generated_Source\PSoC4/I2COLED_I2C_MASTER.c **** 
 495:Generated_Source\PSoC4/I2COLED_I2C_MASTER.c **** /*******************************************************************************
 496:Generated_Source\PSoC4/I2COLED_I2C_MASTER.c **** * Function Name: I2COLED_I2CMasterSendStop
 497:Generated_Source\PSoC4/I2COLED_I2C_MASTER.c **** ********************************************************************************
 498:Generated_Source\PSoC4/I2COLED_I2C_MASTER.c **** *
 499:Generated_Source\PSoC4/I2COLED_I2C_MASTER.c **** * Summary:
 500:Generated_Source\PSoC4/I2COLED_I2C_MASTER.c **** *  Generates Stop condition on the bus.
 501:Generated_Source\PSoC4/I2COLED_I2C_MASTER.c **** *  At least one byte has to be read if start or restart condition with read
 502:Generated_Source\PSoC4/I2COLED_I2C_MASTER.c **** *  direction was generated before.
 503:Generated_Source\PSoC4/I2COLED_I2C_MASTER.c **** *  This function is blocking and does not return until a stop condition
 504:Generated_Source\PSoC4/I2COLED_I2C_MASTER.c **** *  is generated or error occurred.
 505:Generated_Source\PSoC4/I2COLED_I2C_MASTER.c **** *
 506:Generated_Source\PSoC4/I2COLED_I2C_MASTER.c **** * Parameters:
 507:Generated_Source\PSoC4/I2COLED_I2C_MASTER.c **** *  None
 508:Generated_Source\PSoC4/I2COLED_I2C_MASTER.c **** *
 509:Generated_Source\PSoC4/I2COLED_I2C_MASTER.c **** * Return:
 510:Generated_Source\PSoC4/I2COLED_I2C_MASTER.c **** *  Error status
ARM GAS  C:\Users\jdrd3\AppData\Local\Temp\cch5OljY.s 			page 24


 511:Generated_Source\PSoC4/I2COLED_I2C_MASTER.c **** *
 512:Generated_Source\PSoC4/I2COLED_I2C_MASTER.c **** * Side Effects:
 513:Generated_Source\PSoC4/I2COLED_I2C_MASTER.c **** *  A valid Start or ReStart condition must be generated before calling
 514:Generated_Source\PSoC4/I2COLED_I2C_MASTER.c **** *  this function. This function does nothing if Start or ReStart condition
 515:Generated_Source\PSoC4/I2COLED_I2C_MASTER.c **** *  failed before this function was called.
 516:Generated_Source\PSoC4/I2COLED_I2C_MASTER.c **** *  For read transfer, at least one byte has to be read before Stop generation.
 517:Generated_Source\PSoC4/I2COLED_I2C_MASTER.c **** *
 518:Generated_Source\PSoC4/I2COLED_I2C_MASTER.c **** * Global variables:
 519:Generated_Source\PSoC4/I2COLED_I2C_MASTER.c **** *  I2COLED_state - used to store current state of software FSM.
 520:Generated_Source\PSoC4/I2COLED_I2C_MASTER.c **** *
 521:Generated_Source\PSoC4/I2COLED_I2C_MASTER.c **** *******************************************************************************/
 522:Generated_Source\PSoC4/I2COLED_I2C_MASTER.c **** uint32 I2COLED_I2CMasterSendStop(void)
 523:Generated_Source\PSoC4/I2COLED_I2C_MASTER.c **** {
 802              		.loc 1 523 0
 803              		.cfi_startproc
 804              		@ args = 0, pretend = 0, frame = 8
 805              		@ frame_needed = 1, uses_anonymous_args = 0
 806 0000 80B5     		push	{r7, lr}
 807              		.cfi_def_cfa_offset 8
 808              		.cfi_offset 7, -8
 809              		.cfi_offset 14, -4
 810 0002 82B0     		sub	sp, sp, #8
 811              		.cfi_def_cfa_offset 16
 812 0004 00AF     		add	r7, sp, #0
 813              		.cfi_def_cfa_register 7
 524:Generated_Source\PSoC4/I2COLED_I2C_MASTER.c ****     uint32 resetIp;
 525:Generated_Source\PSoC4/I2COLED_I2C_MASTER.c ****     uint32 errStatus;
 526:Generated_Source\PSoC4/I2COLED_I2C_MASTER.c **** 
 527:Generated_Source\PSoC4/I2COLED_I2C_MASTER.c ****     resetIp   = 0u;
 814              		.loc 1 527 0
 815 0006 0023     		movs	r3, #0
 816 0008 7B60     		str	r3, [r7, #4]
 528:Generated_Source\PSoC4/I2COLED_I2C_MASTER.c ****     errStatus = I2COLED_I2C_MSTR_NOT_READY;
 817              		.loc 1 528 0
 818 000a 0423     		movs	r3, #4
 819 000c 3B60     		str	r3, [r7]
 529:Generated_Source\PSoC4/I2COLED_I2C_MASTER.c **** 
 530:Generated_Source\PSoC4/I2COLED_I2C_MASTER.c ****     /* Check FSM state before generating Stop condition */
 531:Generated_Source\PSoC4/I2COLED_I2C_MASTER.c ****     if(I2COLED_CHECK_I2C_MASTER_ACTIVE)
 820              		.loc 1 531 0
 821 000e 264B     		ldr	r3, .L59
 822 0010 1B78     		ldrb	r3, [r3]
 823 0012 DBB2     		uxtb	r3, r3
 824 0014 2022     		movs	r2, #32
 825 0016 1340     		ands	r3, r2
 826 0018 DBB2     		uxtb	r3, r3
 827 001a 002B     		cmp	r3, #0
 828 001c 3ED0     		beq	.L51
 532:Generated_Source\PSoC4/I2COLED_I2C_MASTER.c ****     {
 533:Generated_Source\PSoC4/I2COLED_I2C_MASTER.c ****         /*
 534:Generated_Source\PSoC4/I2COLED_I2C_MASTER.c ****         * Write direction: generates Stop
 535:Generated_Source\PSoC4/I2COLED_I2C_MASTER.c ****         * Read  direction: generates NACK and Stop
 536:Generated_Source\PSoC4/I2COLED_I2C_MASTER.c ****         */
 537:Generated_Source\PSoC4/I2COLED_I2C_MASTER.c ****         I2COLED_I2C_MASTER_GENERATE_STOP;
 829              		.loc 1 537 0
 830 001e 234B     		ldr	r3, .L59+4
 831 0020 234A     		ldr	r2, .L59+8
ARM GAS  C:\Users\jdrd3\AppData\Local\Temp\cch5OljY.s 			page 25


 832 0022 1268     		ldr	r2, [r2]
 833 0024 2021     		movs	r1, #32
 834 0026 0A40     		ands	r2, r1
 835 0028 01D0     		beq	.L52
 836              		.loc 1 537 0 is_stmt 0 discriminator 1
 837 002a 1822     		movs	r2, #24
 838 002c 00E0     		b	.L53
 839              	.L52:
 840              		.loc 1 537 0 discriminator 2
 841 002e 1022     		movs	r2, #16
 842              	.L53:
 843              		.loc 1 537 0 discriminator 4
 844 0030 1A60     		str	r2, [r3]
 538:Generated_Source\PSoC4/I2COLED_I2C_MASTER.c **** 
 539:Generated_Source\PSoC4/I2COLED_I2C_MASTER.c ****         while(!I2COLED_CHECK_INTR_MASTER(I2COLED_INTR_MASTER_I2C_STOP     |
 845              		.loc 1 539 0 is_stmt 1 discriminator 4
 846 0032 C046     		nop
 847              	.L54:
 848              		.loc 1 539 0 is_stmt 0 discriminator 1
 849 0034 1F4B     		ldr	r3, .L59+12
 850 0036 1A68     		ldr	r2, [r3]
 851 0038 1223     		movs	r3, #18
 852 003a FF33     		adds	r3, r3, #255
 853 003c 1340     		ands	r3, r2
 854 003e F9D0     		beq	.L54
 540:Generated_Source\PSoC4/I2COLED_I2C_MASTER.c ****                                                   I2COLED_INTR_MASTER_I2C_ARB_LOST |
 541:Generated_Source\PSoC4/I2COLED_I2C_MASTER.c ****                                                   I2COLED_INTR_MASTER_I2C_BUS_ERROR))
 542:Generated_Source\PSoC4/I2COLED_I2C_MASTER.c ****         {
 543:Generated_Source\PSoC4/I2COLED_I2C_MASTER.c ****             /* Wait until Stop has been generated */
 544:Generated_Source\PSoC4/I2COLED_I2C_MASTER.c ****         }
 545:Generated_Source\PSoC4/I2COLED_I2C_MASTER.c **** 
 546:Generated_Source\PSoC4/I2COLED_I2C_MASTER.c ****         /* Check Stop generation */
 547:Generated_Source\PSoC4/I2COLED_I2C_MASTER.c ****         if(I2COLED_CHECK_INTR_MASTER(I2COLED_INTR_MASTER_I2C_STOP))
 855              		.loc 1 547 0 is_stmt 1
 856 0040 1C4B     		ldr	r3, .L59+12
 857 0042 1B68     		ldr	r3, [r3]
 858 0044 1022     		movs	r2, #16
 859 0046 1340     		ands	r3, r2
 860 0048 02D0     		beq	.L55
 548:Generated_Source\PSoC4/I2COLED_I2C_MASTER.c ****         {
 549:Generated_Source\PSoC4/I2COLED_I2C_MASTER.c ****             errStatus = I2COLED_I2C_MSTR_NO_ERROR;
 861              		.loc 1 549 0
 862 004a 0023     		movs	r3, #0
 863 004c 3B60     		str	r3, [r7]
 864 004e 0EE0     		b	.L56
 865              	.L55:
 550:Generated_Source\PSoC4/I2COLED_I2C_MASTER.c ****         }
 551:Generated_Source\PSoC4/I2COLED_I2C_MASTER.c ****         else if(I2COLED_CHECK_INTR_MASTER(I2COLED_INTR_MASTER_I2C_ARB_LOST))
 866              		.loc 1 551 0
 867 0050 184B     		ldr	r3, .L59+12
 868 0052 1B68     		ldr	r3, [r3]
 869 0054 0122     		movs	r2, #1
 870 0056 1340     		ands	r3, r2
 871 0058 04D0     		beq	.L57
 552:Generated_Source\PSoC4/I2COLED_I2C_MASTER.c ****         {
 553:Generated_Source\PSoC4/I2COLED_I2C_MASTER.c ****             errStatus = I2COLED_I2C_MSTR_ERR_ARB_LOST;
 872              		.loc 1 553 0
ARM GAS  C:\Users\jdrd3\AppData\Local\Temp\cch5OljY.s 			page 26


 873 005a 0123     		movs	r3, #1
 874 005c 3B60     		str	r3, [r7]
 554:Generated_Source\PSoC4/I2COLED_I2C_MASTER.c ****             resetIp   = I2COLED_I2C_RESET_ERROR;
 875              		.loc 1 554 0
 876 005e 0123     		movs	r3, #1
 877 0060 7B60     		str	r3, [r7, #4]
 878 0062 04E0     		b	.L56
 879              	.L57:
 555:Generated_Source\PSoC4/I2COLED_I2C_MASTER.c ****         }
 556:Generated_Source\PSoC4/I2COLED_I2C_MASTER.c ****         else /* I2COLED_INTR_MASTER_I2C_BUS_ERROR is set */
 557:Generated_Source\PSoC4/I2COLED_I2C_MASTER.c ****         {
 558:Generated_Source\PSoC4/I2COLED_I2C_MASTER.c ****             errStatus = I2COLED_I2C_MSTR_ERR_BUS_ERR;
 880              		.loc 1 558 0
 881 0064 8023     		movs	r3, #128
 882 0066 5B00     		lsls	r3, r3, #1
 883 0068 3B60     		str	r3, [r7]
 559:Generated_Source\PSoC4/I2COLED_I2C_MASTER.c ****             resetIp   = I2COLED_I2C_RESET_ERROR;
 884              		.loc 1 559 0
 885 006a 0123     		movs	r3, #1
 886 006c 7B60     		str	r3, [r7, #4]
 887              	.L56:
 560:Generated_Source\PSoC4/I2COLED_I2C_MASTER.c ****         }
 561:Generated_Source\PSoC4/I2COLED_I2C_MASTER.c **** 
 562:Generated_Source\PSoC4/I2COLED_I2C_MASTER.c ****         I2COLED_ClearMasterInterruptSource(I2COLED_INTR_MASTER_I2C_STOP     |
 888              		.loc 1 562 0
 889 006e 114B     		ldr	r3, .L59+12
 890 0070 1222     		movs	r2, #18
 891 0072 FF32     		adds	r2, r2, #255
 892 0074 1A60     		str	r2, [r3]
 563:Generated_Source\PSoC4/I2COLED_I2C_MASTER.c ****                                                     I2COLED_INTR_MASTER_I2C_ARB_LOST |
 564:Generated_Source\PSoC4/I2COLED_I2C_MASTER.c ****                                                     I2COLED_INTR_MASTER_I2C_BUS_ERROR);
 565:Generated_Source\PSoC4/I2COLED_I2C_MASTER.c **** 
 566:Generated_Source\PSoC4/I2COLED_I2C_MASTER.c ****         I2COLED_state = I2COLED_I2C_FSM_IDLE;
 893              		.loc 1 566 0
 894 0076 0C4B     		ldr	r3, .L59
 895 0078 1022     		movs	r2, #16
 896 007a 1A70     		strb	r2, [r3]
 567:Generated_Source\PSoC4/I2COLED_I2C_MASTER.c **** 
 568:Generated_Source\PSoC4/I2COLED_I2C_MASTER.c ****         /* Reset block in case of: LOST_ARB or BUS_ERR */
 569:Generated_Source\PSoC4/I2COLED_I2C_MASTER.c ****         if(0u != resetIp)
 897              		.loc 1 569 0
 898 007c 7B68     		ldr	r3, [r7, #4]
 899 007e 002B     		cmp	r3, #0
 900 0080 0CD0     		beq	.L51
 570:Generated_Source\PSoC4/I2COLED_I2C_MASTER.c ****         {
 571:Generated_Source\PSoC4/I2COLED_I2C_MASTER.c ****             I2COLED_SCB_SW_RESET;
 901              		.loc 1 571 0
 902 0082 0D4B     		ldr	r3, .L59+16
 903 0084 0C4A     		ldr	r2, .L59+16
 904 0086 1268     		ldr	r2, [r2]
 905 0088 5200     		lsls	r2, r2, #1
 906 008a 5208     		lsrs	r2, r2, #1
 907 008c 1A60     		str	r2, [r3]
 908 008e 0A4B     		ldr	r3, .L59+16
 909 0090 094A     		ldr	r2, .L59+16
 910 0092 1268     		ldr	r2, [r2]
 911 0094 8021     		movs	r1, #128
ARM GAS  C:\Users\jdrd3\AppData\Local\Temp\cch5OljY.s 			page 27


 912 0096 0906     		lsls	r1, r1, #24
 913 0098 0A43     		orrs	r2, r1
 914 009a 1A60     		str	r2, [r3]
 915              	.L51:
 572:Generated_Source\PSoC4/I2COLED_I2C_MASTER.c ****         }
 573:Generated_Source\PSoC4/I2COLED_I2C_MASTER.c ****     }
 574:Generated_Source\PSoC4/I2COLED_I2C_MASTER.c **** 
 575:Generated_Source\PSoC4/I2COLED_I2C_MASTER.c ****     return(errStatus);
 916              		.loc 1 575 0
 917 009c 3B68     		ldr	r3, [r7]
 576:Generated_Source\PSoC4/I2COLED_I2C_MASTER.c **** }
 918              		.loc 1 576 0
 919 009e 1800     		movs	r0, r3
 920 00a0 BD46     		mov	sp, r7
 921 00a2 02B0     		add	sp, sp, #8
 922              		@ sp needed
 923 00a4 80BD     		pop	{r7, pc}
 924              	.L60:
 925 00a6 C046     		.align	2
 926              	.L59:
 927 00a8 00000000 		.word	I2COLED_state
 928 00ac 68000740 		.word	1074200680
 929 00b0 64000740 		.word	1074200676
 930 00b4 000F0740 		.word	1074204416
 931 00b8 00000740 		.word	1074200576
 932              		.cfi_endproc
 933              	.LFE4:
 934              		.size	I2COLED_I2CMasterSendStop, .-I2COLED_I2CMasterSendStop
 935              		.section	.text.I2COLED_I2CMasterWriteByte,"ax",%progbits
 936              		.align	2
 937              		.global	I2COLED_I2CMasterWriteByte
 938              		.code	16
 939              		.thumb_func
 940              		.type	I2COLED_I2CMasterWriteByte, %function
 941              	I2COLED_I2CMasterWriteByte:
 942              	.LFB5:
 577:Generated_Source\PSoC4/I2COLED_I2C_MASTER.c **** 
 578:Generated_Source\PSoC4/I2COLED_I2C_MASTER.c **** 
 579:Generated_Source\PSoC4/I2COLED_I2C_MASTER.c **** /*******************************************************************************
 580:Generated_Source\PSoC4/I2COLED_I2C_MASTER.c **** * Function Name: I2COLED_I2CMasterWriteByte
 581:Generated_Source\PSoC4/I2COLED_I2C_MASTER.c **** ********************************************************************************
 582:Generated_Source\PSoC4/I2COLED_I2C_MASTER.c **** *
 583:Generated_Source\PSoC4/I2COLED_I2C_MASTER.c **** * Summary:
 584:Generated_Source\PSoC4/I2COLED_I2C_MASTER.c **** *  Sends one byte to a slave.
 585:Generated_Source\PSoC4/I2COLED_I2C_MASTER.c **** *  This function is blocking and does not return until byte is transmitted
 586:Generated_Source\PSoC4/I2COLED_I2C_MASTER.c **** *  or error occurred.
 587:Generated_Source\PSoC4/I2COLED_I2C_MASTER.c **** *
 588:Generated_Source\PSoC4/I2COLED_I2C_MASTER.c **** * Parameters:
 589:Generated_Source\PSoC4/I2COLED_I2C_MASTER.c **** *  data: The data byte to send to the slave.
 590:Generated_Source\PSoC4/I2COLED_I2C_MASTER.c **** *
 591:Generated_Source\PSoC4/I2COLED_I2C_MASTER.c **** * Return:
 592:Generated_Source\PSoC4/I2COLED_I2C_MASTER.c **** *  Error status
 593:Generated_Source\PSoC4/I2COLED_I2C_MASTER.c **** *
 594:Generated_Source\PSoC4/I2COLED_I2C_MASTER.c **** * Side Effects:
 595:Generated_Source\PSoC4/I2COLED_I2C_MASTER.c **** *  A valid Start or ReStart condition must be generated before calling
 596:Generated_Source\PSoC4/I2COLED_I2C_MASTER.c **** *  this function. This function does nothing if Start or ReStart condition
 597:Generated_Source\PSoC4/I2COLED_I2C_MASTER.c **** *  failed before this function was called.
ARM GAS  C:\Users\jdrd3\AppData\Local\Temp\cch5OljY.s 			page 28


 598:Generated_Source\PSoC4/I2COLED_I2C_MASTER.c **** *
 599:Generated_Source\PSoC4/I2COLED_I2C_MASTER.c **** * Global variables:
 600:Generated_Source\PSoC4/I2COLED_I2C_MASTER.c **** *  I2COLED_state - used to store current state of software FSM.
 601:Generated_Source\PSoC4/I2COLED_I2C_MASTER.c **** *
 602:Generated_Source\PSoC4/I2COLED_I2C_MASTER.c **** *******************************************************************************/
 603:Generated_Source\PSoC4/I2COLED_I2C_MASTER.c **** uint32 I2COLED_I2CMasterWriteByte(uint32 theByte)
 604:Generated_Source\PSoC4/I2COLED_I2C_MASTER.c **** {
 943              		.loc 1 604 0
 944              		.cfi_startproc
 945              		@ args = 0, pretend = 0, frame = 16
 946              		@ frame_needed = 1, uses_anonymous_args = 0
 947 0000 80B5     		push	{r7, lr}
 948              		.cfi_def_cfa_offset 8
 949              		.cfi_offset 7, -8
 950              		.cfi_offset 14, -4
 951 0002 84B0     		sub	sp, sp, #16
 952              		.cfi_def_cfa_offset 24
 953 0004 00AF     		add	r7, sp, #0
 954              		.cfi_def_cfa_register 7
 955 0006 7860     		str	r0, [r7, #4]
 605:Generated_Source\PSoC4/I2COLED_I2C_MASTER.c ****     uint32 resetIp;
 606:Generated_Source\PSoC4/I2COLED_I2C_MASTER.c ****     uint32 errStatus;
 607:Generated_Source\PSoC4/I2COLED_I2C_MASTER.c **** 
 608:Generated_Source\PSoC4/I2COLED_I2C_MASTER.c ****     resetIp   = 0u;
 956              		.loc 1 608 0
 957 0008 0023     		movs	r3, #0
 958 000a FB60     		str	r3, [r7, #12]
 609:Generated_Source\PSoC4/I2COLED_I2C_MASTER.c ****     errStatus = I2COLED_I2C_MSTR_NOT_READY;
 959              		.loc 1 609 0
 960 000c 0423     		movs	r3, #4
 961 000e BB60     		str	r3, [r7, #8]
 610:Generated_Source\PSoC4/I2COLED_I2C_MASTER.c **** 
 611:Generated_Source\PSoC4/I2COLED_I2C_MASTER.c ****     /* Check FSM state before write byte */
 612:Generated_Source\PSoC4/I2COLED_I2C_MASTER.c ****     if(I2COLED_CHECK_I2C_MASTER_ACTIVE)
 962              		.loc 1 612 0
 963 0010 2A4B     		ldr	r3, .L69
 964 0012 1B78     		ldrb	r3, [r3]
 965 0014 DBB2     		uxtb	r3, r3
 966 0016 2022     		movs	r2, #32
 967 0018 1340     		ands	r3, r2
 968 001a DBB2     		uxtb	r3, r3
 969 001c 002B     		cmp	r3, #0
 970 001e 48D0     		beq	.L62
 613:Generated_Source\PSoC4/I2COLED_I2C_MASTER.c ****     {
 614:Generated_Source\PSoC4/I2COLED_I2C_MASTER.c ****         I2COLED_TX_FIFO_WR_REG = theByte;
 971              		.loc 1 614 0
 972 0020 274B     		ldr	r3, .L69+4
 973 0022 7A68     		ldr	r2, [r7, #4]
 974 0024 1A60     		str	r2, [r3]
 615:Generated_Source\PSoC4/I2COLED_I2C_MASTER.c **** 
 616:Generated_Source\PSoC4/I2COLED_I2C_MASTER.c ****         while(!I2COLED_CHECK_INTR_MASTER(I2COLED_INTR_MASTER_I2C_ACK      |
 975              		.loc 1 616 0
 976 0026 C046     		nop
 977              	.L63:
 978              		.loc 1 616 0 is_stmt 0 discriminator 1
 979 0028 264B     		ldr	r3, .L69+8
 980 002a 1A68     		ldr	r2, [r3]
ARM GAS  C:\Users\jdrd3\AppData\Local\Temp\cch5OljY.s 			page 29


 981 002c 0823     		movs	r3, #8
 982 002e FF33     		adds	r3, r3, #255
 983 0030 1340     		ands	r3, r2
 984 0032 F9D0     		beq	.L63
 617:Generated_Source\PSoC4/I2COLED_I2C_MASTER.c ****                                                   I2COLED_INTR_MASTER_I2C_NACK     |
 618:Generated_Source\PSoC4/I2COLED_I2C_MASTER.c ****                                                   I2COLED_INTR_MASTER_I2C_ARB_LOST |
 619:Generated_Source\PSoC4/I2COLED_I2C_MASTER.c ****                                                   I2COLED_INTR_MASTER_I2C_BUS_ERROR))
 620:Generated_Source\PSoC4/I2COLED_I2C_MASTER.c ****         {
 621:Generated_Source\PSoC4/I2COLED_I2C_MASTER.c ****             /* Wait until byte has been transferred */
 622:Generated_Source\PSoC4/I2COLED_I2C_MASTER.c ****         }
 623:Generated_Source\PSoC4/I2COLED_I2C_MASTER.c **** 
 624:Generated_Source\PSoC4/I2COLED_I2C_MASTER.c ****         /* Check results after byte was sent */
 625:Generated_Source\PSoC4/I2COLED_I2C_MASTER.c ****         if(I2COLED_CHECK_INTR_MASTER(I2COLED_INTR_MASTER_I2C_ACK))
 985              		.loc 1 625 0 is_stmt 1
 986 0034 234B     		ldr	r3, .L69+8
 987 0036 1B68     		ldr	r3, [r3]
 988 0038 0422     		movs	r2, #4
 989 003a 1340     		ands	r3, r2
 990 003c 05D0     		beq	.L64
 626:Generated_Source\PSoC4/I2COLED_I2C_MASTER.c ****         {
 627:Generated_Source\PSoC4/I2COLED_I2C_MASTER.c ****             I2COLED_state = I2COLED_I2C_FSM_MSTR_HALT;
 991              		.loc 1 627 0
 992 003e 1F4B     		ldr	r3, .L69
 993 0040 6022     		movs	r2, #96
 994 0042 1A70     		strb	r2, [r3]
 628:Generated_Source\PSoC4/I2COLED_I2C_MASTER.c ****                          errStatus = I2COLED_I2C_MSTR_NO_ERROR;
 995              		.loc 1 628 0
 996 0044 0023     		movs	r3, #0
 997 0046 BB60     		str	r3, [r7, #8]
 998 0048 1FE0     		b	.L65
 999              	.L64:
 629:Generated_Source\PSoC4/I2COLED_I2C_MASTER.c ****         }
 630:Generated_Source\PSoC4/I2COLED_I2C_MASTER.c ****         else if(I2COLED_CHECK_INTR_MASTER(I2COLED_INTR_MASTER_I2C_NACK))
 1000              		.loc 1 630 0
 1001 004a 1E4B     		ldr	r3, .L69+8
 1002 004c 1B68     		ldr	r3, [r3]
 1003 004e 0222     		movs	r2, #2
 1004 0050 1340     		ands	r3, r2
 1005 0052 05D0     		beq	.L66
 631:Generated_Source\PSoC4/I2COLED_I2C_MASTER.c ****         {
 632:Generated_Source\PSoC4/I2COLED_I2C_MASTER.c ****             I2COLED_state = I2COLED_I2C_FSM_MSTR_HALT;
 1006              		.loc 1 632 0
 1007 0054 194B     		ldr	r3, .L69
 1008 0056 6022     		movs	r2, #96
 1009 0058 1A70     		strb	r2, [r3]
 633:Generated_Source\PSoC4/I2COLED_I2C_MASTER.c ****                          errStatus = I2COLED_I2C_MSTR_ERR_LB_NAK;
 1010              		.loc 1 633 0
 1011 005a 0223     		movs	r3, #2
 1012 005c BB60     		str	r3, [r7, #8]
 1013 005e 14E0     		b	.L65
 1014              	.L66:
 634:Generated_Source\PSoC4/I2COLED_I2C_MASTER.c ****         }
 635:Generated_Source\PSoC4/I2COLED_I2C_MASTER.c ****         else if(I2COLED_CHECK_INTR_MASTER(I2COLED_INTR_MASTER_I2C_ARB_LOST))
 1015              		.loc 1 635 0
 1016 0060 184B     		ldr	r3, .L69+8
 1017 0062 1B68     		ldr	r3, [r3]
 1018 0064 0122     		movs	r2, #1
ARM GAS  C:\Users\jdrd3\AppData\Local\Temp\cch5OljY.s 			page 30


 1019 0066 1340     		ands	r3, r2
 1020 0068 07D0     		beq	.L67
 636:Generated_Source\PSoC4/I2COLED_I2C_MASTER.c ****         {
 637:Generated_Source\PSoC4/I2COLED_I2C_MASTER.c ****             I2COLED_state = I2COLED_I2C_FSM_IDLE;
 1021              		.loc 1 637 0
 1022 006a 144B     		ldr	r3, .L69
 1023 006c 1022     		movs	r2, #16
 1024 006e 1A70     		strb	r2, [r3]
 638:Generated_Source\PSoC4/I2COLED_I2C_MASTER.c ****                          errStatus = I2COLED_I2C_MSTR_ERR_ARB_LOST;
 1025              		.loc 1 638 0
 1026 0070 0123     		movs	r3, #1
 1027 0072 BB60     		str	r3, [r7, #8]
 639:Generated_Source\PSoC4/I2COLED_I2C_MASTER.c ****                          resetIp   = I2COLED_I2C_RESET_ERROR;
 1028              		.loc 1 639 0
 1029 0074 0123     		movs	r3, #1
 1030 0076 FB60     		str	r3, [r7, #12]
 1031 0078 07E0     		b	.L65
 1032              	.L67:
 640:Generated_Source\PSoC4/I2COLED_I2C_MASTER.c ****         }
 641:Generated_Source\PSoC4/I2COLED_I2C_MASTER.c ****         else /* I2COLED_INTR_MASTER_I2C_BUS_ERROR set is */
 642:Generated_Source\PSoC4/I2COLED_I2C_MASTER.c ****         {
 643:Generated_Source\PSoC4/I2COLED_I2C_MASTER.c ****             I2COLED_state = I2COLED_I2C_FSM_IDLE;
 1033              		.loc 1 643 0
 1034 007a 104B     		ldr	r3, .L69
 1035 007c 1022     		movs	r2, #16
 1036 007e 1A70     		strb	r2, [r3]
 644:Generated_Source\PSoC4/I2COLED_I2C_MASTER.c ****                          errStatus = I2COLED_I2C_MSTR_ERR_BUS_ERR;
 1037              		.loc 1 644 0
 1038 0080 8023     		movs	r3, #128
 1039 0082 5B00     		lsls	r3, r3, #1
 1040 0084 BB60     		str	r3, [r7, #8]
 645:Generated_Source\PSoC4/I2COLED_I2C_MASTER.c ****                          resetIp   = I2COLED_I2C_RESET_ERROR;
 1041              		.loc 1 645 0
 1042 0086 0123     		movs	r3, #1
 1043 0088 FB60     		str	r3, [r7, #12]
 1044              	.L65:
 646:Generated_Source\PSoC4/I2COLED_I2C_MASTER.c ****         }
 647:Generated_Source\PSoC4/I2COLED_I2C_MASTER.c **** 
 648:Generated_Source\PSoC4/I2COLED_I2C_MASTER.c ****         I2COLED_ClearMasterInterruptSource(I2COLED_INTR_MASTER_I2C_ACK      |
 1045              		.loc 1 648 0
 1046 008a 0E4B     		ldr	r3, .L69+8
 1047 008c 0822     		movs	r2, #8
 1048 008e FF32     		adds	r2, r2, #255
 1049 0090 1A60     		str	r2, [r3]
 649:Generated_Source\PSoC4/I2COLED_I2C_MASTER.c ****                                                     I2COLED_INTR_MASTER_I2C_NACK     |
 650:Generated_Source\PSoC4/I2COLED_I2C_MASTER.c ****                                                     I2COLED_INTR_MASTER_I2C_ARB_LOST |
 651:Generated_Source\PSoC4/I2COLED_I2C_MASTER.c ****                                                     I2COLED_INTR_MASTER_I2C_BUS_ERROR);
 652:Generated_Source\PSoC4/I2COLED_I2C_MASTER.c **** 
 653:Generated_Source\PSoC4/I2COLED_I2C_MASTER.c ****         /* Reset block in case of: LOST_ARB or BUS_ERR */
 654:Generated_Source\PSoC4/I2COLED_I2C_MASTER.c ****         if(0u != resetIp)
 1050              		.loc 1 654 0
 1051 0092 FB68     		ldr	r3, [r7, #12]
 1052 0094 002B     		cmp	r3, #0
 1053 0096 0CD0     		beq	.L62
 655:Generated_Source\PSoC4/I2COLED_I2C_MASTER.c ****         {
 656:Generated_Source\PSoC4/I2COLED_I2C_MASTER.c ****             I2COLED_SCB_SW_RESET;
 1054              		.loc 1 656 0
ARM GAS  C:\Users\jdrd3\AppData\Local\Temp\cch5OljY.s 			page 31


 1055 0098 0B4B     		ldr	r3, .L69+12
 1056 009a 0B4A     		ldr	r2, .L69+12
 1057 009c 1268     		ldr	r2, [r2]
 1058 009e 5200     		lsls	r2, r2, #1
 1059 00a0 5208     		lsrs	r2, r2, #1
 1060 00a2 1A60     		str	r2, [r3]
 1061 00a4 084B     		ldr	r3, .L69+12
 1062 00a6 084A     		ldr	r2, .L69+12
 1063 00a8 1268     		ldr	r2, [r2]
 1064 00aa 8021     		movs	r1, #128
 1065 00ac 0906     		lsls	r1, r1, #24
 1066 00ae 0A43     		orrs	r2, r1
 1067 00b0 1A60     		str	r2, [r3]
 1068              	.L62:
 657:Generated_Source\PSoC4/I2COLED_I2C_MASTER.c ****         }
 658:Generated_Source\PSoC4/I2COLED_I2C_MASTER.c ****     }
 659:Generated_Source\PSoC4/I2COLED_I2C_MASTER.c **** 
 660:Generated_Source\PSoC4/I2COLED_I2C_MASTER.c ****     return(errStatus);
 1069              		.loc 1 660 0
 1070 00b2 BB68     		ldr	r3, [r7, #8]
 661:Generated_Source\PSoC4/I2COLED_I2C_MASTER.c **** }
 1071              		.loc 1 661 0
 1072 00b4 1800     		movs	r0, r3
 1073 00b6 BD46     		mov	sp, r7
 1074 00b8 04B0     		add	sp, sp, #16
 1075              		@ sp needed
 1076 00ba 80BD     		pop	{r7, pc}
 1077              	.L70:
 1078              		.align	2
 1079              	.L69:
 1080 00bc 00000000 		.word	I2COLED_state
 1081 00c0 40020740 		.word	1074201152
 1082 00c4 000F0740 		.word	1074204416
 1083 00c8 00000740 		.word	1074200576
 1084              		.cfi_endproc
 1085              	.LFE5:
 1086              		.size	I2COLED_I2CMasterWriteByte, .-I2COLED_I2CMasterWriteByte
 1087              		.section	.text.I2COLED_I2CMasterReadByte,"ax",%progbits
 1088              		.align	2
 1089              		.global	I2COLED_I2CMasterReadByte
 1090              		.code	16
 1091              		.thumb_func
 1092              		.type	I2COLED_I2CMasterReadByte, %function
 1093              	I2COLED_I2CMasterReadByte:
 1094              	.LFB6:
 662:Generated_Source\PSoC4/I2COLED_I2C_MASTER.c **** 
 663:Generated_Source\PSoC4/I2COLED_I2C_MASTER.c **** 
 664:Generated_Source\PSoC4/I2COLED_I2C_MASTER.c **** /*******************************************************************************
 665:Generated_Source\PSoC4/I2COLED_I2C_MASTER.c **** * Function Name: I2COLED_I2CMasterReadByte
 666:Generated_Source\PSoC4/I2COLED_I2C_MASTER.c **** ********************************************************************************
 667:Generated_Source\PSoC4/I2COLED_I2C_MASTER.c **** *
 668:Generated_Source\PSoC4/I2COLED_I2C_MASTER.c **** * Summary:
 669:Generated_Source\PSoC4/I2COLED_I2C_MASTER.c **** *  Reads one byte from a slave and ACKs or NAKs received byte.
 670:Generated_Source\PSoC4/I2COLED_I2C_MASTER.c **** *  This function does not generate NAK explicitly. The following call
 671:Generated_Source\PSoC4/I2COLED_I2C_MASTER.c **** *  SCB_I2CMasterSendStop() or SCB_I2CMasterSendRestart() will generate NAK and
 672:Generated_Source\PSoC4/I2COLED_I2C_MASTER.c **** *  Stop or ReStart condition appropriately.
 673:Generated_Source\PSoC4/I2COLED_I2C_MASTER.c **** *  This function is blocking and does not return until byte is received
ARM GAS  C:\Users\jdrd3\AppData\Local\Temp\cch5OljY.s 			page 32


 674:Generated_Source\PSoC4/I2COLED_I2C_MASTER.c **** *  or error occurred.
 675:Generated_Source\PSoC4/I2COLED_I2C_MASTER.c **** *
 676:Generated_Source\PSoC4/I2COLED_I2C_MASTER.c **** * Parameters:
 677:Generated_Source\PSoC4/I2COLED_I2C_MASTER.c **** *  ackNack: Response to received byte.
 678:Generated_Source\PSoC4/I2COLED_I2C_MASTER.c **** *
 679:Generated_Source\PSoC4/I2COLED_I2C_MASTER.c **** * Return:
 680:Generated_Source\PSoC4/I2COLED_I2C_MASTER.c **** *  Byte read from the slave. In case of error the MSB of returned data
 681:Generated_Source\PSoC4/I2COLED_I2C_MASTER.c **** *  is set to 1.
 682:Generated_Source\PSoC4/I2COLED_I2C_MASTER.c **** *
 683:Generated_Source\PSoC4/I2COLED_I2C_MASTER.c **** * Side Effects:
 684:Generated_Source\PSoC4/I2COLED_I2C_MASTER.c **** *  A valid Start or ReStart condition must be generated before calling this
 685:Generated_Source\PSoC4/I2COLED_I2C_MASTER.c **** *  function. This function does nothing and returns invalid byte value
 686:Generated_Source\PSoC4/I2COLED_I2C_MASTER.c **** *  if Start or ReStart conditions failed before this function was called.
 687:Generated_Source\PSoC4/I2COLED_I2C_MASTER.c **** *
 688:Generated_Source\PSoC4/I2COLED_I2C_MASTER.c **** * Global variables:
 689:Generated_Source\PSoC4/I2COLED_I2C_MASTER.c **** *  I2COLED_state - used to store current state of software FSM.
 690:Generated_Source\PSoC4/I2COLED_I2C_MASTER.c **** *
 691:Generated_Source\PSoC4/I2COLED_I2C_MASTER.c **** *******************************************************************************/
 692:Generated_Source\PSoC4/I2COLED_I2C_MASTER.c **** uint32 I2COLED_I2CMasterReadByte(uint32 ackNack)
 693:Generated_Source\PSoC4/I2COLED_I2C_MASTER.c **** {
 1095              		.loc 1 693 0
 1096              		.cfi_startproc
 1097              		@ args = 0, pretend = 0, frame = 16
 1098              		@ frame_needed = 1, uses_anonymous_args = 0
 1099 0000 80B5     		push	{r7, lr}
 1100              		.cfi_def_cfa_offset 8
 1101              		.cfi_offset 7, -8
 1102              		.cfi_offset 14, -4
 1103 0002 84B0     		sub	sp, sp, #16
 1104              		.cfi_def_cfa_offset 24
 1105 0004 00AF     		add	r7, sp, #0
 1106              		.cfi_def_cfa_register 7
 1107 0006 7860     		str	r0, [r7, #4]
 694:Generated_Source\PSoC4/I2COLED_I2C_MASTER.c ****     uint32 theByte;
 695:Generated_Source\PSoC4/I2COLED_I2C_MASTER.c **** 
 696:Generated_Source\PSoC4/I2COLED_I2C_MASTER.c ****     /* Return invalid byte in case BUS_ERR happen during receiving */
 697:Generated_Source\PSoC4/I2COLED_I2C_MASTER.c ****     theByte = I2COLED_I2C_INVALID_BYTE;
 1108              		.loc 1 697 0
 1109 0008 0123     		movs	r3, #1
 1110 000a 5B42     		rsbs	r3, r3, #0
 1111 000c FB60     		str	r3, [r7, #12]
 698:Generated_Source\PSoC4/I2COLED_I2C_MASTER.c **** 
 699:Generated_Source\PSoC4/I2COLED_I2C_MASTER.c ****     /* Check FSM state before read byte */
 700:Generated_Source\PSoC4/I2COLED_I2C_MASTER.c ****     if(I2COLED_CHECK_I2C_MASTER_ACTIVE)
 1112              		.loc 1 700 0
 1113 000e 1F4B     		ldr	r3, .L79
 1114 0010 1B78     		ldrb	r3, [r3]
 1115 0012 DBB2     		uxtb	r3, r3
 1116 0014 2022     		movs	r2, #32
 1117 0016 1340     		ands	r3, r2
 1118 0018 DBB2     		uxtb	r3, r3
 1119 001a 002B     		cmp	r3, #0
 1120 001c 31D0     		beq	.L72
 701:Generated_Source\PSoC4/I2COLED_I2C_MASTER.c ****     {
 702:Generated_Source\PSoC4/I2COLED_I2C_MASTER.c ****         while((!I2COLED_CHECK_INTR_RX(I2COLED_INTR_RX_NOT_EMPTY)) &&
 1121              		.loc 1 702 0
 1122 001e C046     		nop
ARM GAS  C:\Users\jdrd3\AppData\Local\Temp\cch5OljY.s 			page 33


 1123              	.L74:
 1124              		.loc 1 702 0 is_stmt 0 discriminator 2
 1125 0020 1B4B     		ldr	r3, .L79+4
 1126 0022 1B68     		ldr	r3, [r3]
 1127 0024 0422     		movs	r2, #4
 1128 0026 1340     		ands	r3, r2
 1129 0028 05D1     		bne	.L73
 703:Generated_Source\PSoC4/I2COLED_I2C_MASTER.c ****               (!I2COLED_CHECK_INTR_MASTER(I2COLED_INTR_MASTER_I2C_ARB_LOST |
 1130              		.loc 1 703 0 is_stmt 1 discriminator 1
 1131 002a 1A4B     		ldr	r3, .L79+8
 1132 002c 1A68     		ldr	r2, [r3]
 1133 002e 0223     		movs	r3, #2
 1134 0030 FF33     		adds	r3, r3, #255
 1135 0032 1340     		ands	r3, r2
 702:Generated_Source\PSoC4/I2COLED_I2C_MASTER.c ****               (!I2COLED_CHECK_INTR_MASTER(I2COLED_INTR_MASTER_I2C_ARB_LOST |
 1136              		.loc 1 702 0 discriminator 1
 1137 0034 F4D0     		beq	.L74
 1138              	.L73:
 704:Generated_Source\PSoC4/I2COLED_I2C_MASTER.c ****                                                   I2COLED_INTR_MASTER_I2C_BUS_ERROR)))
 705:Generated_Source\PSoC4/I2COLED_I2C_MASTER.c ****         {
 706:Generated_Source\PSoC4/I2COLED_I2C_MASTER.c ****             /* Wait until byte has been received */
 707:Generated_Source\PSoC4/I2COLED_I2C_MASTER.c ****         }
 708:Generated_Source\PSoC4/I2COLED_I2C_MASTER.c **** 
 709:Generated_Source\PSoC4/I2COLED_I2C_MASTER.c ****         /* Check the results after the byte was sent */
 710:Generated_Source\PSoC4/I2COLED_I2C_MASTER.c ****         if(I2COLED_CHECK_INTR_RX(I2COLED_INTR_RX_NOT_EMPTY))
 1139              		.loc 1 710 0
 1140 0036 164B     		ldr	r3, .L79+4
 1141 0038 1B68     		ldr	r3, [r3]
 1142 003a 0422     		movs	r2, #4
 1143 003c 1340     		ands	r3, r2
 1144 003e 10D0     		beq	.L75
 711:Generated_Source\PSoC4/I2COLED_I2C_MASTER.c ****         {
 712:Generated_Source\PSoC4/I2COLED_I2C_MASTER.c ****             theByte = I2COLED_RX_FIFO_RD_REG;
 1145              		.loc 1 712 0
 1146 0040 154B     		ldr	r3, .L79+12
 1147 0042 1B68     		ldr	r3, [r3]
 1148 0044 FB60     		str	r3, [r7, #12]
 713:Generated_Source\PSoC4/I2COLED_I2C_MASTER.c **** 
 714:Generated_Source\PSoC4/I2COLED_I2C_MASTER.c ****             I2COLED_ClearRxInterruptSource(I2COLED_INTR_RX_NOT_EMPTY);
 1149              		.loc 1 714 0
 1150 0046 124B     		ldr	r3, .L79+4
 1151 0048 0422     		movs	r2, #4
 1152 004a 1A60     		str	r2, [r3]
 715:Generated_Source\PSoC4/I2COLED_I2C_MASTER.c **** 
 716:Generated_Source\PSoC4/I2COLED_I2C_MASTER.c ****             if(0u == ackNack)
 1153              		.loc 1 716 0
 1154 004c 7B68     		ldr	r3, [r7, #4]
 1155 004e 002B     		cmp	r3, #0
 1156 0050 03D1     		bne	.L76
 717:Generated_Source\PSoC4/I2COLED_I2C_MASTER.c ****             {
 718:Generated_Source\PSoC4/I2COLED_I2C_MASTER.c ****                 I2COLED_I2C_MASTER_GENERATE_ACK;
 1157              		.loc 1 718 0
 1158 0052 124B     		ldr	r3, .L79+16
 1159 0054 0422     		movs	r2, #4
 1160 0056 1A60     		str	r2, [r3]
 1161 0058 13E0     		b	.L72
 1162              	.L76:
ARM GAS  C:\Users\jdrd3\AppData\Local\Temp\cch5OljY.s 			page 34


 719:Generated_Source\PSoC4/I2COLED_I2C_MASTER.c ****             }
 720:Generated_Source\PSoC4/I2COLED_I2C_MASTER.c ****             else
 721:Generated_Source\PSoC4/I2COLED_I2C_MASTER.c ****             {
 722:Generated_Source\PSoC4/I2COLED_I2C_MASTER.c ****                 /* NACK is generated by Stop or ReStart command */
 723:Generated_Source\PSoC4/I2COLED_I2C_MASTER.c ****                 I2COLED_state = I2COLED_I2C_FSM_MSTR_HALT;
 1163              		.loc 1 723 0
 1164 005a 0C4B     		ldr	r3, .L79
 1165 005c 6022     		movs	r2, #96
 1166 005e 1A70     		strb	r2, [r3]
 1167 0060 0FE0     		b	.L72
 1168              	.L75:
 724:Generated_Source\PSoC4/I2COLED_I2C_MASTER.c ****             }
 725:Generated_Source\PSoC4/I2COLED_I2C_MASTER.c ****         }
 726:Generated_Source\PSoC4/I2COLED_I2C_MASTER.c ****         else
 727:Generated_Source\PSoC4/I2COLED_I2C_MASTER.c ****         {
 728:Generated_Source\PSoC4/I2COLED_I2C_MASTER.c ****             I2COLED_ClearMasterInterruptSource(I2COLED_INTR_MASTER_ALL);
 1169              		.loc 1 728 0
 1170 0062 0C4B     		ldr	r3, .L79+8
 1171 0064 0E4A     		ldr	r2, .L79+20
 1172 0066 1A60     		str	r2, [r3]
 729:Generated_Source\PSoC4/I2COLED_I2C_MASTER.c **** 
 730:Generated_Source\PSoC4/I2COLED_I2C_MASTER.c ****             /* Reset block in case of: LOST_ARB or BUS_ERR */
 731:Generated_Source\PSoC4/I2COLED_I2C_MASTER.c ****             I2COLED_SCB_SW_RESET;
 1173              		.loc 1 731 0
 1174 0068 0E4B     		ldr	r3, .L79+24
 1175 006a 0E4A     		ldr	r2, .L79+24
 1176 006c 1268     		ldr	r2, [r2]
 1177 006e 5200     		lsls	r2, r2, #1
 1178 0070 5208     		lsrs	r2, r2, #1
 1179 0072 1A60     		str	r2, [r3]
 1180 0074 0B4B     		ldr	r3, .L79+24
 1181 0076 0B4A     		ldr	r2, .L79+24
 1182 0078 1268     		ldr	r2, [r2]
 1183 007a 8021     		movs	r1, #128
 1184 007c 0906     		lsls	r1, r1, #24
 1185 007e 0A43     		orrs	r2, r1
 1186 0080 1A60     		str	r2, [r3]
 1187              	.L72:
 732:Generated_Source\PSoC4/I2COLED_I2C_MASTER.c ****         }
 733:Generated_Source\PSoC4/I2COLED_I2C_MASTER.c ****     }
 734:Generated_Source\PSoC4/I2COLED_I2C_MASTER.c **** 
 735:Generated_Source\PSoC4/I2COLED_I2C_MASTER.c ****     return(theByte);
 1188              		.loc 1 735 0
 1189 0082 FB68     		ldr	r3, [r7, #12]
 736:Generated_Source\PSoC4/I2COLED_I2C_MASTER.c **** }
 1190              		.loc 1 736 0
 1191 0084 1800     		movs	r0, r3
 1192 0086 BD46     		mov	sp, r7
 1193 0088 04B0     		add	sp, sp, #16
 1194              		@ sp needed
 1195 008a 80BD     		pop	{r7, pc}
 1196              	.L80:
 1197              		.align	2
 1198              	.L79:
 1199 008c 00000000 		.word	I2COLED_state
 1200 0090 C00F0740 		.word	1074204608
 1201 0094 000F0740 		.word	1074204416
ARM GAS  C:\Users\jdrd3\AppData\Local\Temp\cch5OljY.s 			page 35


 1202 0098 40030740 		.word	1074201408
 1203 009c 68000740 		.word	1074200680
 1204 00a0 17030000 		.word	791
 1205 00a4 00000740 		.word	1074200576
 1206              		.cfi_endproc
 1207              	.LFE6:
 1208              		.size	I2COLED_I2CMasterReadByte, .-I2COLED_I2CMasterReadByte
 1209              		.section	.text.I2COLED_I2CMasterGetReadBufSize,"ax",%progbits
 1210              		.align	2
 1211              		.global	I2COLED_I2CMasterGetReadBufSize
 1212              		.code	16
 1213              		.thumb_func
 1214              		.type	I2COLED_I2CMasterGetReadBufSize, %function
 1215              	I2COLED_I2CMasterGetReadBufSize:
 1216              	.LFB7:
 737:Generated_Source\PSoC4/I2COLED_I2C_MASTER.c **** 
 738:Generated_Source\PSoC4/I2COLED_I2C_MASTER.c **** 
 739:Generated_Source\PSoC4/I2COLED_I2C_MASTER.c **** /*******************************************************************************
 740:Generated_Source\PSoC4/I2COLED_I2C_MASTER.c **** * Function Name: I2COLED_I2CMasterGetReadBufSize
 741:Generated_Source\PSoC4/I2COLED_I2C_MASTER.c **** ********************************************************************************
 742:Generated_Source\PSoC4/I2COLED_I2C_MASTER.c **** *
 743:Generated_Source\PSoC4/I2COLED_I2C_MASTER.c **** * Summary:
 744:Generated_Source\PSoC4/I2COLED_I2C_MASTER.c **** *  Returns the number of bytes that has been transferred with an
 745:Generated_Source\PSoC4/I2COLED_I2C_MASTER.c **** *  SCB_I2CMasterReadBuf() function.
 746:Generated_Source\PSoC4/I2COLED_I2C_MASTER.c **** *
 747:Generated_Source\PSoC4/I2COLED_I2C_MASTER.c **** * Parameters:
 748:Generated_Source\PSoC4/I2COLED_I2C_MASTER.c **** *  None
 749:Generated_Source\PSoC4/I2COLED_I2C_MASTER.c **** *
 750:Generated_Source\PSoC4/I2COLED_I2C_MASTER.c **** * Return:
 751:Generated_Source\PSoC4/I2COLED_I2C_MASTER.c **** *  Byte count of transfer. If the transfer is not yet complete, it returns
 752:Generated_Source\PSoC4/I2COLED_I2C_MASTER.c **** *  the byte count transferred so far.
 753:Generated_Source\PSoC4/I2COLED_I2C_MASTER.c **** *
 754:Generated_Source\PSoC4/I2COLED_I2C_MASTER.c **** * Side Effects:
 755:Generated_Source\PSoC4/I2COLED_I2C_MASTER.c **** *  This function returns not valid value if SCB_I2C_MSTAT_ERR_ARB_LOST
 756:Generated_Source\PSoC4/I2COLED_I2C_MASTER.c **** *  or SCB_I2C_MSTAT_ERR_BUS_ERROR occurred while read transfer.
 757:Generated_Source\PSoC4/I2COLED_I2C_MASTER.c **** *
 758:Generated_Source\PSoC4/I2COLED_I2C_MASTER.c **** * Global variables:
 759:Generated_Source\PSoC4/I2COLED_I2C_MASTER.c **** *  I2COLED_mstrRdBufIndex - used to current index within master read
 760:Generated_Source\PSoC4/I2COLED_I2C_MASTER.c **** *  buffer.
 761:Generated_Source\PSoC4/I2COLED_I2C_MASTER.c **** *
 762:Generated_Source\PSoC4/I2COLED_I2C_MASTER.c **** *******************************************************************************/
 763:Generated_Source\PSoC4/I2COLED_I2C_MASTER.c **** uint32 I2COLED_I2CMasterGetReadBufSize(void)
 764:Generated_Source\PSoC4/I2COLED_I2C_MASTER.c **** {
 1217              		.loc 1 764 0
 1218              		.cfi_startproc
 1219              		@ args = 0, pretend = 0, frame = 0
 1220              		@ frame_needed = 1, uses_anonymous_args = 0
 1221 0000 80B5     		push	{r7, lr}
 1222              		.cfi_def_cfa_offset 8
 1223              		.cfi_offset 7, -8
 1224              		.cfi_offset 14, -4
 1225 0002 00AF     		add	r7, sp, #0
 1226              		.cfi_def_cfa_register 7
 765:Generated_Source\PSoC4/I2COLED_I2C_MASTER.c ****     return(I2COLED_mstrRdBufIndex);
 1227              		.loc 1 765 0
 1228 0004 024B     		ldr	r3, .L83
 1229 0006 1B68     		ldr	r3, [r3]
ARM GAS  C:\Users\jdrd3\AppData\Local\Temp\cch5OljY.s 			page 36


 766:Generated_Source\PSoC4/I2COLED_I2C_MASTER.c **** }
 1230              		.loc 1 766 0
 1231 0008 1800     		movs	r0, r3
 1232 000a BD46     		mov	sp, r7
 1233              		@ sp needed
 1234 000c 80BD     		pop	{r7, pc}
 1235              	.L84:
 1236 000e C046     		.align	2
 1237              	.L83:
 1238 0010 00000000 		.word	I2COLED_mstrRdBufIndex
 1239              		.cfi_endproc
 1240              	.LFE7:
 1241              		.size	I2COLED_I2CMasterGetReadBufSize, .-I2COLED_I2CMasterGetReadBufSize
 1242              		.section	.text.I2COLED_I2CMasterGetWriteBufSize,"ax",%progbits
 1243              		.align	2
 1244              		.global	I2COLED_I2CMasterGetWriteBufSize
 1245              		.code	16
 1246              		.thumb_func
 1247              		.type	I2COLED_I2CMasterGetWriteBufSize, %function
 1248              	I2COLED_I2CMasterGetWriteBufSize:
 1249              	.LFB8:
 767:Generated_Source\PSoC4/I2COLED_I2C_MASTER.c **** 
 768:Generated_Source\PSoC4/I2COLED_I2C_MASTER.c **** 
 769:Generated_Source\PSoC4/I2COLED_I2C_MASTER.c **** /*******************************************************************************
 770:Generated_Source\PSoC4/I2COLED_I2C_MASTER.c **** * Function Name: I2COLED_I2CMasterGetWriteBufSize
 771:Generated_Source\PSoC4/I2COLED_I2C_MASTER.c **** ********************************************************************************
 772:Generated_Source\PSoC4/I2COLED_I2C_MASTER.c **** *
 773:Generated_Source\PSoC4/I2COLED_I2C_MASTER.c **** * Summary:
 774:Generated_Source\PSoC4/I2COLED_I2C_MASTER.c **** *  Returns the number of bytes that have been transferred with an
 775:Generated_Source\PSoC4/I2COLED_I2C_MASTER.c **** *  SCB_I2CMasterWriteBuf() function.
 776:Generated_Source\PSoC4/I2COLED_I2C_MASTER.c **** *
 777:Generated_Source\PSoC4/I2COLED_I2C_MASTER.c **** * Parameters:
 778:Generated_Source\PSoC4/I2COLED_I2C_MASTER.c **** *  None
 779:Generated_Source\PSoC4/I2COLED_I2C_MASTER.c **** *
 780:Generated_Source\PSoC4/I2COLED_I2C_MASTER.c **** * Return:
 781:Generated_Source\PSoC4/I2COLED_I2C_MASTER.c **** *  Byte count of transfer. If the transfer is not yet complete, it returns
 782:Generated_Source\PSoC4/I2COLED_I2C_MASTER.c **** *  zero unit transfer completion.
 783:Generated_Source\PSoC4/I2COLED_I2C_MASTER.c **** *
 784:Generated_Source\PSoC4/I2COLED_I2C_MASTER.c **** * Side Effects:
 785:Generated_Source\PSoC4/I2COLED_I2C_MASTER.c **** *  This function returns not valid value if SCB_I2C_MSTAT_ERR_ARB_LOST
 786:Generated_Source\PSoC4/I2COLED_I2C_MASTER.c **** *  or SCB_I2C_MSTAT_ERR_BUS_ERROR occurred while read transfer.
 787:Generated_Source\PSoC4/I2COLED_I2C_MASTER.c **** *
 788:Generated_Source\PSoC4/I2COLED_I2C_MASTER.c **** * Global variables:
 789:Generated_Source\PSoC4/I2COLED_I2C_MASTER.c **** *  I2COLED_mstrWrBufIndex - used to current index within master write
 790:Generated_Source\PSoC4/I2COLED_I2C_MASTER.c **** *  buffer.
 791:Generated_Source\PSoC4/I2COLED_I2C_MASTER.c **** *
 792:Generated_Source\PSoC4/I2COLED_I2C_MASTER.c **** *******************************************************************************/
 793:Generated_Source\PSoC4/I2COLED_I2C_MASTER.c **** uint32 I2COLED_I2CMasterGetWriteBufSize(void)
 794:Generated_Source\PSoC4/I2COLED_I2C_MASTER.c **** {
 1250              		.loc 1 794 0
 1251              		.cfi_startproc
 1252              		@ args = 0, pretend = 0, frame = 0
 1253              		@ frame_needed = 1, uses_anonymous_args = 0
 1254 0000 80B5     		push	{r7, lr}
 1255              		.cfi_def_cfa_offset 8
 1256              		.cfi_offset 7, -8
 1257              		.cfi_offset 14, -4
ARM GAS  C:\Users\jdrd3\AppData\Local\Temp\cch5OljY.s 			page 37


 1258 0002 00AF     		add	r7, sp, #0
 1259              		.cfi_def_cfa_register 7
 795:Generated_Source\PSoC4/I2COLED_I2C_MASTER.c ****     return(I2COLED_mstrWrBufIndex);
 1260              		.loc 1 795 0
 1261 0004 024B     		ldr	r3, .L87
 1262 0006 1B68     		ldr	r3, [r3]
 796:Generated_Source\PSoC4/I2COLED_I2C_MASTER.c **** }
 1263              		.loc 1 796 0
 1264 0008 1800     		movs	r0, r3
 1265 000a BD46     		mov	sp, r7
 1266              		@ sp needed
 1267 000c 80BD     		pop	{r7, pc}
 1268              	.L88:
 1269 000e C046     		.align	2
 1270              	.L87:
 1271 0010 00000000 		.word	I2COLED_mstrWrBufIndex
 1272              		.cfi_endproc
 1273              	.LFE8:
 1274              		.size	I2COLED_I2CMasterGetWriteBufSize, .-I2COLED_I2CMasterGetWriteBufSize
 1275              		.section	.text.I2COLED_I2CMasterClearReadBuf,"ax",%progbits
 1276              		.align	2
 1277              		.global	I2COLED_I2CMasterClearReadBuf
 1278              		.code	16
 1279              		.thumb_func
 1280              		.type	I2COLED_I2CMasterClearReadBuf, %function
 1281              	I2COLED_I2CMasterClearReadBuf:
 1282              	.LFB9:
 797:Generated_Source\PSoC4/I2COLED_I2C_MASTER.c **** 
 798:Generated_Source\PSoC4/I2COLED_I2C_MASTER.c **** 
 799:Generated_Source\PSoC4/I2COLED_I2C_MASTER.c **** /*******************************************************************************
 800:Generated_Source\PSoC4/I2COLED_I2C_MASTER.c **** * Function Name: I2COLED_I2CMasterClearReadBuf
 801:Generated_Source\PSoC4/I2COLED_I2C_MASTER.c **** ********************************************************************************
 802:Generated_Source\PSoC4/I2COLED_I2C_MASTER.c **** *
 803:Generated_Source\PSoC4/I2COLED_I2C_MASTER.c **** * Summary:
 804:Generated_Source\PSoC4/I2COLED_I2C_MASTER.c **** *  Resets the read buffer pointer back to the first byte in the buffer.
 805:Generated_Source\PSoC4/I2COLED_I2C_MASTER.c **** *
 806:Generated_Source\PSoC4/I2COLED_I2C_MASTER.c **** * Parameters:
 807:Generated_Source\PSoC4/I2COLED_I2C_MASTER.c **** *  None
 808:Generated_Source\PSoC4/I2COLED_I2C_MASTER.c **** *
 809:Generated_Source\PSoC4/I2COLED_I2C_MASTER.c **** * Return:
 810:Generated_Source\PSoC4/I2COLED_I2C_MASTER.c **** *  None
 811:Generated_Source\PSoC4/I2COLED_I2C_MASTER.c **** *
 812:Generated_Source\PSoC4/I2COLED_I2C_MASTER.c **** * Global variables:
 813:Generated_Source\PSoC4/I2COLED_I2C_MASTER.c **** *  I2COLED_mstrRdBufIndex - used to current index within master read
 814:Generated_Source\PSoC4/I2COLED_I2C_MASTER.c **** *   buffer.
 815:Generated_Source\PSoC4/I2COLED_I2C_MASTER.c **** *  I2COLED_mstrStatus - used to store current status of I2C Master.
 816:Generated_Source\PSoC4/I2COLED_I2C_MASTER.c **** *
 817:Generated_Source\PSoC4/I2COLED_I2C_MASTER.c **** *******************************************************************************/
 818:Generated_Source\PSoC4/I2COLED_I2C_MASTER.c **** void I2COLED_I2CMasterClearReadBuf(void)
 819:Generated_Source\PSoC4/I2COLED_I2C_MASTER.c **** {
 1283              		.loc 1 819 0
 1284              		.cfi_startproc
 1285              		@ args = 0, pretend = 0, frame = 0
 1286              		@ frame_needed = 1, uses_anonymous_args = 0
 1287 0000 80B5     		push	{r7, lr}
 1288              		.cfi_def_cfa_offset 8
 1289              		.cfi_offset 7, -8
ARM GAS  C:\Users\jdrd3\AppData\Local\Temp\cch5OljY.s 			page 38


 1290              		.cfi_offset 14, -4
 1291 0002 00AF     		add	r7, sp, #0
 1292              		.cfi_def_cfa_register 7
 820:Generated_Source\PSoC4/I2COLED_I2C_MASTER.c ****     I2COLED_DisableInt();  /* Lock from interruption */
 1293              		.loc 1 820 0
 1294 0004 0B20     		movs	r0, #11
 1295 0006 FFF7FEFF 		bl	CyIntDisable
 821:Generated_Source\PSoC4/I2COLED_I2C_MASTER.c **** 
 822:Generated_Source\PSoC4/I2COLED_I2C_MASTER.c ****     I2COLED_mstrRdBufIndex = 0u;
 1296              		.loc 1 822 0
 1297 000a 084B     		ldr	r3, .L90
 1298 000c 0022     		movs	r2, #0
 1299 000e 1A60     		str	r2, [r3]
 823:Generated_Source\PSoC4/I2COLED_I2C_MASTER.c ****     I2COLED_mstrStatus    &= (uint16) ~I2COLED_I2C_MSTAT_RD_CMPLT;
 1300              		.loc 1 823 0
 1301 0010 074B     		ldr	r3, .L90+4
 1302 0012 1B88     		ldrh	r3, [r3]
 1303 0014 9BB2     		uxth	r3, r3
 1304 0016 0122     		movs	r2, #1
 1305 0018 9343     		bics	r3, r2
 1306 001a 9AB2     		uxth	r2, r3
 1307 001c 044B     		ldr	r3, .L90+4
 1308 001e 1A80     		strh	r2, [r3]
 824:Generated_Source\PSoC4/I2COLED_I2C_MASTER.c **** 
 825:Generated_Source\PSoC4/I2COLED_I2C_MASTER.c ****     I2COLED_EnableInt();   /* Release lock */
 1309              		.loc 1 825 0
 1310 0020 0B20     		movs	r0, #11
 1311 0022 FFF7FEFF 		bl	CyIntEnable
 826:Generated_Source\PSoC4/I2COLED_I2C_MASTER.c **** }
 1312              		.loc 1 826 0
 1313 0026 C046     		nop
 1314 0028 BD46     		mov	sp, r7
 1315              		@ sp needed
 1316 002a 80BD     		pop	{r7, pc}
 1317              	.L91:
 1318              		.align	2
 1319              	.L90:
 1320 002c 00000000 		.word	I2COLED_mstrRdBufIndex
 1321 0030 00000000 		.word	I2COLED_mstrStatus
 1322              		.cfi_endproc
 1323              	.LFE9:
 1324              		.size	I2COLED_I2CMasterClearReadBuf, .-I2COLED_I2CMasterClearReadBuf
 1325              		.section	.text.I2COLED_I2CMasterClearWriteBuf,"ax",%progbits
 1326              		.align	2
 1327              		.global	I2COLED_I2CMasterClearWriteBuf
 1328              		.code	16
 1329              		.thumb_func
 1330              		.type	I2COLED_I2CMasterClearWriteBuf, %function
 1331              	I2COLED_I2CMasterClearWriteBuf:
 1332              	.LFB10:
 827:Generated_Source\PSoC4/I2COLED_I2C_MASTER.c **** 
 828:Generated_Source\PSoC4/I2COLED_I2C_MASTER.c **** 
 829:Generated_Source\PSoC4/I2COLED_I2C_MASTER.c **** /*******************************************************************************
 830:Generated_Source\PSoC4/I2COLED_I2C_MASTER.c **** * Function Name: I2COLED_I2CMasterClearWriteBuf
 831:Generated_Source\PSoC4/I2COLED_I2C_MASTER.c **** ********************************************************************************
 832:Generated_Source\PSoC4/I2COLED_I2C_MASTER.c **** *
 833:Generated_Source\PSoC4/I2COLED_I2C_MASTER.c **** * Summary:
ARM GAS  C:\Users\jdrd3\AppData\Local\Temp\cch5OljY.s 			page 39


 834:Generated_Source\PSoC4/I2COLED_I2C_MASTER.c **** *  Resets the write buffer pointer back to the first byte in the buffer.
 835:Generated_Source\PSoC4/I2COLED_I2C_MASTER.c **** *
 836:Generated_Source\PSoC4/I2COLED_I2C_MASTER.c **** * Parameters:
 837:Generated_Source\PSoC4/I2COLED_I2C_MASTER.c **** *  None
 838:Generated_Source\PSoC4/I2COLED_I2C_MASTER.c **** *
 839:Generated_Source\PSoC4/I2COLED_I2C_MASTER.c **** * Return:
 840:Generated_Source\PSoC4/I2COLED_I2C_MASTER.c **** *  None
 841:Generated_Source\PSoC4/I2COLED_I2C_MASTER.c **** *
 842:Generated_Source\PSoC4/I2COLED_I2C_MASTER.c **** * Global variables:
 843:Generated_Source\PSoC4/I2COLED_I2C_MASTER.c **** *  I2COLED_mstrRdBufIndex - used to current index within master read
 844:Generated_Source\PSoC4/I2COLED_I2C_MASTER.c **** *   buffer.
 845:Generated_Source\PSoC4/I2COLED_I2C_MASTER.c **** *  I2COLED_mstrStatus - used to store current status of I2C Master.
 846:Generated_Source\PSoC4/I2COLED_I2C_MASTER.c **** *
 847:Generated_Source\PSoC4/I2COLED_I2C_MASTER.c **** *******************************************************************************/
 848:Generated_Source\PSoC4/I2COLED_I2C_MASTER.c **** void I2COLED_I2CMasterClearWriteBuf(void)
 849:Generated_Source\PSoC4/I2COLED_I2C_MASTER.c **** {
 1333              		.loc 1 849 0
 1334              		.cfi_startproc
 1335              		@ args = 0, pretend = 0, frame = 0
 1336              		@ frame_needed = 1, uses_anonymous_args = 0
 1337 0000 80B5     		push	{r7, lr}
 1338              		.cfi_def_cfa_offset 8
 1339              		.cfi_offset 7, -8
 1340              		.cfi_offset 14, -4
 1341 0002 00AF     		add	r7, sp, #0
 1342              		.cfi_def_cfa_register 7
 850:Generated_Source\PSoC4/I2COLED_I2C_MASTER.c ****     I2COLED_DisableInt();  /* Lock from interruption */
 1343              		.loc 1 850 0
 1344 0004 0B20     		movs	r0, #11
 1345 0006 FFF7FEFF 		bl	CyIntDisable
 851:Generated_Source\PSoC4/I2COLED_I2C_MASTER.c **** 
 852:Generated_Source\PSoC4/I2COLED_I2C_MASTER.c ****     I2COLED_mstrWrBufIndex = 0u;
 1346              		.loc 1 852 0
 1347 000a 084B     		ldr	r3, .L93
 1348 000c 0022     		movs	r2, #0
 1349 000e 1A60     		str	r2, [r3]
 853:Generated_Source\PSoC4/I2COLED_I2C_MASTER.c ****     I2COLED_mstrStatus    &= (uint16) ~I2COLED_I2C_MSTAT_WR_CMPLT;
 1350              		.loc 1 853 0
 1351 0010 074B     		ldr	r3, .L93+4
 1352 0012 1B88     		ldrh	r3, [r3]
 1353 0014 9BB2     		uxth	r3, r3
 1354 0016 0222     		movs	r2, #2
 1355 0018 9343     		bics	r3, r2
 1356 001a 9AB2     		uxth	r2, r3
 1357 001c 044B     		ldr	r3, .L93+4
 1358 001e 1A80     		strh	r2, [r3]
 854:Generated_Source\PSoC4/I2COLED_I2C_MASTER.c **** 
 855:Generated_Source\PSoC4/I2COLED_I2C_MASTER.c ****     I2COLED_EnableInt();   /* Release lock */
 1359              		.loc 1 855 0
 1360 0020 0B20     		movs	r0, #11
 1361 0022 FFF7FEFF 		bl	CyIntEnable
 856:Generated_Source\PSoC4/I2COLED_I2C_MASTER.c **** }
 1362              		.loc 1 856 0
 1363 0026 C046     		nop
 1364 0028 BD46     		mov	sp, r7
 1365              		@ sp needed
 1366 002a 80BD     		pop	{r7, pc}
ARM GAS  C:\Users\jdrd3\AppData\Local\Temp\cch5OljY.s 			page 40


 1367              	.L94:
 1368              		.align	2
 1369              	.L93:
 1370 002c 00000000 		.word	I2COLED_mstrWrBufIndex
 1371 0030 00000000 		.word	I2COLED_mstrStatus
 1372              		.cfi_endproc
 1373              	.LFE10:
 1374              		.size	I2COLED_I2CMasterClearWriteBuf, .-I2COLED_I2CMasterClearWriteBuf
 1375              		.section	.text.I2COLED_I2CMasterStatus,"ax",%progbits
 1376              		.align	2
 1377              		.global	I2COLED_I2CMasterStatus
 1378              		.code	16
 1379              		.thumb_func
 1380              		.type	I2COLED_I2CMasterStatus, %function
 1381              	I2COLED_I2CMasterStatus:
 1382              	.LFB11:
 857:Generated_Source\PSoC4/I2COLED_I2C_MASTER.c **** 
 858:Generated_Source\PSoC4/I2COLED_I2C_MASTER.c **** 
 859:Generated_Source\PSoC4/I2COLED_I2C_MASTER.c **** /*******************************************************************************
 860:Generated_Source\PSoC4/I2COLED_I2C_MASTER.c **** * Function Name: I2COLED_I2CMasterStatus
 861:Generated_Source\PSoC4/I2COLED_I2C_MASTER.c **** ********************************************************************************
 862:Generated_Source\PSoC4/I2COLED_I2C_MASTER.c **** *
 863:Generated_Source\PSoC4/I2COLED_I2C_MASTER.c **** * Summary:
 864:Generated_Source\PSoC4/I2COLED_I2C_MASTER.c **** *  Returns the master's communication status.
 865:Generated_Source\PSoC4/I2COLED_I2C_MASTER.c **** *
 866:Generated_Source\PSoC4/I2COLED_I2C_MASTER.c **** * Parameters:
 867:Generated_Source\PSoC4/I2COLED_I2C_MASTER.c **** *  None
 868:Generated_Source\PSoC4/I2COLED_I2C_MASTER.c **** *
 869:Generated_Source\PSoC4/I2COLED_I2C_MASTER.c **** * Return:
 870:Generated_Source\PSoC4/I2COLED_I2C_MASTER.c **** *  Current status of I2C master.
 871:Generated_Source\PSoC4/I2COLED_I2C_MASTER.c **** *
 872:Generated_Source\PSoC4/I2COLED_I2C_MASTER.c **** * Global variables:
 873:Generated_Source\PSoC4/I2COLED_I2C_MASTER.c **** *  I2COLED_mstrStatus - used to store current status of I2C Master.
 874:Generated_Source\PSoC4/I2COLED_I2C_MASTER.c **** *
 875:Generated_Source\PSoC4/I2COLED_I2C_MASTER.c **** *******************************************************************************/
 876:Generated_Source\PSoC4/I2COLED_I2C_MASTER.c **** uint32 I2COLED_I2CMasterStatus(void)
 877:Generated_Source\PSoC4/I2COLED_I2C_MASTER.c **** {
 1383              		.loc 1 877 0
 1384              		.cfi_startproc
 1385              		@ args = 0, pretend = 0, frame = 8
 1386              		@ frame_needed = 1, uses_anonymous_args = 0
 1387 0000 80B5     		push	{r7, lr}
 1388              		.cfi_def_cfa_offset 8
 1389              		.cfi_offset 7, -8
 1390              		.cfi_offset 14, -4
 1391 0002 82B0     		sub	sp, sp, #8
 1392              		.cfi_def_cfa_offset 16
 1393 0004 00AF     		add	r7, sp, #0
 1394              		.cfi_def_cfa_register 7
 878:Generated_Source\PSoC4/I2COLED_I2C_MASTER.c ****     uint32 status;
 879:Generated_Source\PSoC4/I2COLED_I2C_MASTER.c **** 
 880:Generated_Source\PSoC4/I2COLED_I2C_MASTER.c ****     I2COLED_DisableInt();  /* Lock from interruption */
 1395              		.loc 1 880 0
 1396 0006 0B20     		movs	r0, #11
 1397 0008 FFF7FEFF 		bl	CyIntDisable
 881:Generated_Source\PSoC4/I2COLED_I2C_MASTER.c **** 
 882:Generated_Source\PSoC4/I2COLED_I2C_MASTER.c ****     status = (uint32) I2COLED_mstrStatus;
ARM GAS  C:\Users\jdrd3\AppData\Local\Temp\cch5OljY.s 			page 41


 1398              		.loc 1 882 0
 1399 000c 0B4B     		ldr	r3, .L98
 1400 000e 1B88     		ldrh	r3, [r3]
 1401 0010 9BB2     		uxth	r3, r3
 1402 0012 7B60     		str	r3, [r7, #4]
 883:Generated_Source\PSoC4/I2COLED_I2C_MASTER.c **** 
 884:Generated_Source\PSoC4/I2COLED_I2C_MASTER.c ****     if (I2COLED_CHECK_I2C_MASTER_ACTIVE)
 1403              		.loc 1 884 0
 1404 0014 0A4B     		ldr	r3, .L98+4
 1405 0016 1B78     		ldrb	r3, [r3]
 1406 0018 DBB2     		uxtb	r3, r3
 1407 001a 2022     		movs	r2, #32
 1408 001c 1340     		ands	r3, r2
 1409 001e DBB2     		uxtb	r3, r3
 1410 0020 002B     		cmp	r3, #0
 1411 0022 03D0     		beq	.L96
 885:Generated_Source\PSoC4/I2COLED_I2C_MASTER.c ****     {
 886:Generated_Source\PSoC4/I2COLED_I2C_MASTER.c ****         /* Add status of master pending transaction: MSTAT_XFER_INP */
 887:Generated_Source\PSoC4/I2COLED_I2C_MASTER.c ****         status |= (uint32) I2COLED_I2C_MSTAT_XFER_INP;
 1412              		.loc 1 887 0
 1413 0024 7B68     		ldr	r3, [r7, #4]
 1414 0026 0422     		movs	r2, #4
 1415 0028 1343     		orrs	r3, r2
 1416 002a 7B60     		str	r3, [r7, #4]
 1417              	.L96:
 888:Generated_Source\PSoC4/I2COLED_I2C_MASTER.c ****     }
 889:Generated_Source\PSoC4/I2COLED_I2C_MASTER.c **** 
 890:Generated_Source\PSoC4/I2COLED_I2C_MASTER.c ****     I2COLED_EnableInt();   /* Release lock */
 1418              		.loc 1 890 0
 1419 002c 0B20     		movs	r0, #11
 1420 002e FFF7FEFF 		bl	CyIntEnable
 891:Generated_Source\PSoC4/I2COLED_I2C_MASTER.c **** 
 892:Generated_Source\PSoC4/I2COLED_I2C_MASTER.c ****     return(status);
 1421              		.loc 1 892 0
 1422 0032 7B68     		ldr	r3, [r7, #4]
 893:Generated_Source\PSoC4/I2COLED_I2C_MASTER.c **** }
 1423              		.loc 1 893 0
 1424 0034 1800     		movs	r0, r3
 1425 0036 BD46     		mov	sp, r7
 1426 0038 02B0     		add	sp, sp, #8
 1427              		@ sp needed
 1428 003a 80BD     		pop	{r7, pc}
 1429              	.L99:
 1430              		.align	2
 1431              	.L98:
 1432 003c 00000000 		.word	I2COLED_mstrStatus
 1433 0040 00000000 		.word	I2COLED_state
 1434              		.cfi_endproc
 1435              	.LFE11:
 1436              		.size	I2COLED_I2CMasterStatus, .-I2COLED_I2CMasterStatus
 1437              		.section	.text.I2COLED_I2CMasterClearStatus,"ax",%progbits
 1438              		.align	2
 1439              		.global	I2COLED_I2CMasterClearStatus
 1440              		.code	16
 1441              		.thumb_func
 1442              		.type	I2COLED_I2CMasterClearStatus, %function
 1443              	I2COLED_I2CMasterClearStatus:
ARM GAS  C:\Users\jdrd3\AppData\Local\Temp\cch5OljY.s 			page 42


 1444              	.LFB12:
 894:Generated_Source\PSoC4/I2COLED_I2C_MASTER.c **** 
 895:Generated_Source\PSoC4/I2COLED_I2C_MASTER.c **** 
 896:Generated_Source\PSoC4/I2COLED_I2C_MASTER.c **** /*******************************************************************************
 897:Generated_Source\PSoC4/I2COLED_I2C_MASTER.c **** * Function Name: I2COLED_I2CMasterClearStatus
 898:Generated_Source\PSoC4/I2COLED_I2C_MASTER.c **** ********************************************************************************
 899:Generated_Source\PSoC4/I2COLED_I2C_MASTER.c **** *
 900:Generated_Source\PSoC4/I2COLED_I2C_MASTER.c **** * Summary:
 901:Generated_Source\PSoC4/I2COLED_I2C_MASTER.c **** *  Clears all status flags and returns the master status.
 902:Generated_Source\PSoC4/I2COLED_I2C_MASTER.c **** *
 903:Generated_Source\PSoC4/I2COLED_I2C_MASTER.c **** * Parameters:
 904:Generated_Source\PSoC4/I2COLED_I2C_MASTER.c **** *  None
 905:Generated_Source\PSoC4/I2COLED_I2C_MASTER.c **** *
 906:Generated_Source\PSoC4/I2COLED_I2C_MASTER.c **** * Return:
 907:Generated_Source\PSoC4/I2COLED_I2C_MASTER.c **** *  Current status of I2C master.
 908:Generated_Source\PSoC4/I2COLED_I2C_MASTER.c **** *
 909:Generated_Source\PSoC4/I2COLED_I2C_MASTER.c **** * Global variables:
 910:Generated_Source\PSoC4/I2COLED_I2C_MASTER.c **** *  I2COLED_mstrStatus - used to store current status of I2C Master.
 911:Generated_Source\PSoC4/I2COLED_I2C_MASTER.c **** *
 912:Generated_Source\PSoC4/I2COLED_I2C_MASTER.c **** *******************************************************************************/
 913:Generated_Source\PSoC4/I2COLED_I2C_MASTER.c **** uint32 I2COLED_I2CMasterClearStatus(void)
 914:Generated_Source\PSoC4/I2COLED_I2C_MASTER.c **** {
 1445              		.loc 1 914 0
 1446              		.cfi_startproc
 1447              		@ args = 0, pretend = 0, frame = 8
 1448              		@ frame_needed = 1, uses_anonymous_args = 0
 1449 0000 80B5     		push	{r7, lr}
 1450              		.cfi_def_cfa_offset 8
 1451              		.cfi_offset 7, -8
 1452              		.cfi_offset 14, -4
 1453 0002 82B0     		sub	sp, sp, #8
 1454              		.cfi_def_cfa_offset 16
 1455 0004 00AF     		add	r7, sp, #0
 1456              		.cfi_def_cfa_register 7
 915:Generated_Source\PSoC4/I2COLED_I2C_MASTER.c ****     uint32 status;
 916:Generated_Source\PSoC4/I2COLED_I2C_MASTER.c **** 
 917:Generated_Source\PSoC4/I2COLED_I2C_MASTER.c ****     I2COLED_DisableInt();  /* Lock from interruption */
 1457              		.loc 1 917 0
 1458 0006 0B20     		movs	r0, #11
 1459 0008 FFF7FEFF 		bl	CyIntDisable
 918:Generated_Source\PSoC4/I2COLED_I2C_MASTER.c **** 
 919:Generated_Source\PSoC4/I2COLED_I2C_MASTER.c ****     /* Read and clear master status */
 920:Generated_Source\PSoC4/I2COLED_I2C_MASTER.c ****     status = (uint32) I2COLED_mstrStatus;
 1460              		.loc 1 920 0
 1461 000c 074B     		ldr	r3, .L102
 1462 000e 1B88     		ldrh	r3, [r3]
 1463 0010 9BB2     		uxth	r3, r3
 1464 0012 7B60     		str	r3, [r7, #4]
 921:Generated_Source\PSoC4/I2COLED_I2C_MASTER.c ****     I2COLED_mstrStatus = I2COLED_I2C_MSTAT_CLEAR;
 1465              		.loc 1 921 0
 1466 0014 054B     		ldr	r3, .L102
 1467 0016 0022     		movs	r2, #0
 1468 0018 1A80     		strh	r2, [r3]
 922:Generated_Source\PSoC4/I2COLED_I2C_MASTER.c **** 
 923:Generated_Source\PSoC4/I2COLED_I2C_MASTER.c ****     I2COLED_EnableInt();   /* Release lock */
 1469              		.loc 1 923 0
 1470 001a 0B20     		movs	r0, #11
ARM GAS  C:\Users\jdrd3\AppData\Local\Temp\cch5OljY.s 			page 43


 1471 001c FFF7FEFF 		bl	CyIntEnable
 924:Generated_Source\PSoC4/I2COLED_I2C_MASTER.c **** 
 925:Generated_Source\PSoC4/I2COLED_I2C_MASTER.c ****     return(status);
 1472              		.loc 1 925 0
 1473 0020 7B68     		ldr	r3, [r7, #4]
 926:Generated_Source\PSoC4/I2COLED_I2C_MASTER.c **** }
 1474              		.loc 1 926 0
 1475 0022 1800     		movs	r0, r3
 1476 0024 BD46     		mov	sp, r7
 1477 0026 02B0     		add	sp, sp, #8
 1478              		@ sp needed
 1479 0028 80BD     		pop	{r7, pc}
 1480              	.L103:
 1481 002a C046     		.align	2
 1482              	.L102:
 1483 002c 00000000 		.word	I2COLED_mstrStatus
 1484              		.cfi_endproc
 1485              	.LFE12:
 1486              		.size	I2COLED_I2CMasterClearStatus, .-I2COLED_I2CMasterClearStatus
 1487              		.section	.text.I2COLED_I2CReStartGeneration,"ax",%progbits
 1488              		.align	2
 1489              		.global	I2COLED_I2CReStartGeneration
 1490              		.code	16
 1491              		.thumb_func
 1492              		.type	I2COLED_I2CReStartGeneration, %function
 1493              	I2COLED_I2CReStartGeneration:
 1494              	.LFB13:
 927:Generated_Source\PSoC4/I2COLED_I2C_MASTER.c **** 
 928:Generated_Source\PSoC4/I2COLED_I2C_MASTER.c **** 
 929:Generated_Source\PSoC4/I2COLED_I2C_MASTER.c **** /*******************************************************************************
 930:Generated_Source\PSoC4/I2COLED_I2C_MASTER.c **** * Function Name: I2COLED_I2CReStartGeneration
 931:Generated_Source\PSoC4/I2COLED_I2C_MASTER.c **** ********************************************************************************
 932:Generated_Source\PSoC4/I2COLED_I2C_MASTER.c **** *
 933:Generated_Source\PSoC4/I2COLED_I2C_MASTER.c **** * Summary:
 934:Generated_Source\PSoC4/I2COLED_I2C_MASTER.c **** *  Generates a ReStart condition:
 935:Generated_Source\PSoC4/I2COLED_I2C_MASTER.c **** *  SCB IP V1 and later: Generates ReStart using the scb IP functionality
 936:Generated_Source\PSoC4/I2COLED_I2C_MASTER.c **** *    Sets the I2C_MASTER_CMD_M_START and I2C_MASTER_CMD_M_NACK (if the previous
 937:Generated_Source\PSoC4/I2COLED_I2C_MASTER.c **** *    transaction was read) bits in the SCB.I2C_MASTER_CMD register.
 938:Generated_Source\PSoC4/I2COLED_I2C_MASTER.c **** *    This combination forces the master to generate ReStart.
 939:Generated_Source\PSoC4/I2COLED_I2C_MASTER.c **** *
 940:Generated_Source\PSoC4/I2COLED_I2C_MASTER.c **** *  SCB IP V0: Generates Restart using the GPIO and scb IP functionality.
 941:Generated_Source\PSoC4/I2COLED_I2C_MASTER.c **** *   After the master completes write or read, the SCL is stretched.
 942:Generated_Source\PSoC4/I2COLED_I2C_MASTER.c **** *   The master waits until SDA line is released by the slave. Then the GPIO
 943:Generated_Source\PSoC4/I2COLED_I2C_MASTER.c **** *   function is enabled and the scb IP disabled as it already does not drive
 944:Generated_Source\PSoC4/I2COLED_I2C_MASTER.c **** *   the bus. In case of the previous transfer was read, the NACK is generated
 945:Generated_Source\PSoC4/I2COLED_I2C_MASTER.c **** *   by the GPIO. The delay of tLOW is added to manage the hold time.
 946:Generated_Source\PSoC4/I2COLED_I2C_MASTER.c **** *   Set I2C_M_CMD.START and enable the scb IP. The ReStart generation
 947:Generated_Source\PSoC4/I2COLED_I2C_MASTER.c **** *   is started after the I2C function is enabled for the SCL.
 948:Generated_Source\PSoC4/I2COLED_I2C_MASTER.c **** *   Note1: the scb IP due re-enable generates Start but on the I2C bus it
 949:Generated_Source\PSoC4/I2COLED_I2C_MASTER.c **** *          appears as ReStart.
 950:Generated_Source\PSoC4/I2COLED_I2C_MASTER.c **** *   Note2: the I2C_M_CMD.START is queued if scb IP is disabled.
 951:Generated_Source\PSoC4/I2COLED_I2C_MASTER.c **** *   Note3: the I2C_STATUS_M_READ is cleared is address was NACKed before.
 952:Generated_Source\PSoC4/I2COLED_I2C_MASTER.c **** *
 953:Generated_Source\PSoC4/I2COLED_I2C_MASTER.c **** * Parameters:
 954:Generated_Source\PSoC4/I2COLED_I2C_MASTER.c **** *  None
 955:Generated_Source\PSoC4/I2COLED_I2C_MASTER.c **** *
 956:Generated_Source\PSoC4/I2COLED_I2C_MASTER.c **** * Return:
ARM GAS  C:\Users\jdrd3\AppData\Local\Temp\cch5OljY.s 			page 44


 957:Generated_Source\PSoC4/I2COLED_I2C_MASTER.c **** *  None
 958:Generated_Source\PSoC4/I2COLED_I2C_MASTER.c **** *
 959:Generated_Source\PSoC4/I2COLED_I2C_MASTER.c **** * Side Effects:
 960:Generated_Source\PSoC4/I2COLED_I2C_MASTER.c **** *  SCB IP V0: The NACK generation by the GPIO may cause a greater SCL period
 961:Generated_Source\PSoC4/I2COLED_I2C_MASTER.c **** *             than expected for the selected master data rate.
 962:Generated_Source\PSoC4/I2COLED_I2C_MASTER.c **** *
 963:Generated_Source\PSoC4/I2COLED_I2C_MASTER.c **** *******************************************************************************/
 964:Generated_Source\PSoC4/I2COLED_I2C_MASTER.c **** void I2COLED_I2CReStartGeneration(void)
 965:Generated_Source\PSoC4/I2COLED_I2C_MASTER.c **** {
 1495              		.loc 1 965 0
 1496              		.cfi_startproc
 1497              		@ args = 0, pretend = 0, frame = 8
 1498              		@ frame_needed = 1, uses_anonymous_args = 0
 1499 0000 80B5     		push	{r7, lr}
 1500              		.cfi_def_cfa_offset 8
 1501              		.cfi_offset 7, -8
 1502              		.cfi_offset 14, -4
 1503 0002 82B0     		sub	sp, sp, #8
 1504              		.cfi_def_cfa_offset 16
 1505 0004 00AF     		add	r7, sp, #0
 1506              		.cfi_def_cfa_register 7
 966:Generated_Source\PSoC4/I2COLED_I2C_MASTER.c **** #if(I2COLED_CY_SCBIP_V0)
 967:Generated_Source\PSoC4/I2COLED_I2C_MASTER.c ****     /* Generates Restart use GPIO and scb IP functionality. Ticket ID#143715,
 968:Generated_Source\PSoC4/I2COLED_I2C_MASTER.c ****     ID#145238 and ID#173656 */
 969:Generated_Source\PSoC4/I2COLED_I2C_MASTER.c ****     uint32 status = I2COLED_I2C_STATUS_REG;
 1507              		.loc 1 969 0
 1508 0006 264B     		ldr	r3, .L108
 1509 0008 1B68     		ldr	r3, [r3]
 1510 000a 7B60     		str	r3, [r7, #4]
 970:Generated_Source\PSoC4/I2COLED_I2C_MASTER.c **** 
 971:Generated_Source\PSoC4/I2COLED_I2C_MASTER.c ****     while(I2COLED_WAIT_SDA_SET_HIGH)
 1511              		.loc 1 971 0
 1512 000c C046     		nop
 1513              	.L105:
 1514              		.loc 1 971 0 is_stmt 0 discriminator 1
 1515 000e FFF7FEFF 		bl	I2COLED_sda_Read
 1516 0012 031E     		subs	r3, r0, #0
 1517 0014 FBD0     		beq	.L105
 972:Generated_Source\PSoC4/I2COLED_I2C_MASTER.c ****     {
 973:Generated_Source\PSoC4/I2COLED_I2C_MASTER.c ****         /* Wait when slave release SDA line: SCL tHIGH is complete */
 974:Generated_Source\PSoC4/I2COLED_I2C_MASTER.c ****     }
 975:Generated_Source\PSoC4/I2COLED_I2C_MASTER.c **** 
 976:Generated_Source\PSoC4/I2COLED_I2C_MASTER.c ****     /* Prepare DR register to drive SCL line */
 977:Generated_Source\PSoC4/I2COLED_I2C_MASTER.c ****     I2COLED_SET_I2C_SCL_DR(I2COLED_I2C_SCL_LOW);
 1518              		.loc 1 977 0 is_stmt 1
 1519 0016 0020     		movs	r0, #0
 1520 0018 FFF7FEFF 		bl	I2COLED_scl_Write
 978:Generated_Source\PSoC4/I2COLED_I2C_MASTER.c **** 
 979:Generated_Source\PSoC4/I2COLED_I2C_MASTER.c ****     /* Switch HSIOM to GPIO: SCL goes low */
 980:Generated_Source\PSoC4/I2COLED_I2C_MASTER.c ****     I2COLED_SET_I2C_SCL_HSIOM_SEL(I2COLED_HSIOM_GPIO_SEL);
 1521              		.loc 1 980 0
 1522 001c 214B     		ldr	r3, .L108+4
 1523 001e 214A     		ldr	r2, .L108+4
 1524 0020 1268     		ldr	r2, [r2]
 1525 0022 2149     		ldr	r1, .L108+8
 1526 0024 0A40     		ands	r2, r1
 1527 0026 1A60     		str	r2, [r3]
ARM GAS  C:\Users\jdrd3\AppData\Local\Temp\cch5OljY.s 			page 45


 981:Generated_Source\PSoC4/I2COLED_I2C_MASTER.c **** 
 982:Generated_Source\PSoC4/I2COLED_I2C_MASTER.c ****     /* Disable SCB block */
 983:Generated_Source\PSoC4/I2COLED_I2C_MASTER.c ****     I2COLED_CTRL_REG &= (uint32) ~I2COLED_CTRL_ENABLED;
 1528              		.loc 1 983 0
 1529 0028 204B     		ldr	r3, .L108+12
 1530 002a 204A     		ldr	r2, .L108+12
 1531 002c 1268     		ldr	r2, [r2]
 1532 002e 5200     		lsls	r2, r2, #1
 1533 0030 5208     		lsrs	r2, r2, #1
 1534 0032 1A60     		str	r2, [r3]
 984:Generated_Source\PSoC4/I2COLED_I2C_MASTER.c **** 
 985:Generated_Source\PSoC4/I2COLED_I2C_MASTER.c ****     if(0u != (status & I2COLED_I2C_STATUS_M_READ))
 1535              		.loc 1 985 0
 1536 0034 7B68     		ldr	r3, [r7, #4]
 1537 0036 2022     		movs	r2, #32
 1538 0038 1340     		ands	r3, r2
 1539 003a 10D0     		beq	.L106
 986:Generated_Source\PSoC4/I2COLED_I2C_MASTER.c ****     {
 987:Generated_Source\PSoC4/I2COLED_I2C_MASTER.c ****         /* Generate NACK use GPIO functionality */
 988:Generated_Source\PSoC4/I2COLED_I2C_MASTER.c ****         I2COLED_SET_I2C_SCL_DR(I2COLED_I2C_SCL_LOW);
 1540              		.loc 1 988 0
 1541 003c 0020     		movs	r0, #0
 1542 003e FFF7FEFF 		bl	I2COLED_scl_Write
 989:Generated_Source\PSoC4/I2COLED_I2C_MASTER.c ****         CyDelayUs(I2COLED_I2C_TLOW_TIME); /* Count tLOW */
 1543              		.loc 1 989 0
 1544 0042 0320     		movs	r0, #3
 1545 0044 FFF7FEFF 		bl	CyDelayUs
 990:Generated_Source\PSoC4/I2COLED_I2C_MASTER.c **** 
 991:Generated_Source\PSoC4/I2COLED_I2C_MASTER.c ****         I2COLED_SET_I2C_SCL_DR(I2COLED_I2C_SCL_HIGH);
 1546              		.loc 1 991 0
 1547 0048 0120     		movs	r0, #1
 1548 004a FFF7FEFF 		bl	I2COLED_scl_Write
 992:Generated_Source\PSoC4/I2COLED_I2C_MASTER.c ****         while(I2COLED_WAIT_SCL_SET_HIGH)
 1549              		.loc 1 992 0
 1550 004e C046     		nop
 1551              	.L107:
 1552              		.loc 1 992 0 is_stmt 0 discriminator 1
 1553 0050 FFF7FEFF 		bl	I2COLED_scl_Read
 1554 0054 031E     		subs	r3, r0, #0
 1555 0056 FBD0     		beq	.L107
 993:Generated_Source\PSoC4/I2COLED_I2C_MASTER.c ****         {
 994:Generated_Source\PSoC4/I2COLED_I2C_MASTER.c ****             /* Wait until slave releases SCL in case if it stretches */
 995:Generated_Source\PSoC4/I2COLED_I2C_MASTER.c ****         }
 996:Generated_Source\PSoC4/I2COLED_I2C_MASTER.c ****         CyDelayUs(I2COLED_I2C_THIGH_TIME); /* Count tHIGH */
 1556              		.loc 1 996 0 is_stmt 1
 1557 0058 0320     		movs	r0, #3
 1558 005a FFF7FEFF 		bl	CyDelayUs
 1559              	.L106:
 997:Generated_Source\PSoC4/I2COLED_I2C_MASTER.c ****     }
 998:Generated_Source\PSoC4/I2COLED_I2C_MASTER.c **** 
 999:Generated_Source\PSoC4/I2COLED_I2C_MASTER.c ****     /* Count tLOW as hold time for write and read */
1000:Generated_Source\PSoC4/I2COLED_I2C_MASTER.c ****     I2COLED_SET_I2C_SCL_DR(I2COLED_I2C_SCL_LOW);
 1560              		.loc 1 1000 0
 1561 005e 0020     		movs	r0, #0
 1562 0060 FFF7FEFF 		bl	I2COLED_scl_Write
1001:Generated_Source\PSoC4/I2COLED_I2C_MASTER.c ****     CyDelayUs(I2COLED_I2C_TLOW_TIME); /* Count tLOW */
 1563              		.loc 1 1001 0
ARM GAS  C:\Users\jdrd3\AppData\Local\Temp\cch5OljY.s 			page 46


 1564 0064 0320     		movs	r0, #3
 1565 0066 FFF7FEFF 		bl	CyDelayUs
1002:Generated_Source\PSoC4/I2COLED_I2C_MASTER.c **** 
1003:Generated_Source\PSoC4/I2COLED_I2C_MASTER.c ****     /* Set command for Start generation: it will appear */
1004:Generated_Source\PSoC4/I2COLED_I2C_MASTER.c ****     I2COLED_I2C_MASTER_CMD_REG = I2COLED_I2C_MASTER_CMD_M_START;
 1566              		.loc 1 1004 0
 1567 006a 114B     		ldr	r3, .L108+16
 1568 006c 0122     		movs	r2, #1
 1569 006e 1A60     		str	r2, [r3]
1005:Generated_Source\PSoC4/I2COLED_I2C_MASTER.c **** 
1006:Generated_Source\PSoC4/I2COLED_I2C_MASTER.c ****     /* Enable SCB block */
1007:Generated_Source\PSoC4/I2COLED_I2C_MASTER.c ****     I2COLED_CTRL_REG |= (uint32) I2COLED_CTRL_ENABLED;
 1570              		.loc 1 1007 0
 1571 0070 0E4B     		ldr	r3, .L108+12
 1572 0072 0E4A     		ldr	r2, .L108+12
 1573 0074 1268     		ldr	r2, [r2]
 1574 0076 8021     		movs	r1, #128
 1575 0078 0906     		lsls	r1, r1, #24
 1576 007a 0A43     		orrs	r2, r1
 1577 007c 1A60     		str	r2, [r3]
1008:Generated_Source\PSoC4/I2COLED_I2C_MASTER.c **** 
1009:Generated_Source\PSoC4/I2COLED_I2C_MASTER.c ****     /* Switch HSIOM to I2C: */
1010:Generated_Source\PSoC4/I2COLED_I2C_MASTER.c ****     I2COLED_SET_I2C_SCL_HSIOM_SEL(I2COLED_HSIOM_I2C_SEL);
 1578              		.loc 1 1010 0
 1579 007e 094B     		ldr	r3, .L108+4
 1580 0080 084A     		ldr	r2, .L108+4
 1581 0082 1268     		ldr	r2, [r2]
 1582 0084 0849     		ldr	r1, .L108+8
 1583 0086 0A40     		ands	r2, r1
 1584 0088 E021     		movs	r1, #224
 1585 008a 0903     		lsls	r1, r1, #12
 1586 008c 0A43     		orrs	r2, r1
 1587 008e 1A60     		str	r2, [r3]
1011:Generated_Source\PSoC4/I2COLED_I2C_MASTER.c **** 
1012:Generated_Source\PSoC4/I2COLED_I2C_MASTER.c ****     /* Revert SCL DR register */
1013:Generated_Source\PSoC4/I2COLED_I2C_MASTER.c ****     I2COLED_SET_I2C_SCL_DR(I2COLED_I2C_SCL_HIGH);
 1588              		.loc 1 1013 0
 1589 0090 0120     		movs	r0, #1
 1590 0092 FFF7FEFF 		bl	I2COLED_scl_Write
1014:Generated_Source\PSoC4/I2COLED_I2C_MASTER.c **** #else
1015:Generated_Source\PSoC4/I2COLED_I2C_MASTER.c ****     uint32 cmd;
1016:Generated_Source\PSoC4/I2COLED_I2C_MASTER.c **** 
1017:Generated_Source\PSoC4/I2COLED_I2C_MASTER.c ****     /* Generates ReStart use scb IP functionality */
1018:Generated_Source\PSoC4/I2COLED_I2C_MASTER.c ****     cmd  = I2COLED_I2C_MASTER_CMD_M_START;
1019:Generated_Source\PSoC4/I2COLED_I2C_MASTER.c ****     cmd |= I2COLED_CHECK_I2C_STATUS(I2COLED_I2C_STATUS_M_READ) ?
1020:Generated_Source\PSoC4/I2COLED_I2C_MASTER.c ****                 (I2COLED_I2C_MASTER_CMD_M_NACK) : (0u);
1021:Generated_Source\PSoC4/I2COLED_I2C_MASTER.c **** 
1022:Generated_Source\PSoC4/I2COLED_I2C_MASTER.c ****     I2COLED_I2C_MASTER_CMD_REG = cmd;
1023:Generated_Source\PSoC4/I2COLED_I2C_MASTER.c **** #endif /* (I2COLED_CY_SCBIP_V1) */
1024:Generated_Source\PSoC4/I2COLED_I2C_MASTER.c **** }
 1591              		.loc 1 1024 0
 1592 0096 C046     		nop
 1593 0098 BD46     		mov	sp, r7
 1594 009a 02B0     		add	sp, sp, #8
 1595              		@ sp needed
 1596 009c 80BD     		pop	{r7, pc}
 1597              	.L109:
ARM GAS  C:\Users\jdrd3\AppData\Local\Temp\cch5OljY.s 			page 47


 1598 009e C046     		.align	2
 1599              	.L108:
 1600 00a0 64000740 		.word	1074200676
 1601 00a4 00000140 		.word	1073807360
 1602 00a8 FFFFF0FF 		.word	-983041
 1603 00ac 00000740 		.word	1074200576
 1604 00b0 68000740 		.word	1074200680
 1605              		.cfi_endproc
 1606              	.LFE13:
 1607              		.size	I2COLED_I2CReStartGeneration, .-I2COLED_I2CReStartGeneration
 1608              		.text
 1609              	.Letext0:
 1610              		.file 2 "Generated_Source\\PSoC4/cytypes.h"
 1611              		.file 3 "Generated_Source\\PSoC4\\I2COLED_I2C_PVT.h"
 1612              		.section	.debug_info,"",%progbits
 1613              	.Ldebug_info0:
 1614 0000 69040000 		.4byte	0x469
 1615 0004 0400     		.2byte	0x4
 1616 0006 00000000 		.4byte	.Ldebug_abbrev0
 1617 000a 04       		.byte	0x4
 1618 000b 01       		.uleb128 0x1
 1619 000c F1010000 		.4byte	.LASF51
 1620 0010 0C       		.byte	0xc
 1621 0011 F6000000 		.4byte	.LASF52
 1622 0015 12030000 		.4byte	.LASF53
 1623 0019 00000000 		.4byte	.Ldebug_ranges0+0
 1624 001d 00000000 		.4byte	0
 1625 0021 00000000 		.4byte	.Ldebug_line0
 1626 0025 02       		.uleb128 0x2
 1627 0026 01       		.byte	0x1
 1628 0027 06       		.byte	0x6
 1629 0028 27040000 		.4byte	.LASF0
 1630 002c 02       		.uleb128 0x2
 1631 002d 01       		.byte	0x1
 1632 002e 08       		.byte	0x8
 1633 002f 7D010000 		.4byte	.LASF1
 1634 0033 02       		.uleb128 0x2
 1635 0034 02       		.byte	0x2
 1636 0035 05       		.byte	0x5
 1637 0036 82030000 		.4byte	.LASF2
 1638 003a 02       		.uleb128 0x2
 1639 003b 02       		.byte	0x2
 1640 003c 07       		.byte	0x7
 1641 003d 60000000 		.4byte	.LASF3
 1642 0041 02       		.uleb128 0x2
 1643 0042 04       		.byte	0x4
 1644 0043 05       		.byte	0x5
 1645 0044 F5030000 		.4byte	.LASF4
 1646 0048 02       		.uleb128 0x2
 1647 0049 04       		.byte	0x4
 1648 004a 07       		.byte	0x7
 1649 004b 38010000 		.4byte	.LASF5
 1650 004f 02       		.uleb128 0x2
 1651 0050 08       		.byte	0x8
 1652 0051 05       		.byte	0x5
 1653 0052 04030000 		.4byte	.LASF6
 1654 0056 02       		.uleb128 0x2
ARM GAS  C:\Users\jdrd3\AppData\Local\Temp\cch5OljY.s 			page 48


 1655 0057 08       		.byte	0x8
 1656 0058 07       		.byte	0x7
 1657 0059 7F020000 		.4byte	.LASF7
 1658 005d 03       		.uleb128 0x3
 1659 005e 04       		.byte	0x4
 1660 005f 05       		.byte	0x5
 1661 0060 696E7400 		.ascii	"int\000"
 1662 0064 02       		.uleb128 0x2
 1663 0065 04       		.byte	0x4
 1664 0066 07       		.byte	0x7
 1665 0067 E4010000 		.4byte	.LASF8
 1666 006b 04       		.uleb128 0x4
 1667 006c 4A010000 		.4byte	.LASF9
 1668 0070 02       		.byte	0x2
 1669 0071 A1       		.byte	0xa1
 1670 0072 2C000000 		.4byte	0x2c
 1671 0076 04       		.uleb128 0x4
 1672 0077 A0010000 		.4byte	.LASF10
 1673 007b 02       		.byte	0x2
 1674 007c A2       		.byte	0xa2
 1675 007d 3A000000 		.4byte	0x3a
 1676 0081 04       		.uleb128 0x4
 1677 0082 AE010000 		.4byte	.LASF11
 1678 0086 02       		.byte	0x2
 1679 0087 A3       		.byte	0xa3
 1680 0088 48000000 		.4byte	0x48
 1681 008c 02       		.uleb128 0x2
 1682 008d 04       		.byte	0x4
 1683 008e 04       		.byte	0x4
 1684 008f B9000000 		.4byte	.LASF12
 1685 0093 02       		.uleb128 0x2
 1686 0094 08       		.byte	0x8
 1687 0095 04       		.byte	0x4
 1688 0096 8B010000 		.4byte	.LASF13
 1689 009a 02       		.uleb128 0x2
 1690 009b 01       		.byte	0x1
 1691 009c 08       		.byte	0x8
 1692 009d 50030000 		.4byte	.LASF14
 1693 00a1 05       		.uleb128 0x5
 1694 00a2 6B000000 		.4byte	0x6b
 1695 00a6 05       		.uleb128 0x5
 1696 00a7 76000000 		.4byte	0x76
 1697 00ab 06       		.uleb128 0x6
 1698 00ac 00000000 		.4byte	.LASF15
 1699 00b0 02       		.byte	0x2
 1700 00b1 4D01     		.2byte	0x14d
 1701 00b3 B7000000 		.4byte	0xb7
 1702 00b7 05       		.uleb128 0x5
 1703 00b8 81000000 		.4byte	0x81
 1704 00bc 02       		.uleb128 0x2
 1705 00bd 08       		.byte	0x8
 1706 00be 04       		.byte	0x4
 1707 00bf 1B040000 		.4byte	.LASF16
 1708 00c3 02       		.uleb128 0x2
 1709 00c4 04       		.byte	0x4
 1710 00c5 07       		.byte	0x7
 1711 00c6 DC020000 		.4byte	.LASF17
ARM GAS  C:\Users\jdrd3\AppData\Local\Temp\cch5OljY.s 			page 49


 1712 00ca 07       		.uleb128 0x7
 1713 00cb B5010000 		.4byte	.LASF21
 1714 00cf 01       		.byte	0x1
 1715 00d0 50       		.byte	0x50
 1716 00d1 81000000 		.4byte	0x81
 1717 00d5 00000000 		.4byte	.LFB0
 1718 00d9 1C010000 		.4byte	.LFE0-.LFB0
 1719 00dd 01       		.uleb128 0x1
 1720 00de 9C       		.byte	0x9c
 1721 00df 2A010000 		.4byte	0x12a
 1722 00e3 08       		.uleb128 0x8
 1723 00e4 CF020000 		.4byte	.LASF18
 1724 00e8 01       		.byte	0x1
 1725 00e9 50       		.byte	0x50
 1726 00ea 81000000 		.4byte	0x81
 1727 00ee 02       		.uleb128 0x2
 1728 00ef 91       		.byte	0x91
 1729 00f0 6C       		.sleb128 -20
 1730 00f1 08       		.uleb128 0x8
 1731 00f2 92010000 		.4byte	.LASF19
 1732 00f6 01       		.byte	0x1
 1733 00f7 50       		.byte	0x50
 1734 00f8 2A010000 		.4byte	0x12a
 1735 00fc 02       		.uleb128 0x2
 1736 00fd 91       		.byte	0x91
 1737 00fe 68       		.sleb128 -24
 1738 00ff 09       		.uleb128 0x9
 1739 0100 636E7400 		.ascii	"cnt\000"
 1740 0104 01       		.byte	0x1
 1741 0105 50       		.byte	0x50
 1742 0106 81000000 		.4byte	0x81
 1743 010a 02       		.uleb128 0x2
 1744 010b 91       		.byte	0x91
 1745 010c 64       		.sleb128 -28
 1746 010d 08       		.uleb128 0x8
 1747 010e CA020000 		.4byte	.LASF20
 1748 0112 01       		.byte	0x1
 1749 0113 50       		.byte	0x50
 1750 0114 81000000 		.4byte	0x81
 1751 0118 02       		.uleb128 0x2
 1752 0119 91       		.byte	0x91
 1753 011a 60       		.sleb128 -32
 1754 011b 0A       		.uleb128 0xa
 1755 011c 73010000 		.4byte	.LASF24
 1756 0120 01       		.byte	0x1
 1757 0121 52       		.byte	0x52
 1758 0122 81000000 		.4byte	0x81
 1759 0126 02       		.uleb128 0x2
 1760 0127 91       		.byte	0x91
 1761 0128 74       		.sleb128 -12
 1762 0129 00       		.byte	0
 1763 012a 0B       		.uleb128 0xb
 1764 012b 04       		.byte	0x4
 1765 012c 6B000000 		.4byte	0x6b
 1766 0130 07       		.uleb128 0x7
 1767 0131 91000000 		.4byte	.LASF22
 1768 0135 01       		.byte	0x1
ARM GAS  C:\Users\jdrd3\AppData\Local\Temp\cch5OljY.s 			page 50


 1769 0136 BA       		.byte	0xba
 1770 0137 81000000 		.4byte	0x81
 1771 013b 00000000 		.4byte	.LFB1
 1772 013f 2C010000 		.4byte	.LFE1-.LFB1
 1773 0143 01       		.uleb128 0x1
 1774 0144 9C       		.byte	0x9c
 1775 0145 90010000 		.4byte	0x190
 1776 0149 08       		.uleb128 0x8
 1777 014a CF020000 		.4byte	.LASF18
 1778 014e 01       		.byte	0x1
 1779 014f BA       		.byte	0xba
 1780 0150 81000000 		.4byte	0x81
 1781 0154 02       		.uleb128 0x2
 1782 0155 91       		.byte	0x91
 1783 0156 6C       		.sleb128 -20
 1784 0157 08       		.uleb128 0x8
 1785 0158 A7010000 		.4byte	.LASF23
 1786 015c 01       		.byte	0x1
 1787 015d BA       		.byte	0xba
 1788 015e 2A010000 		.4byte	0x12a
 1789 0162 02       		.uleb128 0x2
 1790 0163 91       		.byte	0x91
 1791 0164 68       		.sleb128 -24
 1792 0165 09       		.uleb128 0x9
 1793 0166 636E7400 		.ascii	"cnt\000"
 1794 016a 01       		.byte	0x1
 1795 016b BA       		.byte	0xba
 1796 016c 81000000 		.4byte	0x81
 1797 0170 02       		.uleb128 0x2
 1798 0171 91       		.byte	0x91
 1799 0172 64       		.sleb128 -28
 1800 0173 08       		.uleb128 0x8
 1801 0174 CA020000 		.4byte	.LASF20
 1802 0178 01       		.byte	0x1
 1803 0179 BA       		.byte	0xba
 1804 017a 81000000 		.4byte	0x81
 1805 017e 02       		.uleb128 0x2
 1806 017f 91       		.byte	0x91
 1807 0180 60       		.sleb128 -32
 1808 0181 0A       		.uleb128 0xa
 1809 0182 73010000 		.4byte	.LASF24
 1810 0186 01       		.byte	0x1
 1811 0187 BC       		.byte	0xbc
 1812 0188 81000000 		.4byte	0x81
 1813 018c 02       		.uleb128 0x2
 1814 018d 91       		.byte	0x91
 1815 018e 74       		.sleb128 -12
 1816 018f 00       		.byte	0
 1817 0190 0C       		.uleb128 0xc
 1818 0191 58010000 		.4byte	.LASF25
 1819 0195 01       		.byte	0x1
 1820 0196 2101     		.2byte	0x121
 1821 0198 81000000 		.4byte	0x81
 1822 019c 00000000 		.4byte	.LFB2
 1823 01a0 10010000 		.4byte	.LFE2-.LFB2
 1824 01a4 01       		.uleb128 0x1
 1825 01a5 9C       		.byte	0x9c
ARM GAS  C:\Users\jdrd3\AppData\Local\Temp\cch5OljY.s 			page 51


 1826 01a6 E7010000 		.4byte	0x1e7
 1827 01aa 0D       		.uleb128 0xd
 1828 01ab CF020000 		.4byte	.LASF18
 1829 01af 01       		.byte	0x1
 1830 01b0 2101     		.2byte	0x121
 1831 01b2 81000000 		.4byte	0x81
 1832 01b6 02       		.uleb128 0x2
 1833 01b7 91       		.byte	0x91
 1834 01b8 6C       		.sleb128 -20
 1835 01b9 0D       		.uleb128 0xd
 1836 01ba 99010000 		.4byte	.LASF26
 1837 01be 01       		.byte	0x1
 1838 01bf 2101     		.2byte	0x121
 1839 01c1 81000000 		.4byte	0x81
 1840 01c5 02       		.uleb128 0x2
 1841 01c6 91       		.byte	0x91
 1842 01c7 68       		.sleb128 -24
 1843 01c8 0E       		.uleb128 0xe
 1844 01c9 B1000000 		.4byte	.LASF27
 1845 01cd 01       		.byte	0x1
 1846 01ce 2301     		.2byte	0x123
 1847 01d0 81000000 		.4byte	0x81
 1848 01d4 02       		.uleb128 0x2
 1849 01d5 91       		.byte	0x91
 1850 01d6 74       		.sleb128 -12
 1851 01d7 0E       		.uleb128 0xe
 1852 01d8 73010000 		.4byte	.LASF24
 1853 01dc 01       		.byte	0x1
 1854 01dd 2401     		.2byte	0x124
 1855 01df 81000000 		.4byte	0x81
 1856 01e3 02       		.uleb128 0x2
 1857 01e4 91       		.byte	0x91
 1858 01e5 70       		.sleb128 -16
 1859 01e6 00       		.byte	0
 1860 01e7 0C       		.uleb128 0xc
 1861 01e8 D9000000 		.4byte	.LASF28
 1862 01ec 01       		.byte	0x1
 1863 01ed 9601     		.2byte	0x196
 1864 01ef 81000000 		.4byte	0x81
 1865 01f3 00000000 		.4byte	.LFB3
 1866 01f7 08010000 		.4byte	.LFE3-.LFB3
 1867 01fb 01       		.uleb128 0x1
 1868 01fc 9C       		.byte	0x9c
 1869 01fd 3E020000 		.4byte	0x23e
 1870 0201 0D       		.uleb128 0xd
 1871 0202 CF020000 		.4byte	.LASF18
 1872 0206 01       		.byte	0x1
 1873 0207 9601     		.2byte	0x196
 1874 0209 81000000 		.4byte	0x81
 1875 020d 02       		.uleb128 0x2
 1876 020e 91       		.byte	0x91
 1877 020f 6C       		.sleb128 -20
 1878 0210 0D       		.uleb128 0xd
 1879 0211 99010000 		.4byte	.LASF26
 1880 0215 01       		.byte	0x1
 1881 0216 9601     		.2byte	0x196
 1882 0218 81000000 		.4byte	0x81
ARM GAS  C:\Users\jdrd3\AppData\Local\Temp\cch5OljY.s 			page 52


 1883 021c 02       		.uleb128 0x2
 1884 021d 91       		.byte	0x91
 1885 021e 68       		.sleb128 -24
 1886 021f 0E       		.uleb128 0xe
 1887 0220 B1000000 		.4byte	.LASF27
 1888 0224 01       		.byte	0x1
 1889 0225 9801     		.2byte	0x198
 1890 0227 81000000 		.4byte	0x81
 1891 022b 02       		.uleb128 0x2
 1892 022c 91       		.byte	0x91
 1893 022d 74       		.sleb128 -12
 1894 022e 0E       		.uleb128 0xe
 1895 022f 73010000 		.4byte	.LASF24
 1896 0233 01       		.byte	0x1
 1897 0234 9901     		.2byte	0x199
 1898 0236 81000000 		.4byte	0x81
 1899 023a 02       		.uleb128 0x2
 1900 023b 91       		.byte	0x91
 1901 023c 70       		.sleb128 -16
 1902 023d 00       		.byte	0
 1903 023e 0F       		.uleb128 0xf
 1904 023f BF000000 		.4byte	.LASF29
 1905 0243 01       		.byte	0x1
 1906 0244 0A02     		.2byte	0x20a
 1907 0246 81000000 		.4byte	0x81
 1908 024a 00000000 		.4byte	.LFB4
 1909 024e BC000000 		.4byte	.LFE4-.LFB4
 1910 0252 01       		.uleb128 0x1
 1911 0253 9C       		.byte	0x9c
 1912 0254 77020000 		.4byte	0x277
 1913 0258 0E       		.uleb128 0xe
 1914 0259 B1000000 		.4byte	.LASF27
 1915 025d 01       		.byte	0x1
 1916 025e 0C02     		.2byte	0x20c
 1917 0260 81000000 		.4byte	0x81
 1918 0264 02       		.uleb128 0x2
 1919 0265 91       		.byte	0x91
 1920 0266 74       		.sleb128 -12
 1921 0267 0E       		.uleb128 0xe
 1922 0268 73010000 		.4byte	.LASF24
 1923 026c 01       		.byte	0x1
 1924 026d 0D02     		.2byte	0x20d
 1925 026f 81000000 		.4byte	0x81
 1926 0273 02       		.uleb128 0x2
 1927 0274 91       		.byte	0x91
 1928 0275 70       		.sleb128 -16
 1929 0276 00       		.byte	0
 1930 0277 0F       		.uleb128 0xf
 1931 0278 06000000 		.4byte	.LASF30
 1932 027c 01       		.byte	0x1
 1933 027d 5B02     		.2byte	0x25b
 1934 027f 81000000 		.4byte	0x81
 1935 0283 00000000 		.4byte	.LFB5
 1936 0287 CC000000 		.4byte	.LFE5-.LFB5
 1937 028b 01       		.uleb128 0x1
 1938 028c 9C       		.byte	0x9c
 1939 028d BF020000 		.4byte	0x2bf
ARM GAS  C:\Users\jdrd3\AppData\Local\Temp\cch5OljY.s 			page 53


 1940 0291 0D       		.uleb128 0xd
 1941 0292 8C030000 		.4byte	.LASF31
 1942 0296 01       		.byte	0x1
 1943 0297 5B02     		.2byte	0x25b
 1944 0299 81000000 		.4byte	0x81
 1945 029d 02       		.uleb128 0x2
 1946 029e 91       		.byte	0x91
 1947 029f 6C       		.sleb128 -20
 1948 02a0 0E       		.uleb128 0xe
 1949 02a1 B1000000 		.4byte	.LASF27
 1950 02a5 01       		.byte	0x1
 1951 02a6 5D02     		.2byte	0x25d
 1952 02a8 81000000 		.4byte	0x81
 1953 02ac 02       		.uleb128 0x2
 1954 02ad 91       		.byte	0x91
 1955 02ae 74       		.sleb128 -12
 1956 02af 0E       		.uleb128 0xe
 1957 02b0 73010000 		.4byte	.LASF24
 1958 02b4 01       		.byte	0x1
 1959 02b5 5E02     		.2byte	0x25e
 1960 02b7 81000000 		.4byte	0x81
 1961 02bb 02       		.uleb128 0x2
 1962 02bc 91       		.byte	0x91
 1963 02bd 70       		.sleb128 -16
 1964 02be 00       		.byte	0
 1965 02bf 0F       		.uleb128 0xf
 1966 02c0 94030000 		.4byte	.LASF32
 1967 02c4 01       		.byte	0x1
 1968 02c5 B402     		.2byte	0x2b4
 1969 02c7 81000000 		.4byte	0x81
 1970 02cb 00000000 		.4byte	.LFB6
 1971 02cf A8000000 		.4byte	.LFE6-.LFB6
 1972 02d3 01       		.uleb128 0x1
 1973 02d4 9C       		.byte	0x9c
 1974 02d5 F8020000 		.4byte	0x2f8
 1975 02d9 0D       		.uleb128 0xd
 1976 02da 50010000 		.4byte	.LASF33
 1977 02de 01       		.byte	0x1
 1978 02df B402     		.2byte	0x2b4
 1979 02e1 81000000 		.4byte	0x81
 1980 02e5 02       		.uleb128 0x2
 1981 02e6 91       		.byte	0x91
 1982 02e7 6C       		.sleb128 -20
 1983 02e8 0E       		.uleb128 0xe
 1984 02e9 8C030000 		.4byte	.LASF31
 1985 02ed 01       		.byte	0x1
 1986 02ee B602     		.2byte	0x2b6
 1987 02f0 81000000 		.4byte	0x81
 1988 02f4 02       		.uleb128 0x2
 1989 02f5 91       		.byte	0x91
 1990 02f6 74       		.sleb128 -12
 1991 02f7 00       		.byte	0
 1992 02f8 10       		.uleb128 0x10
 1993 02f9 AA020000 		.4byte	.LASF34
 1994 02fd 01       		.byte	0x1
 1995 02fe FB02     		.2byte	0x2fb
 1996 0300 81000000 		.4byte	0x81
ARM GAS  C:\Users\jdrd3\AppData\Local\Temp\cch5OljY.s 			page 54


 1997 0304 00000000 		.4byte	.LFB7
 1998 0308 14000000 		.4byte	.LFE7-.LFB7
 1999 030c 01       		.uleb128 0x1
 2000 030d 9C       		.byte	0x9c
 2001 030e 10       		.uleb128 0x10
 2002 030f 33040000 		.4byte	.LASF35
 2003 0313 01       		.byte	0x1
 2004 0314 1903     		.2byte	0x319
 2005 0316 81000000 		.4byte	0x81
 2006 031a 00000000 		.4byte	.LFB8
 2007 031e 14000000 		.4byte	.LFE8-.LFB8
 2008 0322 01       		.uleb128 0x1
 2009 0323 9C       		.byte	0x9c
 2010 0324 11       		.uleb128 0x11
 2011 0325 73000000 		.4byte	.LASF36
 2012 0329 01       		.byte	0x1
 2013 032a 3203     		.2byte	0x332
 2014 032c 00000000 		.4byte	.LFB9
 2015 0330 34000000 		.4byte	.LFE9-.LFB9
 2016 0334 01       		.uleb128 0x1
 2017 0335 9C       		.byte	0x9c
 2018 0336 11       		.uleb128 0x11
 2019 0337 E5020000 		.4byte	.LASF37
 2020 033b 01       		.byte	0x1
 2021 033c 5003     		.2byte	0x350
 2022 033e 00000000 		.4byte	.LFB10
 2023 0342 34000000 		.4byte	.LFE10-.LFB10
 2024 0346 01       		.uleb128 0x1
 2025 0347 9C       		.byte	0x9c
 2026 0348 0C       		.uleb128 0xc
 2027 0349 6A030000 		.4byte	.LASF38
 2028 034d 01       		.byte	0x1
 2029 034e 6C03     		.2byte	0x36c
 2030 0350 81000000 		.4byte	0x81
 2031 0354 00000000 		.4byte	.LFB11
 2032 0358 44000000 		.4byte	.LFE11-.LFB11
 2033 035c 01       		.uleb128 0x1
 2034 035d 9C       		.byte	0x9c
 2035 035e 72030000 		.4byte	0x372
 2036 0362 0E       		.uleb128 0xe
 2037 0363 AA000000 		.4byte	.LASF39
 2038 0367 01       		.byte	0x1
 2039 0368 6E03     		.2byte	0x36e
 2040 036a 81000000 		.4byte	0x81
 2041 036e 02       		.uleb128 0x2
 2042 036f 91       		.byte	0x91
 2043 0370 74       		.sleb128 -12
 2044 0371 00       		.byte	0
 2045 0372 0C       		.uleb128 0xc
 2046 0373 FE030000 		.4byte	.LASF40
 2047 0377 01       		.byte	0x1
 2048 0378 9103     		.2byte	0x391
 2049 037a 81000000 		.4byte	0x81
 2050 037e 00000000 		.4byte	.LFB12
 2051 0382 30000000 		.4byte	.LFE12-.LFB12
 2052 0386 01       		.uleb128 0x1
 2053 0387 9C       		.byte	0x9c
ARM GAS  C:\Users\jdrd3\AppData\Local\Temp\cch5OljY.s 			page 55


 2054 0388 9C030000 		.4byte	0x39c
 2055 038c 0E       		.uleb128 0xe
 2056 038d AA000000 		.4byte	.LASF39
 2057 0391 01       		.byte	0x1
 2058 0392 9303     		.2byte	0x393
 2059 0394 81000000 		.4byte	0x81
 2060 0398 02       		.uleb128 0x2
 2061 0399 91       		.byte	0x91
 2062 039a 74       		.sleb128 -12
 2063 039b 00       		.byte	0
 2064 039c 12       		.uleb128 0x12
 2065 039d C5030000 		.4byte	.LASF54
 2066 03a1 01       		.byte	0x1
 2067 03a2 C403     		.2byte	0x3c4
 2068 03a4 00000000 		.4byte	.LFB13
 2069 03a8 B4000000 		.4byte	.LFE13-.LFB13
 2070 03ac 01       		.uleb128 0x1
 2071 03ad 9C       		.byte	0x9c
 2072 03ae C2030000 		.4byte	0x3c2
 2073 03b2 0E       		.uleb128 0xe
 2074 03b3 AA000000 		.4byte	.LASF39
 2075 03b7 01       		.byte	0x1
 2076 03b8 C903     		.2byte	0x3c9
 2077 03ba 81000000 		.4byte	0x81
 2078 03be 02       		.uleb128 0x2
 2079 03bf 91       		.byte	0x91
 2080 03c0 74       		.sleb128 -12
 2081 03c1 00       		.byte	0
 2082 03c2 13       		.uleb128 0x13
 2083 03c3 52000000 		.4byte	.LASF41
 2084 03c7 03       		.byte	0x3
 2085 03c8 1D       		.byte	0x1d
 2086 03c9 A1000000 		.4byte	0xa1
 2087 03cd 14       		.uleb128 0x14
 2088 03ce E2030000 		.4byte	.LASF42
 2089 03d2 01       		.byte	0x1
 2090 03d3 1C       		.byte	0x1c
 2091 03d4 A6000000 		.4byte	0xa6
 2092 03d8 05       		.uleb128 0x5
 2093 03d9 03       		.byte	0x3
 2094 03da 00000000 		.4byte	I2COLED_mstrStatus
 2095 03de 14       		.uleb128 0x14
 2096 03df 96020000 		.4byte	.LASF43
 2097 03e3 01       		.byte	0x1
 2098 03e4 1D       		.byte	0x1d
 2099 03e5 A1000000 		.4byte	0xa1
 2100 03e9 05       		.uleb128 0x5
 2101 03ea 03       		.byte	0x3
 2102 03eb 00000000 		.4byte	I2COLED_mstrControl
 2103 03ef 14       		.uleb128 0x14
 2104 03f0 CF010000 		.4byte	.LASF44
 2105 03f4 01       		.byte	0x1
 2106 03f5 20       		.byte	0x20
 2107 03f6 00040000 		.4byte	0x400
 2108 03fa 05       		.uleb128 0x5
 2109 03fb 03       		.byte	0x3
 2110 03fc 00000000 		.4byte	I2COLED_mstrRdBufPtr
ARM GAS  C:\Users\jdrd3\AppData\Local\Temp\cch5OljY.s 			page 56


 2111 0400 0B       		.uleb128 0xb
 2112 0401 04       		.byte	0x4
 2113 0402 A1000000 		.4byte	0xa1
 2114 0406 14       		.uleb128 0x14
 2115 0407 22010000 		.4byte	.LASF45
 2116 040b 01       		.byte	0x1
 2117 040c 21       		.byte	0x21
 2118 040d B7000000 		.4byte	0xb7
 2119 0411 05       		.uleb128 0x5
 2120 0412 03       		.byte	0x3
 2121 0413 00000000 		.4byte	I2COLED_mstrRdBufSize
 2122 0417 14       		.uleb128 0x14
 2123 0418 AE030000 		.4byte	.LASF46
 2124 041c 01       		.byte	0x1
 2125 041d 22       		.byte	0x22
 2126 041e B7000000 		.4byte	0xb7
 2127 0422 05       		.uleb128 0x5
 2128 0423 03       		.byte	0x3
 2129 0424 00000000 		.4byte	I2COLED_mstrRdBufIndex
 2130 0428 14       		.uleb128 0x14
 2131 0429 55030000 		.4byte	.LASF47
 2132 042d 01       		.byte	0x1
 2133 042e 25       		.byte	0x25
 2134 042f 00040000 		.4byte	0x400
 2135 0433 05       		.uleb128 0x5
 2136 0434 03       		.byte	0x3
 2137 0435 00000000 		.4byte	I2COLED_mstrWrBufPtr
 2138 0439 14       		.uleb128 0x14
 2139 043a 54040000 		.4byte	.LASF48
 2140 043e 01       		.byte	0x1
 2141 043f 26       		.byte	0x26
 2142 0440 B7000000 		.4byte	0xb7
 2143 0444 05       		.uleb128 0x5
 2144 0445 03       		.byte	0x3
 2145 0446 00000000 		.4byte	I2COLED_mstrWrBufSize
 2146 044a 14       		.uleb128 0x14
 2147 044b 3B000000 		.4byte	.LASF49
 2148 044f 01       		.byte	0x1
 2149 0450 27       		.byte	0x27
 2150 0451 B7000000 		.4byte	0xb7
 2151 0455 05       		.uleb128 0x5
 2152 0456 03       		.byte	0x3
 2153 0457 00000000 		.4byte	I2COLED_mstrWrBufIndex
 2154 045b 14       		.uleb128 0x14
 2155 045c 21000000 		.4byte	.LASF50
 2156 0460 01       		.byte	0x1
 2157 0461 28       		.byte	0x28
 2158 0462 B7000000 		.4byte	0xb7
 2159 0466 05       		.uleb128 0x5
 2160 0467 03       		.byte	0x3
 2161 0468 00000000 		.4byte	I2COLED_mstrWrBufIndexTmp
 2162 046c 00       		.byte	0
 2163              		.section	.debug_abbrev,"",%progbits
 2164              	.Ldebug_abbrev0:
 2165 0000 01       		.uleb128 0x1
 2166 0001 11       		.uleb128 0x11
 2167 0002 01       		.byte	0x1
ARM GAS  C:\Users\jdrd3\AppData\Local\Temp\cch5OljY.s 			page 57


 2168 0003 25       		.uleb128 0x25
 2169 0004 0E       		.uleb128 0xe
 2170 0005 13       		.uleb128 0x13
 2171 0006 0B       		.uleb128 0xb
 2172 0007 03       		.uleb128 0x3
 2173 0008 0E       		.uleb128 0xe
 2174 0009 1B       		.uleb128 0x1b
 2175 000a 0E       		.uleb128 0xe
 2176 000b 55       		.uleb128 0x55
 2177 000c 17       		.uleb128 0x17
 2178 000d 11       		.uleb128 0x11
 2179 000e 01       		.uleb128 0x1
 2180 000f 10       		.uleb128 0x10
 2181 0010 17       		.uleb128 0x17
 2182 0011 00       		.byte	0
 2183 0012 00       		.byte	0
 2184 0013 02       		.uleb128 0x2
 2185 0014 24       		.uleb128 0x24
 2186 0015 00       		.byte	0
 2187 0016 0B       		.uleb128 0xb
 2188 0017 0B       		.uleb128 0xb
 2189 0018 3E       		.uleb128 0x3e
 2190 0019 0B       		.uleb128 0xb
 2191 001a 03       		.uleb128 0x3
 2192 001b 0E       		.uleb128 0xe
 2193 001c 00       		.byte	0
 2194 001d 00       		.byte	0
 2195 001e 03       		.uleb128 0x3
 2196 001f 24       		.uleb128 0x24
 2197 0020 00       		.byte	0
 2198 0021 0B       		.uleb128 0xb
 2199 0022 0B       		.uleb128 0xb
 2200 0023 3E       		.uleb128 0x3e
 2201 0024 0B       		.uleb128 0xb
 2202 0025 03       		.uleb128 0x3
 2203 0026 08       		.uleb128 0x8
 2204 0027 00       		.byte	0
 2205 0028 00       		.byte	0
 2206 0029 04       		.uleb128 0x4
 2207 002a 16       		.uleb128 0x16
 2208 002b 00       		.byte	0
 2209 002c 03       		.uleb128 0x3
 2210 002d 0E       		.uleb128 0xe
 2211 002e 3A       		.uleb128 0x3a
 2212 002f 0B       		.uleb128 0xb
 2213 0030 3B       		.uleb128 0x3b
 2214 0031 0B       		.uleb128 0xb
 2215 0032 49       		.uleb128 0x49
 2216 0033 13       		.uleb128 0x13
 2217 0034 00       		.byte	0
 2218 0035 00       		.byte	0
 2219 0036 05       		.uleb128 0x5
 2220 0037 35       		.uleb128 0x35
 2221 0038 00       		.byte	0
 2222 0039 49       		.uleb128 0x49
 2223 003a 13       		.uleb128 0x13
 2224 003b 00       		.byte	0
ARM GAS  C:\Users\jdrd3\AppData\Local\Temp\cch5OljY.s 			page 58


 2225 003c 00       		.byte	0
 2226 003d 06       		.uleb128 0x6
 2227 003e 16       		.uleb128 0x16
 2228 003f 00       		.byte	0
 2229 0040 03       		.uleb128 0x3
 2230 0041 0E       		.uleb128 0xe
 2231 0042 3A       		.uleb128 0x3a
 2232 0043 0B       		.uleb128 0xb
 2233 0044 3B       		.uleb128 0x3b
 2234 0045 05       		.uleb128 0x5
 2235 0046 49       		.uleb128 0x49
 2236 0047 13       		.uleb128 0x13
 2237 0048 00       		.byte	0
 2238 0049 00       		.byte	0
 2239 004a 07       		.uleb128 0x7
 2240 004b 2E       		.uleb128 0x2e
 2241 004c 01       		.byte	0x1
 2242 004d 3F       		.uleb128 0x3f
 2243 004e 19       		.uleb128 0x19
 2244 004f 03       		.uleb128 0x3
 2245 0050 0E       		.uleb128 0xe
 2246 0051 3A       		.uleb128 0x3a
 2247 0052 0B       		.uleb128 0xb
 2248 0053 3B       		.uleb128 0x3b
 2249 0054 0B       		.uleb128 0xb
 2250 0055 27       		.uleb128 0x27
 2251 0056 19       		.uleb128 0x19
 2252 0057 49       		.uleb128 0x49
 2253 0058 13       		.uleb128 0x13
 2254 0059 11       		.uleb128 0x11
 2255 005a 01       		.uleb128 0x1
 2256 005b 12       		.uleb128 0x12
 2257 005c 06       		.uleb128 0x6
 2258 005d 40       		.uleb128 0x40
 2259 005e 18       		.uleb128 0x18
 2260 005f 9642     		.uleb128 0x2116
 2261 0061 19       		.uleb128 0x19
 2262 0062 01       		.uleb128 0x1
 2263 0063 13       		.uleb128 0x13
 2264 0064 00       		.byte	0
 2265 0065 00       		.byte	0
 2266 0066 08       		.uleb128 0x8
 2267 0067 05       		.uleb128 0x5
 2268 0068 00       		.byte	0
 2269 0069 03       		.uleb128 0x3
 2270 006a 0E       		.uleb128 0xe
 2271 006b 3A       		.uleb128 0x3a
 2272 006c 0B       		.uleb128 0xb
 2273 006d 3B       		.uleb128 0x3b
 2274 006e 0B       		.uleb128 0xb
 2275 006f 49       		.uleb128 0x49
 2276 0070 13       		.uleb128 0x13
 2277 0071 02       		.uleb128 0x2
 2278 0072 18       		.uleb128 0x18
 2279 0073 00       		.byte	0
 2280 0074 00       		.byte	0
 2281 0075 09       		.uleb128 0x9
ARM GAS  C:\Users\jdrd3\AppData\Local\Temp\cch5OljY.s 			page 59


 2282 0076 05       		.uleb128 0x5
 2283 0077 00       		.byte	0
 2284 0078 03       		.uleb128 0x3
 2285 0079 08       		.uleb128 0x8
 2286 007a 3A       		.uleb128 0x3a
 2287 007b 0B       		.uleb128 0xb
 2288 007c 3B       		.uleb128 0x3b
 2289 007d 0B       		.uleb128 0xb
 2290 007e 49       		.uleb128 0x49
 2291 007f 13       		.uleb128 0x13
 2292 0080 02       		.uleb128 0x2
 2293 0081 18       		.uleb128 0x18
 2294 0082 00       		.byte	0
 2295 0083 00       		.byte	0
 2296 0084 0A       		.uleb128 0xa
 2297 0085 34       		.uleb128 0x34
 2298 0086 00       		.byte	0
 2299 0087 03       		.uleb128 0x3
 2300 0088 0E       		.uleb128 0xe
 2301 0089 3A       		.uleb128 0x3a
 2302 008a 0B       		.uleb128 0xb
 2303 008b 3B       		.uleb128 0x3b
 2304 008c 0B       		.uleb128 0xb
 2305 008d 49       		.uleb128 0x49
 2306 008e 13       		.uleb128 0x13
 2307 008f 02       		.uleb128 0x2
 2308 0090 18       		.uleb128 0x18
 2309 0091 00       		.byte	0
 2310 0092 00       		.byte	0
 2311 0093 0B       		.uleb128 0xb
 2312 0094 0F       		.uleb128 0xf
 2313 0095 00       		.byte	0
 2314 0096 0B       		.uleb128 0xb
 2315 0097 0B       		.uleb128 0xb
 2316 0098 49       		.uleb128 0x49
 2317 0099 13       		.uleb128 0x13
 2318 009a 00       		.byte	0
 2319 009b 00       		.byte	0
 2320 009c 0C       		.uleb128 0xc
 2321 009d 2E       		.uleb128 0x2e
 2322 009e 01       		.byte	0x1
 2323 009f 3F       		.uleb128 0x3f
 2324 00a0 19       		.uleb128 0x19
 2325 00a1 03       		.uleb128 0x3
 2326 00a2 0E       		.uleb128 0xe
 2327 00a3 3A       		.uleb128 0x3a
 2328 00a4 0B       		.uleb128 0xb
 2329 00a5 3B       		.uleb128 0x3b
 2330 00a6 05       		.uleb128 0x5
 2331 00a7 27       		.uleb128 0x27
 2332 00a8 19       		.uleb128 0x19
 2333 00a9 49       		.uleb128 0x49
 2334 00aa 13       		.uleb128 0x13
 2335 00ab 11       		.uleb128 0x11
 2336 00ac 01       		.uleb128 0x1
 2337 00ad 12       		.uleb128 0x12
 2338 00ae 06       		.uleb128 0x6
ARM GAS  C:\Users\jdrd3\AppData\Local\Temp\cch5OljY.s 			page 60


 2339 00af 40       		.uleb128 0x40
 2340 00b0 18       		.uleb128 0x18
 2341 00b1 9642     		.uleb128 0x2116
 2342 00b3 19       		.uleb128 0x19
 2343 00b4 01       		.uleb128 0x1
 2344 00b5 13       		.uleb128 0x13
 2345 00b6 00       		.byte	0
 2346 00b7 00       		.byte	0
 2347 00b8 0D       		.uleb128 0xd
 2348 00b9 05       		.uleb128 0x5
 2349 00ba 00       		.byte	0
 2350 00bb 03       		.uleb128 0x3
 2351 00bc 0E       		.uleb128 0xe
 2352 00bd 3A       		.uleb128 0x3a
 2353 00be 0B       		.uleb128 0xb
 2354 00bf 3B       		.uleb128 0x3b
 2355 00c0 05       		.uleb128 0x5
 2356 00c1 49       		.uleb128 0x49
 2357 00c2 13       		.uleb128 0x13
 2358 00c3 02       		.uleb128 0x2
 2359 00c4 18       		.uleb128 0x18
 2360 00c5 00       		.byte	0
 2361 00c6 00       		.byte	0
 2362 00c7 0E       		.uleb128 0xe
 2363 00c8 34       		.uleb128 0x34
 2364 00c9 00       		.byte	0
 2365 00ca 03       		.uleb128 0x3
 2366 00cb 0E       		.uleb128 0xe
 2367 00cc 3A       		.uleb128 0x3a
 2368 00cd 0B       		.uleb128 0xb
 2369 00ce 3B       		.uleb128 0x3b
 2370 00cf 05       		.uleb128 0x5
 2371 00d0 49       		.uleb128 0x49
 2372 00d1 13       		.uleb128 0x13
 2373 00d2 02       		.uleb128 0x2
 2374 00d3 18       		.uleb128 0x18
 2375 00d4 00       		.byte	0
 2376 00d5 00       		.byte	0
 2377 00d6 0F       		.uleb128 0xf
 2378 00d7 2E       		.uleb128 0x2e
 2379 00d8 01       		.byte	0x1
 2380 00d9 3F       		.uleb128 0x3f
 2381 00da 19       		.uleb128 0x19
 2382 00db 03       		.uleb128 0x3
 2383 00dc 0E       		.uleb128 0xe
 2384 00dd 3A       		.uleb128 0x3a
 2385 00de 0B       		.uleb128 0xb
 2386 00df 3B       		.uleb128 0x3b
 2387 00e0 05       		.uleb128 0x5
 2388 00e1 27       		.uleb128 0x27
 2389 00e2 19       		.uleb128 0x19
 2390 00e3 49       		.uleb128 0x49
 2391 00e4 13       		.uleb128 0x13
 2392 00e5 11       		.uleb128 0x11
 2393 00e6 01       		.uleb128 0x1
 2394 00e7 12       		.uleb128 0x12
 2395 00e8 06       		.uleb128 0x6
ARM GAS  C:\Users\jdrd3\AppData\Local\Temp\cch5OljY.s 			page 61


 2396 00e9 40       		.uleb128 0x40
 2397 00ea 18       		.uleb128 0x18
 2398 00eb 9742     		.uleb128 0x2117
 2399 00ed 19       		.uleb128 0x19
 2400 00ee 01       		.uleb128 0x1
 2401 00ef 13       		.uleb128 0x13
 2402 00f0 00       		.byte	0
 2403 00f1 00       		.byte	0
 2404 00f2 10       		.uleb128 0x10
 2405 00f3 2E       		.uleb128 0x2e
 2406 00f4 00       		.byte	0
 2407 00f5 3F       		.uleb128 0x3f
 2408 00f6 19       		.uleb128 0x19
 2409 00f7 03       		.uleb128 0x3
 2410 00f8 0E       		.uleb128 0xe
 2411 00f9 3A       		.uleb128 0x3a
 2412 00fa 0B       		.uleb128 0xb
 2413 00fb 3B       		.uleb128 0x3b
 2414 00fc 05       		.uleb128 0x5
 2415 00fd 27       		.uleb128 0x27
 2416 00fe 19       		.uleb128 0x19
 2417 00ff 49       		.uleb128 0x49
 2418 0100 13       		.uleb128 0x13
 2419 0101 11       		.uleb128 0x11
 2420 0102 01       		.uleb128 0x1
 2421 0103 12       		.uleb128 0x12
 2422 0104 06       		.uleb128 0x6
 2423 0105 40       		.uleb128 0x40
 2424 0106 18       		.uleb128 0x18
 2425 0107 9742     		.uleb128 0x2117
 2426 0109 19       		.uleb128 0x19
 2427 010a 00       		.byte	0
 2428 010b 00       		.byte	0
 2429 010c 11       		.uleb128 0x11
 2430 010d 2E       		.uleb128 0x2e
 2431 010e 00       		.byte	0
 2432 010f 3F       		.uleb128 0x3f
 2433 0110 19       		.uleb128 0x19
 2434 0111 03       		.uleb128 0x3
 2435 0112 0E       		.uleb128 0xe
 2436 0113 3A       		.uleb128 0x3a
 2437 0114 0B       		.uleb128 0xb
 2438 0115 3B       		.uleb128 0x3b
 2439 0116 05       		.uleb128 0x5
 2440 0117 27       		.uleb128 0x27
 2441 0118 19       		.uleb128 0x19
 2442 0119 11       		.uleb128 0x11
 2443 011a 01       		.uleb128 0x1
 2444 011b 12       		.uleb128 0x12
 2445 011c 06       		.uleb128 0x6
 2446 011d 40       		.uleb128 0x40
 2447 011e 18       		.uleb128 0x18
 2448 011f 9642     		.uleb128 0x2116
 2449 0121 19       		.uleb128 0x19
 2450 0122 00       		.byte	0
 2451 0123 00       		.byte	0
 2452 0124 12       		.uleb128 0x12
ARM GAS  C:\Users\jdrd3\AppData\Local\Temp\cch5OljY.s 			page 62


 2453 0125 2E       		.uleb128 0x2e
 2454 0126 01       		.byte	0x1
 2455 0127 3F       		.uleb128 0x3f
 2456 0128 19       		.uleb128 0x19
 2457 0129 03       		.uleb128 0x3
 2458 012a 0E       		.uleb128 0xe
 2459 012b 3A       		.uleb128 0x3a
 2460 012c 0B       		.uleb128 0xb
 2461 012d 3B       		.uleb128 0x3b
 2462 012e 05       		.uleb128 0x5
 2463 012f 27       		.uleb128 0x27
 2464 0130 19       		.uleb128 0x19
 2465 0131 11       		.uleb128 0x11
 2466 0132 01       		.uleb128 0x1
 2467 0133 12       		.uleb128 0x12
 2468 0134 06       		.uleb128 0x6
 2469 0135 40       		.uleb128 0x40
 2470 0136 18       		.uleb128 0x18
 2471 0137 9642     		.uleb128 0x2116
 2472 0139 19       		.uleb128 0x19
 2473 013a 01       		.uleb128 0x1
 2474 013b 13       		.uleb128 0x13
 2475 013c 00       		.byte	0
 2476 013d 00       		.byte	0
 2477 013e 13       		.uleb128 0x13
 2478 013f 34       		.uleb128 0x34
 2479 0140 00       		.byte	0
 2480 0141 03       		.uleb128 0x3
 2481 0142 0E       		.uleb128 0xe
 2482 0143 3A       		.uleb128 0x3a
 2483 0144 0B       		.uleb128 0xb
 2484 0145 3B       		.uleb128 0x3b
 2485 0146 0B       		.uleb128 0xb
 2486 0147 49       		.uleb128 0x49
 2487 0148 13       		.uleb128 0x13
 2488 0149 3F       		.uleb128 0x3f
 2489 014a 19       		.uleb128 0x19
 2490 014b 3C       		.uleb128 0x3c
 2491 014c 19       		.uleb128 0x19
 2492 014d 00       		.byte	0
 2493 014e 00       		.byte	0
 2494 014f 14       		.uleb128 0x14
 2495 0150 34       		.uleb128 0x34
 2496 0151 00       		.byte	0
 2497 0152 03       		.uleb128 0x3
 2498 0153 0E       		.uleb128 0xe
 2499 0154 3A       		.uleb128 0x3a
 2500 0155 0B       		.uleb128 0xb
 2501 0156 3B       		.uleb128 0x3b
 2502 0157 0B       		.uleb128 0xb
 2503 0158 49       		.uleb128 0x49
 2504 0159 13       		.uleb128 0x13
 2505 015a 3F       		.uleb128 0x3f
 2506 015b 19       		.uleb128 0x19
 2507 015c 02       		.uleb128 0x2
 2508 015d 18       		.uleb128 0x18
 2509 015e 00       		.byte	0
ARM GAS  C:\Users\jdrd3\AppData\Local\Temp\cch5OljY.s 			page 63


 2510 015f 00       		.byte	0
 2511 0160 00       		.byte	0
 2512              		.section	.debug_aranges,"",%progbits
 2513 0000 84000000 		.4byte	0x84
 2514 0004 0200     		.2byte	0x2
 2515 0006 00000000 		.4byte	.Ldebug_info0
 2516 000a 04       		.byte	0x4
 2517 000b 00       		.byte	0
 2518 000c 0000     		.2byte	0
 2519 000e 0000     		.2byte	0
 2520 0010 00000000 		.4byte	.LFB0
 2521 0014 1C010000 		.4byte	.LFE0-.LFB0
 2522 0018 00000000 		.4byte	.LFB1
 2523 001c 2C010000 		.4byte	.LFE1-.LFB1
 2524 0020 00000000 		.4byte	.LFB2
 2525 0024 10010000 		.4byte	.LFE2-.LFB2
 2526 0028 00000000 		.4byte	.LFB3
 2527 002c 08010000 		.4byte	.LFE3-.LFB3
 2528 0030 00000000 		.4byte	.LFB4
 2529 0034 BC000000 		.4byte	.LFE4-.LFB4
 2530 0038 00000000 		.4byte	.LFB5
 2531 003c CC000000 		.4byte	.LFE5-.LFB5
 2532 0040 00000000 		.4byte	.LFB6
 2533 0044 A8000000 		.4byte	.LFE6-.LFB6
 2534 0048 00000000 		.4byte	.LFB7
 2535 004c 14000000 		.4byte	.LFE7-.LFB7
 2536 0050 00000000 		.4byte	.LFB8
 2537 0054 14000000 		.4byte	.LFE8-.LFB8
 2538 0058 00000000 		.4byte	.LFB9
 2539 005c 34000000 		.4byte	.LFE9-.LFB9
 2540 0060 00000000 		.4byte	.LFB10
 2541 0064 34000000 		.4byte	.LFE10-.LFB10
 2542 0068 00000000 		.4byte	.LFB11
 2543 006c 44000000 		.4byte	.LFE11-.LFB11
 2544 0070 00000000 		.4byte	.LFB12
 2545 0074 30000000 		.4byte	.LFE12-.LFB12
 2546 0078 00000000 		.4byte	.LFB13
 2547 007c B4000000 		.4byte	.LFE13-.LFB13
 2548 0080 00000000 		.4byte	0
 2549 0084 00000000 		.4byte	0
 2550              		.section	.debug_ranges,"",%progbits
 2551              	.Ldebug_ranges0:
 2552 0000 00000000 		.4byte	.LFB0
 2553 0004 1C010000 		.4byte	.LFE0
 2554 0008 00000000 		.4byte	.LFB1
 2555 000c 2C010000 		.4byte	.LFE1
 2556 0010 00000000 		.4byte	.LFB2
 2557 0014 10010000 		.4byte	.LFE2
 2558 0018 00000000 		.4byte	.LFB3
 2559 001c 08010000 		.4byte	.LFE3
 2560 0020 00000000 		.4byte	.LFB4
 2561 0024 BC000000 		.4byte	.LFE4
 2562 0028 00000000 		.4byte	.LFB5
 2563 002c CC000000 		.4byte	.LFE5
 2564 0030 00000000 		.4byte	.LFB6
 2565 0034 A8000000 		.4byte	.LFE6
 2566 0038 00000000 		.4byte	.LFB7
ARM GAS  C:\Users\jdrd3\AppData\Local\Temp\cch5OljY.s 			page 64


 2567 003c 14000000 		.4byte	.LFE7
 2568 0040 00000000 		.4byte	.LFB8
 2569 0044 14000000 		.4byte	.LFE8
 2570 0048 00000000 		.4byte	.LFB9
 2571 004c 34000000 		.4byte	.LFE9
 2572 0050 00000000 		.4byte	.LFB10
 2573 0054 34000000 		.4byte	.LFE10
 2574 0058 00000000 		.4byte	.LFB11
 2575 005c 44000000 		.4byte	.LFE11
 2576 0060 00000000 		.4byte	.LFB12
 2577 0064 30000000 		.4byte	.LFE12
 2578 0068 00000000 		.4byte	.LFB13
 2579 006c B4000000 		.4byte	.LFE13
 2580 0070 00000000 		.4byte	0
 2581 0074 00000000 		.4byte	0
 2582              		.section	.debug_line,"",%progbits
 2583              	.Ldebug_line0:
 2584 0000 A6020000 		.section	.debug_str,"MS",%progbits,1
 2584      02006400 
 2584      00000201 
 2584      FB0E0D00 
 2584      01010101 
 2585              	.LASF15:
 2586 0000 72656733 		.ascii	"reg32\000"
 2586      3200
 2587              	.LASF30:
 2588 0006 4932434F 		.ascii	"I2COLED_I2CMasterWriteByte\000"
 2588      4C45445F 
 2588      4932434D 
 2588      61737465 
 2588      72577269 
 2589              	.LASF50:
 2590 0021 4932434F 		.ascii	"I2COLED_mstrWrBufIndexTmp\000"
 2590      4C45445F 
 2590      6D737472 
 2590      57724275 
 2590      66496E64 
 2591              	.LASF49:
 2592 003b 4932434F 		.ascii	"I2COLED_mstrWrBufIndex\000"
 2592      4C45445F 
 2592      6D737472 
 2592      57724275 
 2592      66496E64 
 2593              	.LASF41:
 2594 0052 4932434F 		.ascii	"I2COLED_state\000"
 2594      4C45445F 
 2594      73746174 
 2594      6500
 2595              	.LASF3:
 2596 0060 73686F72 		.ascii	"short unsigned int\000"
 2596      7420756E 
 2596      7369676E 
 2596      65642069 
 2596      6E7400
 2597              	.LASF36:
 2598 0073 4932434F 		.ascii	"I2COLED_I2CMasterClearReadBuf\000"
 2598      4C45445F 
ARM GAS  C:\Users\jdrd3\AppData\Local\Temp\cch5OljY.s 			page 65


 2598      4932434D 
 2598      61737465 
 2598      72436C65 
 2599              	.LASF22:
 2600 0091 4932434F 		.ascii	"I2COLED_I2CMasterReadBuf\000"
 2600      4C45445F 
 2600      4932434D 
 2600      61737465 
 2600      72526561 
 2601              	.LASF39:
 2602 00aa 73746174 		.ascii	"status\000"
 2602      757300
 2603              	.LASF27:
 2604 00b1 72657365 		.ascii	"resetIp\000"
 2604      74497000 
 2605              	.LASF12:
 2606 00b9 666C6F61 		.ascii	"float\000"
 2606      7400
 2607              	.LASF29:
 2608 00bf 4932434F 		.ascii	"I2COLED_I2CMasterSendStop\000"
 2608      4C45445F 
 2608      4932434D 
 2608      61737465 
 2608      7253656E 
 2609              	.LASF28:
 2610 00d9 4932434F 		.ascii	"I2COLED_I2CMasterSendRestart\000"
 2610      4C45445F 
 2610      4932434D 
 2610      61737465 
 2610      7253656E 
 2611              	.LASF52:
 2612 00f6 47656E65 		.ascii	"Generated_Source\\PSoC4\\I2COLED_I2C_MASTER.c\000"
 2612      72617465 
 2612      645F536F 
 2612      75726365 
 2612      5C50536F 
 2613              	.LASF45:
 2614 0122 4932434F 		.ascii	"I2COLED_mstrRdBufSize\000"
 2614      4C45445F 
 2614      6D737472 
 2614      52644275 
 2614      6653697A 
 2615              	.LASF5:
 2616 0138 6C6F6E67 		.ascii	"long unsigned int\000"
 2616      20756E73 
 2616      69676E65 
 2616      6420696E 
 2616      7400
 2617              	.LASF9:
 2618 014a 75696E74 		.ascii	"uint8\000"
 2618      3800
 2619              	.LASF33:
 2620 0150 61636B4E 		.ascii	"ackNack\000"
 2620      61636B00 
 2621              	.LASF25:
 2622 0158 4932434F 		.ascii	"I2COLED_I2CMasterSendStart\000"
 2622      4C45445F 
ARM GAS  C:\Users\jdrd3\AppData\Local\Temp\cch5OljY.s 			page 66


 2622      4932434D 
 2622      61737465 
 2622      7253656E 
 2623              	.LASF24:
 2624 0173 65727253 		.ascii	"errStatus\000"
 2624      74617475 
 2624      7300
 2625              	.LASF1:
 2626 017d 756E7369 		.ascii	"unsigned char\000"
 2626      676E6564 
 2626      20636861 
 2626      7200
 2627              	.LASF13:
 2628 018b 646F7562 		.ascii	"double\000"
 2628      6C6500
 2629              	.LASF19:
 2630 0192 77724461 		.ascii	"wrData\000"
 2630      746100
 2631              	.LASF26:
 2632 0199 62697452 		.ascii	"bitRnW\000"
 2632      6E5700
 2633              	.LASF10:
 2634 01a0 75696E74 		.ascii	"uint16\000"
 2634      313600
 2635              	.LASF23:
 2636 01a7 72644461 		.ascii	"rdData\000"
 2636      746100
 2637              	.LASF11:
 2638 01ae 75696E74 		.ascii	"uint32\000"
 2638      333200
 2639              	.LASF21:
 2640 01b5 4932434F 		.ascii	"I2COLED_I2CMasterWriteBuf\000"
 2640      4C45445F 
 2640      4932434D 
 2640      61737465 
 2640      72577269 
 2641              	.LASF44:
 2642 01cf 4932434F 		.ascii	"I2COLED_mstrRdBufPtr\000"
 2642      4C45445F 
 2642      6D737472 
 2642      52644275 
 2642      66507472 
 2643              	.LASF8:
 2644 01e4 756E7369 		.ascii	"unsigned int\000"
 2644      676E6564 
 2644      20696E74 
 2644      00
 2645              	.LASF51:
 2646 01f1 474E5520 		.ascii	"GNU C11 5.4.1 20160609 (release) [ARM/embedded-5-br"
 2646      43313120 
 2646      352E342E 
 2646      31203230 
 2646      31363036 
 2647 0224 616E6368 		.ascii	"anch revision 237715] -mcpu=cortex-m0 -mthumb -g -O"
 2647      20726576 
 2647      6973696F 
 2647      6E203233 
ARM GAS  C:\Users\jdrd3\AppData\Local\Temp\cch5OljY.s 			page 67


 2647      37373135 
 2648 0257 30202D66 		.ascii	"0 -ffunction-sections -ffat-lto-objects\000"
 2648      66756E63 
 2648      74696F6E 
 2648      2D736563 
 2648      74696F6E 
 2649              	.LASF7:
 2650 027f 6C6F6E67 		.ascii	"long long unsigned int\000"
 2650      206C6F6E 
 2650      6720756E 
 2650      7369676E 
 2650      65642069 
 2651              	.LASF43:
 2652 0296 4932434F 		.ascii	"I2COLED_mstrControl\000"
 2652      4C45445F 
 2652      6D737472 
 2652      436F6E74 
 2652      726F6C00 
 2653              	.LASF34:
 2654 02aa 4932434F 		.ascii	"I2COLED_I2CMasterGetReadBufSize\000"
 2654      4C45445F 
 2654      4932434D 
 2654      61737465 
 2654      72476574 
 2655              	.LASF20:
 2656 02ca 6D6F6465 		.ascii	"mode\000"
 2656      00
 2657              	.LASF18:
 2658 02cf 736C6176 		.ascii	"slaveAddress\000"
 2658      65416464 
 2658      72657373 
 2658      00
 2659              	.LASF17:
 2660 02dc 73697A65 		.ascii	"sizetype\000"
 2660      74797065 
 2660      00
 2661              	.LASF37:
 2662 02e5 4932434F 		.ascii	"I2COLED_I2CMasterClearWriteBuf\000"
 2662      4C45445F 
 2662      4932434D 
 2662      61737465 
 2662      72436C65 
 2663              	.LASF6:
 2664 0304 6C6F6E67 		.ascii	"long long int\000"
 2664      206C6F6E 
 2664      6720696E 
 2664      7400
 2665              	.LASF53:
 2666 0312 443A5C4E 		.ascii	"D:\\Nico\\Archivos\\lib_psoc\\Cypress-PSOC-OLED-mas"
 2666      69636F5C 
 2666      41726368 
 2666      69766F73 
 2666      5C6C6962 
 2667 0341 7465725C 		.ascii	"ter\\OLED.cydsn\000"
 2667      4F4C4544 
 2667      2E637964 
 2667      736E00
ARM GAS  C:\Users\jdrd3\AppData\Local\Temp\cch5OljY.s 			page 68


 2668              	.LASF14:
 2669 0350 63686172 		.ascii	"char\000"
 2669      00
 2670              	.LASF47:
 2671 0355 4932434F 		.ascii	"I2COLED_mstrWrBufPtr\000"
 2671      4C45445F 
 2671      6D737472 
 2671      57724275 
 2671      66507472 
 2672              	.LASF38:
 2673 036a 4932434F 		.ascii	"I2COLED_I2CMasterStatus\000"
 2673      4C45445F 
 2673      4932434D 
 2673      61737465 
 2673      72537461 
 2674              	.LASF2:
 2675 0382 73686F72 		.ascii	"short int\000"
 2675      7420696E 
 2675      7400
 2676              	.LASF31:
 2677 038c 74686542 		.ascii	"theByte\000"
 2677      79746500 
 2678              	.LASF32:
 2679 0394 4932434F 		.ascii	"I2COLED_I2CMasterReadByte\000"
 2679      4C45445F 
 2679      4932434D 
 2679      61737465 
 2679      72526561 
 2680              	.LASF46:
 2681 03ae 4932434F 		.ascii	"I2COLED_mstrRdBufIndex\000"
 2681      4C45445F 
 2681      6D737472 
 2681      52644275 
 2681      66496E64 
 2682              	.LASF54:
 2683 03c5 4932434F 		.ascii	"I2COLED_I2CReStartGeneration\000"
 2683      4C45445F 
 2683      49324352 
 2683      65537461 
 2683      72744765 
 2684              	.LASF42:
 2685 03e2 4932434F 		.ascii	"I2COLED_mstrStatus\000"
 2685      4C45445F 
 2685      6D737472 
 2685      53746174 
 2685      757300
 2686              	.LASF4:
 2687 03f5 6C6F6E67 		.ascii	"long int\000"
 2687      20696E74 
 2687      00
 2688              	.LASF40:
 2689 03fe 4932434F 		.ascii	"I2COLED_I2CMasterClearStatus\000"
 2689      4C45445F 
 2689      4932434D 
 2689      61737465 
 2689      72436C65 
 2690              	.LASF16:
ARM GAS  C:\Users\jdrd3\AppData\Local\Temp\cch5OljY.s 			page 69


 2691 041b 6C6F6E67 		.ascii	"long double\000"
 2691      20646F75 
 2691      626C6500 
 2692              	.LASF0:
 2693 0427 7369676E 		.ascii	"signed char\000"
 2693      65642063 
 2693      68617200 
 2694              	.LASF35:
 2695 0433 4932434F 		.ascii	"I2COLED_I2CMasterGetWriteBufSize\000"
 2695      4C45445F 
 2695      4932434D 
 2695      61737465 
 2695      72476574 
 2696              	.LASF48:
 2697 0454 4932434F 		.ascii	"I2COLED_mstrWrBufSize\000"
 2697      4C45445F 
 2697      6D737472 
 2697      57724275 
 2697      6653697A 
 2698              		.ident	"GCC: (GNU Tools for ARM Embedded Processors) 5.4.1 20160609 (release) [ARM/embedded-5-bran
