ARM GAS  C:\Users\jdrd3\AppData\Local\Temp\ccIQ0Pfc.s 			page 1


   1              		.syntax unified
   2              		.cpu cortex-m0
   3              		.fpu softvfp
   4              		.eabi_attribute 20, 1
   5              		.eabi_attribute 21, 1
   6              		.eabi_attribute 23, 3
   7              		.eabi_attribute 24, 1
   8              		.eabi_attribute 25, 1
   9              		.eabi_attribute 26, 1
  10              		.eabi_attribute 30, 6
  11              		.eabi_attribute 34, 0
  12              		.eabi_attribute 18, 4
  13              		.thumb
  14              		.syntax unified
  15              		.file	"I2COLED_SCBCLK.c"
  16              		.text
  17              	.Ltext0:
  18              		.cfi_sections	.debug_frame
  19              		.section	.text.I2COLED_SCBCLK_Start,"ax",%progbits
  20              		.align	2
  21              		.global	I2COLED_SCBCLK_Start
  22              		.code	16
  23              		.thumb_func
  24              		.type	I2COLED_SCBCLK_Start, %function
  25              	I2COLED_SCBCLK_Start:
  26              	.LFB0:
  27              		.file 1 "Generated_Source\\PSoC4\\I2COLED_SCBCLK.c"
   1:Generated_Source\PSoC4/I2COLED_SCBCLK.c **** /*******************************************************************************
   2:Generated_Source\PSoC4/I2COLED_SCBCLK.c **** * File Name: I2COLED_SCBCLK.c
   3:Generated_Source\PSoC4/I2COLED_SCBCLK.c **** * Version 2.20
   4:Generated_Source\PSoC4/I2COLED_SCBCLK.c **** *
   5:Generated_Source\PSoC4/I2COLED_SCBCLK.c **** *  Description:
   6:Generated_Source\PSoC4/I2COLED_SCBCLK.c **** *   Provides system API for the clocking, interrupts and watchdog timer.
   7:Generated_Source\PSoC4/I2COLED_SCBCLK.c **** *
   8:Generated_Source\PSoC4/I2COLED_SCBCLK.c **** *  Note:
   9:Generated_Source\PSoC4/I2COLED_SCBCLK.c **** *   Documentation of the API's in this file is located in the
  10:Generated_Source\PSoC4/I2COLED_SCBCLK.c **** *   System Reference Guide provided with PSoC Creator.
  11:Generated_Source\PSoC4/I2COLED_SCBCLK.c **** *
  12:Generated_Source\PSoC4/I2COLED_SCBCLK.c **** ********************************************************************************
  13:Generated_Source\PSoC4/I2COLED_SCBCLK.c **** * Copyright 2008-2012, Cypress Semiconductor Corporation.  All rights reserved.
  14:Generated_Source\PSoC4/I2COLED_SCBCLK.c **** * You may use this file only in accordance with the license, terms, conditions,
  15:Generated_Source\PSoC4/I2COLED_SCBCLK.c **** * disclaimers, and limitations in the end user license agreement accompanying
  16:Generated_Source\PSoC4/I2COLED_SCBCLK.c **** * the software package with which this file was provided.
  17:Generated_Source\PSoC4/I2COLED_SCBCLK.c **** *******************************************************************************/
  18:Generated_Source\PSoC4/I2COLED_SCBCLK.c **** 
  19:Generated_Source\PSoC4/I2COLED_SCBCLK.c **** #include <cydevice_trm.h>
  20:Generated_Source\PSoC4/I2COLED_SCBCLK.c **** #include "I2COLED_SCBCLK.h"
  21:Generated_Source\PSoC4/I2COLED_SCBCLK.c **** 
  22:Generated_Source\PSoC4/I2COLED_SCBCLK.c **** #if defined CYREG_PERI_DIV_CMD
  23:Generated_Source\PSoC4/I2COLED_SCBCLK.c **** 
  24:Generated_Source\PSoC4/I2COLED_SCBCLK.c **** /*******************************************************************************
  25:Generated_Source\PSoC4/I2COLED_SCBCLK.c **** * Function Name: I2COLED_SCBCLK_StartEx
  26:Generated_Source\PSoC4/I2COLED_SCBCLK.c **** ********************************************************************************
  27:Generated_Source\PSoC4/I2COLED_SCBCLK.c **** *
  28:Generated_Source\PSoC4/I2COLED_SCBCLK.c **** * Summary:
  29:Generated_Source\PSoC4/I2COLED_SCBCLK.c **** *  Starts the clock, aligned to the specified running clock.
  30:Generated_Source\PSoC4/I2COLED_SCBCLK.c **** *
ARM GAS  C:\Users\jdrd3\AppData\Local\Temp\ccIQ0Pfc.s 			page 2


  31:Generated_Source\PSoC4/I2COLED_SCBCLK.c **** * Parameters:
  32:Generated_Source\PSoC4/I2COLED_SCBCLK.c **** *  alignClkDiv:  The divider to which phase alignment is performed when the
  33:Generated_Source\PSoC4/I2COLED_SCBCLK.c **** *    clock is started.
  34:Generated_Source\PSoC4/I2COLED_SCBCLK.c **** *
  35:Generated_Source\PSoC4/I2COLED_SCBCLK.c **** * Returns:
  36:Generated_Source\PSoC4/I2COLED_SCBCLK.c **** *  None
  37:Generated_Source\PSoC4/I2COLED_SCBCLK.c **** *
  38:Generated_Source\PSoC4/I2COLED_SCBCLK.c **** *******************************************************************************/
  39:Generated_Source\PSoC4/I2COLED_SCBCLK.c **** void I2COLED_SCBCLK_StartEx(uint32 alignClkDiv)
  40:Generated_Source\PSoC4/I2COLED_SCBCLK.c **** {
  41:Generated_Source\PSoC4/I2COLED_SCBCLK.c ****     /* Make sure any previous start command has finished. */
  42:Generated_Source\PSoC4/I2COLED_SCBCLK.c ****     while((I2COLED_SCBCLK_CMD_REG & I2COLED_SCBCLK_CMD_ENABLE_MASK) != 0u)
  43:Generated_Source\PSoC4/I2COLED_SCBCLK.c ****     {
  44:Generated_Source\PSoC4/I2COLED_SCBCLK.c ****     }
  45:Generated_Source\PSoC4/I2COLED_SCBCLK.c ****     
  46:Generated_Source\PSoC4/I2COLED_SCBCLK.c ****     /* Specify the target divider and it's alignment divider, and enable. */
  47:Generated_Source\PSoC4/I2COLED_SCBCLK.c ****     I2COLED_SCBCLK_CMD_REG =
  48:Generated_Source\PSoC4/I2COLED_SCBCLK.c ****         ((uint32)I2COLED_SCBCLK__DIV_ID << I2COLED_SCBCLK_CMD_DIV_SHIFT)|
  49:Generated_Source\PSoC4/I2COLED_SCBCLK.c ****         (alignClkDiv << I2COLED_SCBCLK_CMD_PA_DIV_SHIFT) |
  50:Generated_Source\PSoC4/I2COLED_SCBCLK.c ****         (uint32)I2COLED_SCBCLK_CMD_ENABLE_MASK;
  51:Generated_Source\PSoC4/I2COLED_SCBCLK.c **** }
  52:Generated_Source\PSoC4/I2COLED_SCBCLK.c **** 
  53:Generated_Source\PSoC4/I2COLED_SCBCLK.c **** #else
  54:Generated_Source\PSoC4/I2COLED_SCBCLK.c **** 
  55:Generated_Source\PSoC4/I2COLED_SCBCLK.c **** /*******************************************************************************
  56:Generated_Source\PSoC4/I2COLED_SCBCLK.c **** * Function Name: I2COLED_SCBCLK_Start
  57:Generated_Source\PSoC4/I2COLED_SCBCLK.c **** ********************************************************************************
  58:Generated_Source\PSoC4/I2COLED_SCBCLK.c **** *
  59:Generated_Source\PSoC4/I2COLED_SCBCLK.c **** * Summary:
  60:Generated_Source\PSoC4/I2COLED_SCBCLK.c **** *  Starts the clock.
  61:Generated_Source\PSoC4/I2COLED_SCBCLK.c **** *
  62:Generated_Source\PSoC4/I2COLED_SCBCLK.c **** * Parameters:
  63:Generated_Source\PSoC4/I2COLED_SCBCLK.c **** *  None
  64:Generated_Source\PSoC4/I2COLED_SCBCLK.c **** *
  65:Generated_Source\PSoC4/I2COLED_SCBCLK.c **** * Returns:
  66:Generated_Source\PSoC4/I2COLED_SCBCLK.c **** *  None
  67:Generated_Source\PSoC4/I2COLED_SCBCLK.c **** *
  68:Generated_Source\PSoC4/I2COLED_SCBCLK.c **** *******************************************************************************/
  69:Generated_Source\PSoC4/I2COLED_SCBCLK.c **** 
  70:Generated_Source\PSoC4/I2COLED_SCBCLK.c **** void I2COLED_SCBCLK_Start(void)
  71:Generated_Source\PSoC4/I2COLED_SCBCLK.c **** {
  28              		.loc 1 71 0
  29              		.cfi_startproc
  30              		@ args = 0, pretend = 0, frame = 0
  31              		@ frame_needed = 1, uses_anonymous_args = 0
  32 0000 80B5     		push	{r7, lr}
  33              		.cfi_def_cfa_offset 8
  34              		.cfi_offset 7, -8
  35              		.cfi_offset 14, -4
  36 0002 00AF     		add	r7, sp, #0
  37              		.cfi_def_cfa_register 7
  72:Generated_Source\PSoC4/I2COLED_SCBCLK.c ****     /* Set the bit to enable the clock. */
  73:Generated_Source\PSoC4/I2COLED_SCBCLK.c ****     I2COLED_SCBCLK_ENABLE_REG |= I2COLED_SCBCLK__ENABLE_MASK;
  38              		.loc 1 73 0
  39 0004 044B     		ldr	r3, .L2
  40 0006 044A     		ldr	r2, .L2
  41 0008 1268     		ldr	r2, [r2]
ARM GAS  C:\Users\jdrd3\AppData\Local\Temp\ccIQ0Pfc.s 			page 3


  42 000a 8021     		movs	r1, #128
  43 000c 0906     		lsls	r1, r1, #24
  44 000e 0A43     		orrs	r2, r1
  45 0010 1A60     		str	r2, [r3]
  74:Generated_Source\PSoC4/I2COLED_SCBCLK.c **** }
  46              		.loc 1 74 0
  47 0012 C046     		nop
  48 0014 BD46     		mov	sp, r7
  49              		@ sp needed
  50 0016 80BD     		pop	{r7, pc}
  51              	.L3:
  52              		.align	2
  53              	.L2:
  54 0018 00000240 		.word	1073872896
  55              		.cfi_endproc
  56              	.LFE0:
  57              		.size	I2COLED_SCBCLK_Start, .-I2COLED_SCBCLK_Start
  58              		.section	.text.I2COLED_SCBCLK_Stop,"ax",%progbits
  59              		.align	2
  60              		.global	I2COLED_SCBCLK_Stop
  61              		.code	16
  62              		.thumb_func
  63              		.type	I2COLED_SCBCLK_Stop, %function
  64              	I2COLED_SCBCLK_Stop:
  65              	.LFB1:
  75:Generated_Source\PSoC4/I2COLED_SCBCLK.c **** 
  76:Generated_Source\PSoC4/I2COLED_SCBCLK.c **** #endif /* CYREG_PERI_DIV_CMD */
  77:Generated_Source\PSoC4/I2COLED_SCBCLK.c **** 
  78:Generated_Source\PSoC4/I2COLED_SCBCLK.c **** 
  79:Generated_Source\PSoC4/I2COLED_SCBCLK.c **** /*******************************************************************************
  80:Generated_Source\PSoC4/I2COLED_SCBCLK.c **** * Function Name: I2COLED_SCBCLK_Stop
  81:Generated_Source\PSoC4/I2COLED_SCBCLK.c **** ********************************************************************************
  82:Generated_Source\PSoC4/I2COLED_SCBCLK.c **** *
  83:Generated_Source\PSoC4/I2COLED_SCBCLK.c **** * Summary:
  84:Generated_Source\PSoC4/I2COLED_SCBCLK.c **** *  Stops the clock and returns immediately. This API does not require the
  85:Generated_Source\PSoC4/I2COLED_SCBCLK.c **** *  source clock to be running but may return before the hardware is actually
  86:Generated_Source\PSoC4/I2COLED_SCBCLK.c **** *  disabled.
  87:Generated_Source\PSoC4/I2COLED_SCBCLK.c **** *
  88:Generated_Source\PSoC4/I2COLED_SCBCLK.c **** * Parameters:
  89:Generated_Source\PSoC4/I2COLED_SCBCLK.c **** *  None
  90:Generated_Source\PSoC4/I2COLED_SCBCLK.c **** *
  91:Generated_Source\PSoC4/I2COLED_SCBCLK.c **** * Returns:
  92:Generated_Source\PSoC4/I2COLED_SCBCLK.c **** *  None
  93:Generated_Source\PSoC4/I2COLED_SCBCLK.c **** *
  94:Generated_Source\PSoC4/I2COLED_SCBCLK.c **** *******************************************************************************/
  95:Generated_Source\PSoC4/I2COLED_SCBCLK.c **** void I2COLED_SCBCLK_Stop(void)
  96:Generated_Source\PSoC4/I2COLED_SCBCLK.c **** {
  66              		.loc 1 96 0
  67              		.cfi_startproc
  68              		@ args = 0, pretend = 0, frame = 0
  69              		@ frame_needed = 1, uses_anonymous_args = 0
  70 0000 80B5     		push	{r7, lr}
  71              		.cfi_def_cfa_offset 8
  72              		.cfi_offset 7, -8
  73              		.cfi_offset 14, -4
  74 0002 00AF     		add	r7, sp, #0
  75              		.cfi_def_cfa_register 7
ARM GAS  C:\Users\jdrd3\AppData\Local\Temp\ccIQ0Pfc.s 			page 4


  97:Generated_Source\PSoC4/I2COLED_SCBCLK.c **** #if defined CYREG_PERI_DIV_CMD
  98:Generated_Source\PSoC4/I2COLED_SCBCLK.c **** 
  99:Generated_Source\PSoC4/I2COLED_SCBCLK.c ****     /* Make sure any previous start command has finished. */
 100:Generated_Source\PSoC4/I2COLED_SCBCLK.c ****     while((I2COLED_SCBCLK_CMD_REG & I2COLED_SCBCLK_CMD_ENABLE_MASK) != 0u)
 101:Generated_Source\PSoC4/I2COLED_SCBCLK.c ****     {
 102:Generated_Source\PSoC4/I2COLED_SCBCLK.c ****     }
 103:Generated_Source\PSoC4/I2COLED_SCBCLK.c ****     
 104:Generated_Source\PSoC4/I2COLED_SCBCLK.c ****     /* Specify the target divider and it's alignment divider, and disable. */
 105:Generated_Source\PSoC4/I2COLED_SCBCLK.c ****     I2COLED_SCBCLK_CMD_REG =
 106:Generated_Source\PSoC4/I2COLED_SCBCLK.c ****         ((uint32)I2COLED_SCBCLK__DIV_ID << I2COLED_SCBCLK_CMD_DIV_SHIFT)|
 107:Generated_Source\PSoC4/I2COLED_SCBCLK.c ****         ((uint32)I2COLED_SCBCLK_CMD_DISABLE_MASK);
 108:Generated_Source\PSoC4/I2COLED_SCBCLK.c **** 
 109:Generated_Source\PSoC4/I2COLED_SCBCLK.c **** #else
 110:Generated_Source\PSoC4/I2COLED_SCBCLK.c **** 
 111:Generated_Source\PSoC4/I2COLED_SCBCLK.c ****     /* Clear the bit to disable the clock. */
 112:Generated_Source\PSoC4/I2COLED_SCBCLK.c ****     I2COLED_SCBCLK_ENABLE_REG &= (uint32)(~I2COLED_SCBCLK__ENABLE_MASK);
  76              		.loc 1 112 0
  77 0004 044B     		ldr	r3, .L5
  78 0006 044A     		ldr	r2, .L5
  79 0008 1268     		ldr	r2, [r2]
  80 000a 5200     		lsls	r2, r2, #1
  81 000c 5208     		lsrs	r2, r2, #1
  82 000e 1A60     		str	r2, [r3]
 113:Generated_Source\PSoC4/I2COLED_SCBCLK.c ****     
 114:Generated_Source\PSoC4/I2COLED_SCBCLK.c **** #endif /* CYREG_PERI_DIV_CMD */
 115:Generated_Source\PSoC4/I2COLED_SCBCLK.c **** }
  83              		.loc 1 115 0
  84 0010 C046     		nop
  85 0012 BD46     		mov	sp, r7
  86              		@ sp needed
  87 0014 80BD     		pop	{r7, pc}
  88              	.L6:
  89 0016 C046     		.align	2
  90              	.L5:
  91 0018 00000240 		.word	1073872896
  92              		.cfi_endproc
  93              	.LFE1:
  94              		.size	I2COLED_SCBCLK_Stop, .-I2COLED_SCBCLK_Stop
  95              		.section	.text.I2COLED_SCBCLK_SetFractionalDividerRegister,"ax",%progbits
  96              		.align	2
  97              		.global	I2COLED_SCBCLK_SetFractionalDividerRegister
  98              		.code	16
  99              		.thumb_func
 100              		.type	I2COLED_SCBCLK_SetFractionalDividerRegister, %function
 101              	I2COLED_SCBCLK_SetFractionalDividerRegister:
 102              	.LFB2:
 116:Generated_Source\PSoC4/I2COLED_SCBCLK.c **** 
 117:Generated_Source\PSoC4/I2COLED_SCBCLK.c **** 
 118:Generated_Source\PSoC4/I2COLED_SCBCLK.c **** /*******************************************************************************
 119:Generated_Source\PSoC4/I2COLED_SCBCLK.c **** * Function Name: I2COLED_SCBCLK_SetFractionalDividerRegister
 120:Generated_Source\PSoC4/I2COLED_SCBCLK.c **** ********************************************************************************
 121:Generated_Source\PSoC4/I2COLED_SCBCLK.c **** *
 122:Generated_Source\PSoC4/I2COLED_SCBCLK.c **** * Summary:
 123:Generated_Source\PSoC4/I2COLED_SCBCLK.c **** *  Modifies the clock divider and the fractional divider.
 124:Generated_Source\PSoC4/I2COLED_SCBCLK.c **** *
 125:Generated_Source\PSoC4/I2COLED_SCBCLK.c **** * Parameters:
 126:Generated_Source\PSoC4/I2COLED_SCBCLK.c **** *  clkDivider:  Divider register value (0-65535). This value is NOT the
ARM GAS  C:\Users\jdrd3\AppData\Local\Temp\ccIQ0Pfc.s 			page 5


 127:Generated_Source\PSoC4/I2COLED_SCBCLK.c **** *    divider; the clock hardware divides by clkDivider plus one. For example,
 128:Generated_Source\PSoC4/I2COLED_SCBCLK.c **** *    to divide the clock by 2, this parameter should be set to 1.
 129:Generated_Source\PSoC4/I2COLED_SCBCLK.c **** *  fracDivider:  Fractional Divider register value (0-31).
 130:Generated_Source\PSoC4/I2COLED_SCBCLK.c **** * Returns:
 131:Generated_Source\PSoC4/I2COLED_SCBCLK.c **** *  None
 132:Generated_Source\PSoC4/I2COLED_SCBCLK.c **** *
 133:Generated_Source\PSoC4/I2COLED_SCBCLK.c **** *******************************************************************************/
 134:Generated_Source\PSoC4/I2COLED_SCBCLK.c **** void I2COLED_SCBCLK_SetFractionalDividerRegister(uint16 clkDivider, uint8 clkFractional)
 135:Generated_Source\PSoC4/I2COLED_SCBCLK.c **** {
 103              		.loc 1 135 0
 104              		.cfi_startproc
 105              		@ args = 0, pretend = 0, frame = 16
 106              		@ frame_needed = 1, uses_anonymous_args = 0
 107 0000 80B5     		push	{r7, lr}
 108              		.cfi_def_cfa_offset 8
 109              		.cfi_offset 7, -8
 110              		.cfi_offset 14, -4
 111 0002 84B0     		sub	sp, sp, #16
 112              		.cfi_def_cfa_offset 24
 113 0004 00AF     		add	r7, sp, #0
 114              		.cfi_def_cfa_register 7
 115 0006 0200     		movs	r2, r0
 116 0008 BB1D     		adds	r3, r7, #6
 117 000a 1A80     		strh	r2, [r3]
 118 000c 7B1D     		adds	r3, r7, #5
 119 000e 0A1C     		adds	r2, r1, #0
 120 0010 1A70     		strb	r2, [r3]
 136:Generated_Source\PSoC4/I2COLED_SCBCLK.c ****     uint32 maskVal;
 137:Generated_Source\PSoC4/I2COLED_SCBCLK.c ****     uint32 regVal;
 138:Generated_Source\PSoC4/I2COLED_SCBCLK.c ****     
 139:Generated_Source\PSoC4/I2COLED_SCBCLK.c **** #if defined (I2COLED_SCBCLK__FRAC_MASK) || defined (CYREG_PERI_DIV_CMD)
 140:Generated_Source\PSoC4/I2COLED_SCBCLK.c ****     
 141:Generated_Source\PSoC4/I2COLED_SCBCLK.c **** 	/* get all but divider bits */
 142:Generated_Source\PSoC4/I2COLED_SCBCLK.c ****     maskVal = I2COLED_SCBCLK_DIV_REG & 
 143:Generated_Source\PSoC4/I2COLED_SCBCLK.c ****                     (uint32)(~(uint32)(I2COLED_SCBCLK_DIV_INT_MASK | I2COLED_SCBCLK_DIV_FRAC_MASK))
 144:Generated_Source\PSoC4/I2COLED_SCBCLK.c **** 	/* combine mask and new divider vals into 32-bit value */
 145:Generated_Source\PSoC4/I2COLED_SCBCLK.c ****     regVal = maskVal |
 146:Generated_Source\PSoC4/I2COLED_SCBCLK.c ****         ((uint32)((uint32)clkDivider <<  I2COLED_SCBCLK_DIV_INT_SHIFT) & I2COLED_SCBCLK_DIV_INT_MAS
 147:Generated_Source\PSoC4/I2COLED_SCBCLK.c ****         ((uint32)((uint32)clkFractional << I2COLED_SCBCLK_DIV_FRAC_SHIFT) & I2COLED_SCBCLK_DIV_FRAC
 148:Generated_Source\PSoC4/I2COLED_SCBCLK.c ****     
 149:Generated_Source\PSoC4/I2COLED_SCBCLK.c **** #else
 150:Generated_Source\PSoC4/I2COLED_SCBCLK.c ****     /* get all but integer divider bits */
 151:Generated_Source\PSoC4/I2COLED_SCBCLK.c ****     maskVal = I2COLED_SCBCLK_DIV_REG & (uint32)(~(uint32)I2COLED_SCBCLK__DIVIDER_MASK);
 121              		.loc 1 151 0
 122 0012 084B     		ldr	r3, .L8
 123 0014 1B68     		ldr	r3, [r3]
 124 0016 1B0C     		lsrs	r3, r3, #16
 125 0018 1B04     		lsls	r3, r3, #16
 126 001a FB60     		str	r3, [r7, #12]
 152:Generated_Source\PSoC4/I2COLED_SCBCLK.c ****     /* combine mask and new divider val into 32-bit value */
 153:Generated_Source\PSoC4/I2COLED_SCBCLK.c ****     regVal = clkDivider | maskVal;
 127              		.loc 1 153 0
 128 001c BB1D     		adds	r3, r7, #6
 129 001e 1A88     		ldrh	r2, [r3]
 130 0020 FB68     		ldr	r3, [r7, #12]
 131 0022 1343     		orrs	r3, r2
 132 0024 BB60     		str	r3, [r7, #8]
ARM GAS  C:\Users\jdrd3\AppData\Local\Temp\ccIQ0Pfc.s 			page 6


 154:Generated_Source\PSoC4/I2COLED_SCBCLK.c ****     
 155:Generated_Source\PSoC4/I2COLED_SCBCLK.c **** #endif /* I2COLED_SCBCLK__FRAC_MASK || CYREG_PERI_DIV_CMD */
 156:Generated_Source\PSoC4/I2COLED_SCBCLK.c **** 
 157:Generated_Source\PSoC4/I2COLED_SCBCLK.c ****     I2COLED_SCBCLK_DIV_REG = regVal;
 133              		.loc 1 157 0
 134 0026 034B     		ldr	r3, .L8
 135 0028 BA68     		ldr	r2, [r7, #8]
 136 002a 1A60     		str	r2, [r3]
 158:Generated_Source\PSoC4/I2COLED_SCBCLK.c **** }
 137              		.loc 1 158 0
 138 002c C046     		nop
 139 002e BD46     		mov	sp, r7
 140 0030 04B0     		add	sp, sp, #16
 141              		@ sp needed
 142 0032 80BD     		pop	{r7, pc}
 143              	.L9:
 144              		.align	2
 145              	.L8:
 146 0034 00000240 		.word	1073872896
 147              		.cfi_endproc
 148              	.LFE2:
 149              		.size	I2COLED_SCBCLK_SetFractionalDividerRegister, .-I2COLED_SCBCLK_SetFractionalDividerRegister
 150              		.section	.text.I2COLED_SCBCLK_GetDividerRegister,"ax",%progbits
 151              		.align	2
 152              		.global	I2COLED_SCBCLK_GetDividerRegister
 153              		.code	16
 154              		.thumb_func
 155              		.type	I2COLED_SCBCLK_GetDividerRegister, %function
 156              	I2COLED_SCBCLK_GetDividerRegister:
 157              	.LFB3:
 159:Generated_Source\PSoC4/I2COLED_SCBCLK.c **** 
 160:Generated_Source\PSoC4/I2COLED_SCBCLK.c **** 
 161:Generated_Source\PSoC4/I2COLED_SCBCLK.c **** /*******************************************************************************
 162:Generated_Source\PSoC4/I2COLED_SCBCLK.c **** * Function Name: I2COLED_SCBCLK_GetDividerRegister
 163:Generated_Source\PSoC4/I2COLED_SCBCLK.c **** ********************************************************************************
 164:Generated_Source\PSoC4/I2COLED_SCBCLK.c **** *
 165:Generated_Source\PSoC4/I2COLED_SCBCLK.c **** * Summary:
 166:Generated_Source\PSoC4/I2COLED_SCBCLK.c **** *  Gets the clock divider register value.
 167:Generated_Source\PSoC4/I2COLED_SCBCLK.c **** *
 168:Generated_Source\PSoC4/I2COLED_SCBCLK.c **** * Parameters:
 169:Generated_Source\PSoC4/I2COLED_SCBCLK.c **** *  None
 170:Generated_Source\PSoC4/I2COLED_SCBCLK.c **** *
 171:Generated_Source\PSoC4/I2COLED_SCBCLK.c **** * Returns:
 172:Generated_Source\PSoC4/I2COLED_SCBCLK.c **** *  Divide value of the clock minus 1. For example, if the clock is set to
 173:Generated_Source\PSoC4/I2COLED_SCBCLK.c **** *  divide by 2, the return value will be 1.
 174:Generated_Source\PSoC4/I2COLED_SCBCLK.c **** *
 175:Generated_Source\PSoC4/I2COLED_SCBCLK.c **** *******************************************************************************/
 176:Generated_Source\PSoC4/I2COLED_SCBCLK.c **** uint16 I2COLED_SCBCLK_GetDividerRegister(void)
 177:Generated_Source\PSoC4/I2COLED_SCBCLK.c **** {
 158              		.loc 1 177 0
 159              		.cfi_startproc
 160              		@ args = 0, pretend = 0, frame = 0
 161              		@ frame_needed = 1, uses_anonymous_args = 0
 162 0000 80B5     		push	{r7, lr}
 163              		.cfi_def_cfa_offset 8
 164              		.cfi_offset 7, -8
 165              		.cfi_offset 14, -4
ARM GAS  C:\Users\jdrd3\AppData\Local\Temp\ccIQ0Pfc.s 			page 7


 166 0002 00AF     		add	r7, sp, #0
 167              		.cfi_def_cfa_register 7
 178:Generated_Source\PSoC4/I2COLED_SCBCLK.c ****     return (uint16)((I2COLED_SCBCLK_DIV_REG & I2COLED_SCBCLK_DIV_INT_MASK)
 168              		.loc 1 178 0
 169 0004 024B     		ldr	r3, .L12
 170 0006 1B68     		ldr	r3, [r3]
 171 0008 9BB2     		uxth	r3, r3
 179:Generated_Source\PSoC4/I2COLED_SCBCLK.c ****         >> I2COLED_SCBCLK_DIV_INT_SHIFT);
 180:Generated_Source\PSoC4/I2COLED_SCBCLK.c **** }
 172              		.loc 1 180 0
 173 000a 1800     		movs	r0, r3
 174 000c BD46     		mov	sp, r7
 175              		@ sp needed
 176 000e 80BD     		pop	{r7, pc}
 177              	.L13:
 178              		.align	2
 179              	.L12:
 180 0010 00000240 		.word	1073872896
 181              		.cfi_endproc
 182              	.LFE3:
 183              		.size	I2COLED_SCBCLK_GetDividerRegister, .-I2COLED_SCBCLK_GetDividerRegister
 184              		.section	.text.I2COLED_SCBCLK_GetFractionalDividerRegister,"ax",%progbits
 185              		.align	2
 186              		.global	I2COLED_SCBCLK_GetFractionalDividerRegister
 187              		.code	16
 188              		.thumb_func
 189              		.type	I2COLED_SCBCLK_GetFractionalDividerRegister, %function
 190              	I2COLED_SCBCLK_GetFractionalDividerRegister:
 191              	.LFB4:
 181:Generated_Source\PSoC4/I2COLED_SCBCLK.c **** 
 182:Generated_Source\PSoC4/I2COLED_SCBCLK.c **** 
 183:Generated_Source\PSoC4/I2COLED_SCBCLK.c **** /*******************************************************************************
 184:Generated_Source\PSoC4/I2COLED_SCBCLK.c **** * Function Name: I2COLED_SCBCLK_GetFractionalDividerRegister
 185:Generated_Source\PSoC4/I2COLED_SCBCLK.c **** ********************************************************************************
 186:Generated_Source\PSoC4/I2COLED_SCBCLK.c **** *
 187:Generated_Source\PSoC4/I2COLED_SCBCLK.c **** * Summary:
 188:Generated_Source\PSoC4/I2COLED_SCBCLK.c **** *  Gets the clock fractional divider register value.
 189:Generated_Source\PSoC4/I2COLED_SCBCLK.c **** *
 190:Generated_Source\PSoC4/I2COLED_SCBCLK.c **** * Parameters:
 191:Generated_Source\PSoC4/I2COLED_SCBCLK.c **** *  None
 192:Generated_Source\PSoC4/I2COLED_SCBCLK.c **** *
 193:Generated_Source\PSoC4/I2COLED_SCBCLK.c **** * Returns:
 194:Generated_Source\PSoC4/I2COLED_SCBCLK.c **** *  Fractional Divide value of the clock
 195:Generated_Source\PSoC4/I2COLED_SCBCLK.c **** *  0 if the fractional divider is not in use.
 196:Generated_Source\PSoC4/I2COLED_SCBCLK.c **** *
 197:Generated_Source\PSoC4/I2COLED_SCBCLK.c **** *******************************************************************************/
 198:Generated_Source\PSoC4/I2COLED_SCBCLK.c **** uint8 I2COLED_SCBCLK_GetFractionalDividerRegister(void)
 199:Generated_Source\PSoC4/I2COLED_SCBCLK.c **** {
 192              		.loc 1 199 0
 193              		.cfi_startproc
 194              		@ args = 0, pretend = 0, frame = 0
 195              		@ frame_needed = 1, uses_anonymous_args = 0
 196 0000 80B5     		push	{r7, lr}
 197              		.cfi_def_cfa_offset 8
 198              		.cfi_offset 7, -8
 199              		.cfi_offset 14, -4
 200 0002 00AF     		add	r7, sp, #0
ARM GAS  C:\Users\jdrd3\AppData\Local\Temp\ccIQ0Pfc.s 			page 8


 201              		.cfi_def_cfa_register 7
 200:Generated_Source\PSoC4/I2COLED_SCBCLK.c **** #if defined (I2COLED_SCBCLK__FRAC_MASK)
 201:Generated_Source\PSoC4/I2COLED_SCBCLK.c ****     /* return fractional divider bits */
 202:Generated_Source\PSoC4/I2COLED_SCBCLK.c ****     return (uint8)((I2COLED_SCBCLK_DIV_REG & I2COLED_SCBCLK_DIV_FRAC_MASK)
 203:Generated_Source\PSoC4/I2COLED_SCBCLK.c ****         >> I2COLED_SCBCLK_DIV_FRAC_SHIFT);
 204:Generated_Source\PSoC4/I2COLED_SCBCLK.c **** #else
 205:Generated_Source\PSoC4/I2COLED_SCBCLK.c ****     return 0u;
 202              		.loc 1 205 0
 203 0004 0023     		movs	r3, #0
 206:Generated_Source\PSoC4/I2COLED_SCBCLK.c **** #endif /* I2COLED_SCBCLK__FRAC_MASK */
 207:Generated_Source\PSoC4/I2COLED_SCBCLK.c **** }
 204              		.loc 1 207 0
 205 0006 1800     		movs	r0, r3
 206 0008 BD46     		mov	sp, r7
 207              		@ sp needed
 208 000a 80BD     		pop	{r7, pc}
 209              		.cfi_endproc
 210              	.LFE4:
 211              		.size	I2COLED_SCBCLK_GetFractionalDividerRegister, .-I2COLED_SCBCLK_GetFractionalDividerRegister
 212              		.text
 213              	.Letext0:
 214              		.file 2 "Generated_Source\\PSoC4/cytypes.h"