ARM GAS  C:\Users\jdrd3\AppData\Local\Temp\cc4sc8Gf.s 			page 1


   1              		.syntax unified
   2              		.cpu cortex-m0
   3              		.fpu softvfp
   4              		.eabi_attribute 20, 1
   5              		.eabi_attribute 21, 1
   6              		.eabi_attribute 23, 3
   7              		.eabi_attribute 24, 1
   8              		.eabi_attribute 25, 1
   9              		.eabi_attribute 26, 1
  10              		.eabi_attribute 30, 6
  11              		.eabi_attribute 34, 0
  12              		.eabi_attribute 18, 4
  13              		.thumb
  14              		.syntax unified
  15              		.file	"I2COLED.c"
  16              		.text
  17              	.Ltext0:
  18              		.cfi_sections	.debug_frame
  19              		.global	I2COLED_initVar
  20              		.bss
  21              		.type	I2COLED_initVar, %object
  22              		.size	I2COLED_initVar, 1
  23              	I2COLED_initVar:
  24 0000 00       		.space	1
  25              		.global	I2COLED_customIntrHandler
  26 0001 000000   		.align	2
  27              		.type	I2COLED_customIntrHandler, %object
  28              		.size	I2COLED_customIntrHandler, 4
  29              	I2COLED_customIntrHandler:
  30 0004 00000000 		.space	4
  31              		.section	.text.I2COLED_Init,"ax",%progbits
  32              		.align	2
  33              		.global	I2COLED_Init
  34              		.code	16
  35              		.thumb_func
  36              		.type	I2COLED_Init, %function
  37              	I2COLED_Init:
  38              	.LFB0:
  39              		.file 1 "Generated_Source\\PSoC4\\I2COLED.c"
   1:Generated_Source\PSoC4/I2COLED.c **** /*******************************************************************************
   2:Generated_Source\PSoC4/I2COLED.c **** * File Name: I2COLED.c
   3:Generated_Source\PSoC4/I2COLED.c **** * Version 2.0
   4:Generated_Source\PSoC4/I2COLED.c **** *
   5:Generated_Source\PSoC4/I2COLED.c **** * Description:
   6:Generated_Source\PSoC4/I2COLED.c **** *  This file provides the source code to the API for the SCB Component.
   7:Generated_Source\PSoC4/I2COLED.c **** *
   8:Generated_Source\PSoC4/I2COLED.c **** * Note:
   9:Generated_Source\PSoC4/I2COLED.c **** *
  10:Generated_Source\PSoC4/I2COLED.c **** *******************************************************************************
  11:Generated_Source\PSoC4/I2COLED.c **** * Copyright 2013-2014, Cypress Semiconductor Corporation.  All rights reserved.
  12:Generated_Source\PSoC4/I2COLED.c **** * You may use this file only in accordance with the license, terms, conditions,
  13:Generated_Source\PSoC4/I2COLED.c **** * disclaimers, and limitations in the end user license agreement accompanying
  14:Generated_Source\PSoC4/I2COLED.c **** * the software package with which this file was provided.
  15:Generated_Source\PSoC4/I2COLED.c **** *******************************************************************************/
  16:Generated_Source\PSoC4/I2COLED.c **** 
  17:Generated_Source\PSoC4/I2COLED.c **** #include "I2COLED_PVT.h"
  18:Generated_Source\PSoC4/I2COLED.c **** 
ARM GAS  C:\Users\jdrd3\AppData\Local\Temp\cc4sc8Gf.s 			page 2


  19:Generated_Source\PSoC4/I2COLED.c **** #if(I2COLED_SCB_MODE_I2C_INC)
  20:Generated_Source\PSoC4/I2COLED.c ****     #include "I2COLED_I2C_PVT.h"
  21:Generated_Source\PSoC4/I2COLED.c **** #endif /* (I2COLED_SCB_MODE_I2C_INC) */
  22:Generated_Source\PSoC4/I2COLED.c **** 
  23:Generated_Source\PSoC4/I2COLED.c **** #if(I2COLED_SCB_MODE_EZI2C_INC)
  24:Generated_Source\PSoC4/I2COLED.c ****     #include "I2COLED_EZI2C_PVT.h"
  25:Generated_Source\PSoC4/I2COLED.c **** #endif /* (I2COLED_SCB_MODE_EZI2C_INC) */
  26:Generated_Source\PSoC4/I2COLED.c **** 
  27:Generated_Source\PSoC4/I2COLED.c **** #if(I2COLED_SCB_MODE_SPI_INC || I2COLED_SCB_MODE_UART_INC)
  28:Generated_Source\PSoC4/I2COLED.c ****     #include "I2COLED_SPI_UART_PVT.h"
  29:Generated_Source\PSoC4/I2COLED.c **** #endif /* (I2COLED_SCB_MODE_SPI_INC || I2COLED_SCB_MODE_UART_INC) */
  30:Generated_Source\PSoC4/I2COLED.c **** 
  31:Generated_Source\PSoC4/I2COLED.c **** 
  32:Generated_Source\PSoC4/I2COLED.c **** /***************************************
  33:Generated_Source\PSoC4/I2COLED.c **** *    Run Time Configuration Vars
  34:Generated_Source\PSoC4/I2COLED.c **** ***************************************/
  35:Generated_Source\PSoC4/I2COLED.c **** 
  36:Generated_Source\PSoC4/I2COLED.c **** /* Stores internal component configuration for Unconfigured mode */
  37:Generated_Source\PSoC4/I2COLED.c **** #if(I2COLED_SCB_MODE_UNCONFIG_CONST_CFG)
  38:Generated_Source\PSoC4/I2COLED.c ****     /* Common configuration variables */
  39:Generated_Source\PSoC4/I2COLED.c ****     uint8 I2COLED_scbMode = I2COLED_SCB_MODE_UNCONFIG;
  40:Generated_Source\PSoC4/I2COLED.c ****     uint8 I2COLED_scbEnableWake;
  41:Generated_Source\PSoC4/I2COLED.c ****     uint8 I2COLED_scbEnableIntr;
  42:Generated_Source\PSoC4/I2COLED.c **** 
  43:Generated_Source\PSoC4/I2COLED.c ****     /* I2C configuration variables */
  44:Generated_Source\PSoC4/I2COLED.c ****     uint8 I2COLED_mode;
  45:Generated_Source\PSoC4/I2COLED.c ****     uint8 I2COLED_acceptAddr;
  46:Generated_Source\PSoC4/I2COLED.c **** 
  47:Generated_Source\PSoC4/I2COLED.c ****     /* SPI/UART configuration variables */
  48:Generated_Source\PSoC4/I2COLED.c ****     volatile uint8 * I2COLED_rxBuffer;
  49:Generated_Source\PSoC4/I2COLED.c ****     uint8  I2COLED_rxDataBits;
  50:Generated_Source\PSoC4/I2COLED.c ****     uint32 I2COLED_rxBufferSize;
  51:Generated_Source\PSoC4/I2COLED.c **** 
  52:Generated_Source\PSoC4/I2COLED.c ****     volatile uint8 * I2COLED_txBuffer;
  53:Generated_Source\PSoC4/I2COLED.c ****     uint8  I2COLED_txDataBits;
  54:Generated_Source\PSoC4/I2COLED.c ****     uint32 I2COLED_txBufferSize;
  55:Generated_Source\PSoC4/I2COLED.c **** 
  56:Generated_Source\PSoC4/I2COLED.c ****     /* EZI2C configuration variables */
  57:Generated_Source\PSoC4/I2COLED.c ****     uint8 I2COLED_numberOfAddr;
  58:Generated_Source\PSoC4/I2COLED.c ****     uint8 I2COLED_subAddrSize;
  59:Generated_Source\PSoC4/I2COLED.c **** #endif /* (I2COLED_SCB_MODE_UNCONFIG_CONST_CFG) */
  60:Generated_Source\PSoC4/I2COLED.c **** 
  61:Generated_Source\PSoC4/I2COLED.c **** 
  62:Generated_Source\PSoC4/I2COLED.c **** /***************************************
  63:Generated_Source\PSoC4/I2COLED.c **** *     Common SCB Vars
  64:Generated_Source\PSoC4/I2COLED.c **** ***************************************/
  65:Generated_Source\PSoC4/I2COLED.c **** 
  66:Generated_Source\PSoC4/I2COLED.c **** uint8 I2COLED_initVar = 0u;
  67:Generated_Source\PSoC4/I2COLED.c **** 
  68:Generated_Source\PSoC4/I2COLED.c **** #if !defined (CY_REMOVE_I2COLED_CUSTOM_INTR_HANDLER)
  69:Generated_Source\PSoC4/I2COLED.c ****     cyisraddress I2COLED_customIntrHandler = NULL;
  70:Generated_Source\PSoC4/I2COLED.c **** #endif /* !defined (CY_REMOVE_I2COLED_CUSTOM_INTR_HANDLER) */
  71:Generated_Source\PSoC4/I2COLED.c **** 
  72:Generated_Source\PSoC4/I2COLED.c **** 
  73:Generated_Source\PSoC4/I2COLED.c **** /***************************************
  74:Generated_Source\PSoC4/I2COLED.c **** *    Private Function Prototypes
  75:Generated_Source\PSoC4/I2COLED.c **** ***************************************/
ARM GAS  C:\Users\jdrd3\AppData\Local\Temp\cc4sc8Gf.s 			page 3


  76:Generated_Source\PSoC4/I2COLED.c **** 
  77:Generated_Source\PSoC4/I2COLED.c **** static void I2COLED_ScbEnableIntr(void);
  78:Generated_Source\PSoC4/I2COLED.c **** static void I2COLED_ScbModeStop(void);
  79:Generated_Source\PSoC4/I2COLED.c **** 
  80:Generated_Source\PSoC4/I2COLED.c **** 
  81:Generated_Source\PSoC4/I2COLED.c **** /*******************************************************************************
  82:Generated_Source\PSoC4/I2COLED.c **** * Function Name: I2COLED_Init
  83:Generated_Source\PSoC4/I2COLED.c **** ********************************************************************************
  84:Generated_Source\PSoC4/I2COLED.c **** *
  85:Generated_Source\PSoC4/I2COLED.c **** * Summary:
  86:Generated_Source\PSoC4/I2COLED.c **** *  Initializes the SCB component to operate in one of the selected
  87:Generated_Source\PSoC4/I2COLED.c **** *  configurations: I2C, SPI, UART or EZI2C.
  88:Generated_Source\PSoC4/I2COLED.c **** *  When the configuration is set to "Unconfigured SCB", this function does
  89:Generated_Source\PSoC4/I2COLED.c **** *  not do any initialization. Use mode-specific initialization APIs instead:
  90:Generated_Source\PSoC4/I2COLED.c **** *  SCB_I2CInit, SCB_SpiInit, SCB_UartInit or SCB_EzI2CInit.
  91:Generated_Source\PSoC4/I2COLED.c **** *
  92:Generated_Source\PSoC4/I2COLED.c **** * Parameters:
  93:Generated_Source\PSoC4/I2COLED.c **** *  None
  94:Generated_Source\PSoC4/I2COLED.c **** *
  95:Generated_Source\PSoC4/I2COLED.c **** * Return:
  96:Generated_Source\PSoC4/I2COLED.c **** *  None
  97:Generated_Source\PSoC4/I2COLED.c **** *
  98:Generated_Source\PSoC4/I2COLED.c **** *******************************************************************************/
  99:Generated_Source\PSoC4/I2COLED.c **** void I2COLED_Init(void)
 100:Generated_Source\PSoC4/I2COLED.c **** {
  40              		.loc 1 100 0
  41              		.cfi_startproc
  42              		@ args = 0, pretend = 0, frame = 0
  43              		@ frame_needed = 1, uses_anonymous_args = 0
  44 0000 80B5     		push	{r7, lr}
  45              		.cfi_def_cfa_offset 8
  46              		.cfi_offset 7, -8
  47              		.cfi_offset 14, -4
  48 0002 00AF     		add	r7, sp, #0
  49              		.cfi_def_cfa_register 7
 101:Generated_Source\PSoC4/I2COLED.c **** #if(I2COLED_SCB_MODE_UNCONFIG_CONST_CFG)
 102:Generated_Source\PSoC4/I2COLED.c ****     if(I2COLED_SCB_MODE_UNCONFIG_RUNTM_CFG)
 103:Generated_Source\PSoC4/I2COLED.c ****     {
 104:Generated_Source\PSoC4/I2COLED.c ****         I2COLED_initVar = 0u;
 105:Generated_Source\PSoC4/I2COLED.c ****     }
 106:Generated_Source\PSoC4/I2COLED.c ****     else
 107:Generated_Source\PSoC4/I2COLED.c ****     {
 108:Generated_Source\PSoC4/I2COLED.c ****         /* Initialization was done before this function call */
 109:Generated_Source\PSoC4/I2COLED.c ****     }
 110:Generated_Source\PSoC4/I2COLED.c **** 
 111:Generated_Source\PSoC4/I2COLED.c **** #elif(I2COLED_SCB_MODE_I2C_CONST_CFG)
 112:Generated_Source\PSoC4/I2COLED.c ****     I2COLED_I2CInit();
  50              		.loc 1 112 0
  51 0004 FFF7FEFF 		bl	I2COLED_I2CInit
 113:Generated_Source\PSoC4/I2COLED.c **** 
 114:Generated_Source\PSoC4/I2COLED.c **** #elif(I2COLED_SCB_MODE_SPI_CONST_CFG)
 115:Generated_Source\PSoC4/I2COLED.c ****     I2COLED_SpiInit();
 116:Generated_Source\PSoC4/I2COLED.c **** 
 117:Generated_Source\PSoC4/I2COLED.c **** #elif(I2COLED_SCB_MODE_UART_CONST_CFG)
 118:Generated_Source\PSoC4/I2COLED.c ****     I2COLED_UartInit();
 119:Generated_Source\PSoC4/I2COLED.c **** 
 120:Generated_Source\PSoC4/I2COLED.c **** #elif(I2COLED_SCB_MODE_EZI2C_CONST_CFG)
ARM GAS  C:\Users\jdrd3\AppData\Local\Temp\cc4sc8Gf.s 			page 4


 121:Generated_Source\PSoC4/I2COLED.c ****     I2COLED_EzI2CInit();
 122:Generated_Source\PSoC4/I2COLED.c **** 
 123:Generated_Source\PSoC4/I2COLED.c **** #endif /* (I2COLED_SCB_MODE_UNCONFIG_CONST_CFG) */
 124:Generated_Source\PSoC4/I2COLED.c **** }
  52              		.loc 1 124 0
  53 0008 C046     		nop
  54 000a BD46     		mov	sp, r7
  55              		@ sp needed
  56 000c 80BD     		pop	{r7, pc}
  57              		.cfi_endproc
  58              	.LFE0:
  59              		.size	I2COLED_Init, .-I2COLED_Init
  60 000e C046     		.section	.text.I2COLED_Enable,"ax",%progbits
  61              		.align	2
  62              		.global	I2COLED_Enable
  63              		.code	16
  64              		.thumb_func
  65              		.type	I2COLED_Enable, %function
  66              	I2COLED_Enable:
  67              	.LFB1:
 125:Generated_Source\PSoC4/I2COLED.c **** 
 126:Generated_Source\PSoC4/I2COLED.c **** 
 127:Generated_Source\PSoC4/I2COLED.c **** /*******************************************************************************
 128:Generated_Source\PSoC4/I2COLED.c **** * Function Name: I2COLED_Enable
 129:Generated_Source\PSoC4/I2COLED.c **** ********************************************************************************
 130:Generated_Source\PSoC4/I2COLED.c **** *
 131:Generated_Source\PSoC4/I2COLED.c **** * Summary:
 132:Generated_Source\PSoC4/I2COLED.c **** *  Enables the SCB component operation.
 133:Generated_Source\PSoC4/I2COLED.c **** *  The SCB configuration should be not changed when the component is enabled.
 134:Generated_Source\PSoC4/I2COLED.c **** *  Any configuration changes should be made after disabling the component.
 135:Generated_Source\PSoC4/I2COLED.c **** *
 136:Generated_Source\PSoC4/I2COLED.c **** * Parameters:
 137:Generated_Source\PSoC4/I2COLED.c **** *  None
 138:Generated_Source\PSoC4/I2COLED.c **** *
 139:Generated_Source\PSoC4/I2COLED.c **** * Return:
 140:Generated_Source\PSoC4/I2COLED.c **** *  None
 141:Generated_Source\PSoC4/I2COLED.c **** *
 142:Generated_Source\PSoC4/I2COLED.c **** *******************************************************************************/
 143:Generated_Source\PSoC4/I2COLED.c **** void I2COLED_Enable(void)
 144:Generated_Source\PSoC4/I2COLED.c **** {
  68              		.loc 1 144 0
  69              		.cfi_startproc
  70              		@ args = 0, pretend = 0, frame = 0
  71              		@ frame_needed = 1, uses_anonymous_args = 0
  72 0000 80B5     		push	{r7, lr}
  73              		.cfi_def_cfa_offset 8
  74              		.cfi_offset 7, -8
  75              		.cfi_offset 14, -4
  76 0002 00AF     		add	r7, sp, #0
  77              		.cfi_def_cfa_register 7
 145:Generated_Source\PSoC4/I2COLED.c **** #if(I2COLED_SCB_MODE_UNCONFIG_CONST_CFG)
 146:Generated_Source\PSoC4/I2COLED.c ****     /* Enable SCB block, only if it is already configured */
 147:Generated_Source\PSoC4/I2COLED.c ****     if(!I2COLED_SCB_MODE_UNCONFIG_RUNTM_CFG)
 148:Generated_Source\PSoC4/I2COLED.c ****     {
 149:Generated_Source\PSoC4/I2COLED.c ****         I2COLED_CTRL_REG |= I2COLED_CTRL_ENABLED;
 150:Generated_Source\PSoC4/I2COLED.c **** 
 151:Generated_Source\PSoC4/I2COLED.c ****         I2COLED_ScbEnableIntr();
ARM GAS  C:\Users\jdrd3\AppData\Local\Temp\cc4sc8Gf.s 			page 5


 152:Generated_Source\PSoC4/I2COLED.c ****     }
 153:Generated_Source\PSoC4/I2COLED.c **** #else
 154:Generated_Source\PSoC4/I2COLED.c ****     I2COLED_CTRL_REG |= I2COLED_CTRL_ENABLED;
  78              		.loc 1 154 0
  79 0004 054B     		ldr	r3, .L3
  80 0006 054A     		ldr	r2, .L3
  81 0008 1268     		ldr	r2, [r2]
  82 000a 8021     		movs	r1, #128
  83 000c 0906     		lsls	r1, r1, #24
  84 000e 0A43     		orrs	r2, r1
  85 0010 1A60     		str	r2, [r3]
 155:Generated_Source\PSoC4/I2COLED.c **** 
 156:Generated_Source\PSoC4/I2COLED.c ****     I2COLED_ScbEnableIntr();
  86              		.loc 1 156 0
  87 0012 FFF7FEFF 		bl	I2COLED_ScbEnableIntr
 157:Generated_Source\PSoC4/I2COLED.c **** #endif /* (I2COLED_SCB_MODE_UNCONFIG_CONST_CFG) */
 158:Generated_Source\PSoC4/I2COLED.c **** }
  88              		.loc 1 158 0
  89 0016 C046     		nop
  90 0018 BD46     		mov	sp, r7
  91              		@ sp needed
  92 001a 80BD     		pop	{r7, pc}
  93              	.L4:
  94              		.align	2
  95              	.L3:
  96 001c 00000740 		.word	1074200576
  97              		.cfi_endproc
  98              	.LFE1:
  99              		.size	I2COLED_Enable, .-I2COLED_Enable
 100              		.section	.text.I2COLED_Start,"ax",%progbits
 101              		.align	2
 102              		.global	I2COLED_Start
 103              		.code	16
 104              		.thumb_func
 105              		.type	I2COLED_Start, %function
 106              	I2COLED_Start:
 107              	.LFB2:
 159:Generated_Source\PSoC4/I2COLED.c **** 
 160:Generated_Source\PSoC4/I2COLED.c **** 
 161:Generated_Source\PSoC4/I2COLED.c **** /*******************************************************************************
 162:Generated_Source\PSoC4/I2COLED.c **** * Function Name: I2COLED_Start
 163:Generated_Source\PSoC4/I2COLED.c **** ********************************************************************************
 164:Generated_Source\PSoC4/I2COLED.c **** *
 165:Generated_Source\PSoC4/I2COLED.c **** * Summary:
 166:Generated_Source\PSoC4/I2COLED.c **** *  Invokes SCB_Init() and SCB_Enable().
 167:Generated_Source\PSoC4/I2COLED.c **** *  After this function call, the component is enabled and ready for operation.
 168:Generated_Source\PSoC4/I2COLED.c **** *  When configuration is set to "Unconfigured SCB", the component must first be
 169:Generated_Source\PSoC4/I2COLED.c **** *  initialized to operate in one of the following configurations: I2C, SPI, UART
 170:Generated_Source\PSoC4/I2COLED.c **** *  or EZ I2C. Otherwise this function does not enable the component.
 171:Generated_Source\PSoC4/I2COLED.c **** *
 172:Generated_Source\PSoC4/I2COLED.c **** * Parameters:
 173:Generated_Source\PSoC4/I2COLED.c **** *  None
 174:Generated_Source\PSoC4/I2COLED.c **** *
 175:Generated_Source\PSoC4/I2COLED.c **** * Return:
 176:Generated_Source\PSoC4/I2COLED.c **** *  None
 177:Generated_Source\PSoC4/I2COLED.c **** *
 178:Generated_Source\PSoC4/I2COLED.c **** * Global variables:
ARM GAS  C:\Users\jdrd3\AppData\Local\Temp\cc4sc8Gf.s 			page 6


 179:Generated_Source\PSoC4/I2COLED.c **** *  I2COLED_initVar - used to check initial configuration, modified
 180:Generated_Source\PSoC4/I2COLED.c **** *  on first function call.
 181:Generated_Source\PSoC4/I2COLED.c **** *
 182:Generated_Source\PSoC4/I2COLED.c **** *******************************************************************************/
 183:Generated_Source\PSoC4/I2COLED.c **** void I2COLED_Start(void)
 184:Generated_Source\PSoC4/I2COLED.c **** {
 108              		.loc 1 184 0
 109              		.cfi_startproc
 110              		@ args = 0, pretend = 0, frame = 0
 111              		@ frame_needed = 1, uses_anonymous_args = 0
 112 0000 80B5     		push	{r7, lr}
 113              		.cfi_def_cfa_offset 8
 114              		.cfi_offset 7, -8
 115              		.cfi_offset 14, -4
 116 0002 00AF     		add	r7, sp, #0
 117              		.cfi_def_cfa_register 7
 185:Generated_Source\PSoC4/I2COLED.c ****     if(0u == I2COLED_initVar)
 118              		.loc 1 185 0
 119 0004 064B     		ldr	r3, .L7
 120 0006 1B78     		ldrb	r3, [r3]
 121 0008 002B     		cmp	r3, #0
 122 000a 04D1     		bne	.L6
 186:Generated_Source\PSoC4/I2COLED.c ****     {
 187:Generated_Source\PSoC4/I2COLED.c ****         I2COLED_Init();
 123              		.loc 1 187 0
 124 000c FFF7FEFF 		bl	I2COLED_Init
 188:Generated_Source\PSoC4/I2COLED.c ****         I2COLED_initVar = 1u; /* Component was initialized */
 125              		.loc 1 188 0
 126 0010 034B     		ldr	r3, .L7
 127 0012 0122     		movs	r2, #1
 128 0014 1A70     		strb	r2, [r3]
 129              	.L6:
 189:Generated_Source\PSoC4/I2COLED.c ****     }
 190:Generated_Source\PSoC4/I2COLED.c **** 
 191:Generated_Source\PSoC4/I2COLED.c ****     I2COLED_Enable();
 130              		.loc 1 191 0
 131 0016 FFF7FEFF 		bl	I2COLED_Enable
 192:Generated_Source\PSoC4/I2COLED.c **** }
 132              		.loc 1 192 0
 133 001a C046     		nop
 134 001c BD46     		mov	sp, r7
 135              		@ sp needed
 136 001e 80BD     		pop	{r7, pc}
 137              	.L8:
 138              		.align	2
 139              	.L7:
 140 0020 00000000 		.word	I2COLED_initVar
 141              		.cfi_endproc
 142              	.LFE2:
 143              		.size	I2COLED_Start, .-I2COLED_Start
 144              		.section	.text.I2COLED_Stop,"ax",%progbits
 145              		.align	2
 146              		.global	I2COLED_Stop
 147              		.code	16
 148              		.thumb_func
 149              		.type	I2COLED_Stop, %function
 150              	I2COLED_Stop:
ARM GAS  C:\Users\jdrd3\AppData\Local\Temp\cc4sc8Gf.s 			page 7


 151              	.LFB3:
 193:Generated_Source\PSoC4/I2COLED.c **** 
 194:Generated_Source\PSoC4/I2COLED.c **** 
 195:Generated_Source\PSoC4/I2COLED.c **** /*******************************************************************************
 196:Generated_Source\PSoC4/I2COLED.c **** * Function Name: I2COLED_Stop
 197:Generated_Source\PSoC4/I2COLED.c **** ********************************************************************************
 198:Generated_Source\PSoC4/I2COLED.c **** *
 199:Generated_Source\PSoC4/I2COLED.c **** * Summary:
 200:Generated_Source\PSoC4/I2COLED.c **** *  Disables the SCB component and its interrupt.
 201:Generated_Source\PSoC4/I2COLED.c **** *
 202:Generated_Source\PSoC4/I2COLED.c **** * Parameters:
 203:Generated_Source\PSoC4/I2COLED.c **** *  None
 204:Generated_Source\PSoC4/I2COLED.c **** *
 205:Generated_Source\PSoC4/I2COLED.c **** * Return:
 206:Generated_Source\PSoC4/I2COLED.c **** *  None
 207:Generated_Source\PSoC4/I2COLED.c **** *
 208:Generated_Source\PSoC4/I2COLED.c **** *******************************************************************************/
 209:Generated_Source\PSoC4/I2COLED.c **** void I2COLED_Stop(void)
 210:Generated_Source\PSoC4/I2COLED.c **** {
 152              		.loc 1 210 0
 153              		.cfi_startproc
 154              		@ args = 0, pretend = 0, frame = 0
 155              		@ frame_needed = 1, uses_anonymous_args = 0
 156 0000 80B5     		push	{r7, lr}
 157              		.cfi_def_cfa_offset 8
 158              		.cfi_offset 7, -8
 159              		.cfi_offset 14, -4
 160 0002 00AF     		add	r7, sp, #0
 161              		.cfi_def_cfa_register 7
 211:Generated_Source\PSoC4/I2COLED.c **** #if(I2COLED_SCB_IRQ_INTERNAL)
 212:Generated_Source\PSoC4/I2COLED.c ****     I2COLED_DisableInt();
 162              		.loc 1 212 0
 163 0004 0B20     		movs	r0, #11
 164 0006 FFF7FEFF 		bl	CyIntDisable
 213:Generated_Source\PSoC4/I2COLED.c **** #endif /* (I2COLED_SCB_IRQ_INTERNAL) */
 214:Generated_Source\PSoC4/I2COLED.c **** 
 215:Generated_Source\PSoC4/I2COLED.c ****     I2COLED_CTRL_REG &= (uint32) ~I2COLED_CTRL_ENABLED;  /* Disable scb IP */
 165              		.loc 1 215 0
 166 000a 074B     		ldr	r3, .L10
 167 000c 064A     		ldr	r2, .L10
 168 000e 1268     		ldr	r2, [r2]
 169 0010 5200     		lsls	r2, r2, #1
 170 0012 5208     		lsrs	r2, r2, #1
 171 0014 1A60     		str	r2, [r3]
 216:Generated_Source\PSoC4/I2COLED.c **** 
 217:Generated_Source\PSoC4/I2COLED.c **** #if(I2COLED_SCB_IRQ_INTERNAL)
 218:Generated_Source\PSoC4/I2COLED.c ****     I2COLED_ClearPendingInt();
 172              		.loc 1 218 0
 173 0016 0B20     		movs	r0, #11
 174 0018 FFF7FEFF 		bl	CyIntClearPending
 219:Generated_Source\PSoC4/I2COLED.c **** #endif /* (I2COLED_SCB_IRQ_INTERNAL) */
 220:Generated_Source\PSoC4/I2COLED.c **** 
 221:Generated_Source\PSoC4/I2COLED.c ****     I2COLED_ScbModeStop(); /* Calls scbMode specific Stop function */
 175              		.loc 1 221 0
 176 001c FFF7FEFF 		bl	I2COLED_ScbModeStop
 222:Generated_Source\PSoC4/I2COLED.c **** }
 177              		.loc 1 222 0
ARM GAS  C:\Users\jdrd3\AppData\Local\Temp\cc4sc8Gf.s 			page 8


 178 0020 C046     		nop
 179 0022 BD46     		mov	sp, r7
 180              		@ sp needed
 181 0024 80BD     		pop	{r7, pc}
 182              	.L11:
 183 0026 C046     		.align	2
 184              	.L10:
 185 0028 00000740 		.word	1074200576
 186              		.cfi_endproc
 187              	.LFE3:
 188              		.size	I2COLED_Stop, .-I2COLED_Stop
 189              		.section	.text.I2COLED_SetRxFifoLevel,"ax",%progbits
 190              		.align	2
 191              		.global	I2COLED_SetRxFifoLevel
 192              		.code	16
 193              		.thumb_func
 194              		.type	I2COLED_SetRxFifoLevel, %function
 195              	I2COLED_SetRxFifoLevel:
 196              	.LFB4:
 223:Generated_Source\PSoC4/I2COLED.c **** 
 224:Generated_Source\PSoC4/I2COLED.c **** 
 225:Generated_Source\PSoC4/I2COLED.c **** /*******************************************************************************
 226:Generated_Source\PSoC4/I2COLED.c **** * Function Name: I2COLED_SetRxFifoLevel
 227:Generated_Source\PSoC4/I2COLED.c **** ********************************************************************************
 228:Generated_Source\PSoC4/I2COLED.c **** *
 229:Generated_Source\PSoC4/I2COLED.c **** * Summary:
 230:Generated_Source\PSoC4/I2COLED.c **** *  Sets level in the RX FIFO to generate a RX level interrupt.
 231:Generated_Source\PSoC4/I2COLED.c **** *  When the RX FIFO has more entries than the RX FIFO level an RX level
 232:Generated_Source\PSoC4/I2COLED.c **** *  interrupt request is generated.
 233:Generated_Source\PSoC4/I2COLED.c **** *
 234:Generated_Source\PSoC4/I2COLED.c **** * Parameters:
 235:Generated_Source\PSoC4/I2COLED.c **** *  level: Level in the RX FIFO to generate RX level interrupt.
 236:Generated_Source\PSoC4/I2COLED.c **** *         The range of valid level values is between 0 and RX FIFO depth - 1.
 237:Generated_Source\PSoC4/I2COLED.c **** *
 238:Generated_Source\PSoC4/I2COLED.c **** * Return:
 239:Generated_Source\PSoC4/I2COLED.c **** *  None
 240:Generated_Source\PSoC4/I2COLED.c **** *
 241:Generated_Source\PSoC4/I2COLED.c **** *******************************************************************************/
 242:Generated_Source\PSoC4/I2COLED.c **** void I2COLED_SetRxFifoLevel(uint32 level)
 243:Generated_Source\PSoC4/I2COLED.c **** {
 197              		.loc 1 243 0
 198              		.cfi_startproc
 199              		@ args = 0, pretend = 0, frame = 16
 200              		@ frame_needed = 1, uses_anonymous_args = 0
 201 0000 80B5     		push	{r7, lr}
 202              		.cfi_def_cfa_offset 8
 203              		.cfi_offset 7, -8
 204              		.cfi_offset 14, -4
 205 0002 84B0     		sub	sp, sp, #16
 206              		.cfi_def_cfa_offset 24
 207 0004 00AF     		add	r7, sp, #0
 208              		.cfi_def_cfa_register 7
 209 0006 7860     		str	r0, [r7, #4]
 244:Generated_Source\PSoC4/I2COLED.c ****     uint32 rxFifoCtrl;
 245:Generated_Source\PSoC4/I2COLED.c **** 
 246:Generated_Source\PSoC4/I2COLED.c ****     rxFifoCtrl = I2COLED_RX_FIFO_CTRL_REG;
 210              		.loc 1 246 0
ARM GAS  C:\Users\jdrd3\AppData\Local\Temp\cc4sc8Gf.s 			page 9


 211 0008 094B     		ldr	r3, .L13
 212 000a 1B68     		ldr	r3, [r3]
 213 000c FB60     		str	r3, [r7, #12]
 247:Generated_Source\PSoC4/I2COLED.c **** 
 248:Generated_Source\PSoC4/I2COLED.c ****     rxFifoCtrl &= ((uint32) ~I2COLED_RX_FIFO_CTRL_TRIGGER_LEVEL_MASK); /* Clear level mask bits */
 214              		.loc 1 248 0
 215 000e FB68     		ldr	r3, [r7, #12]
 216 0010 0722     		movs	r2, #7
 217 0012 9343     		bics	r3, r2
 218 0014 FB60     		str	r3, [r7, #12]
 249:Generated_Source\PSoC4/I2COLED.c ****     rxFifoCtrl |= ((uint32) (I2COLED_RX_FIFO_CTRL_TRIGGER_LEVEL_MASK & level));
 219              		.loc 1 249 0
 220 0016 7B68     		ldr	r3, [r7, #4]
 221 0018 0722     		movs	r2, #7
 222 001a 1340     		ands	r3, r2
 223 001c FA68     		ldr	r2, [r7, #12]
 224 001e 1343     		orrs	r3, r2
 225 0020 FB60     		str	r3, [r7, #12]
 250:Generated_Source\PSoC4/I2COLED.c **** 
 251:Generated_Source\PSoC4/I2COLED.c ****     I2COLED_RX_FIFO_CTRL_REG = rxFifoCtrl;
 226              		.loc 1 251 0
 227 0022 034B     		ldr	r3, .L13
 228 0024 FA68     		ldr	r2, [r7, #12]
 229 0026 1A60     		str	r2, [r3]
 252:Generated_Source\PSoC4/I2COLED.c **** }
 230              		.loc 1 252 0
 231 0028 C046     		nop
 232 002a BD46     		mov	sp, r7
 233 002c 04B0     		add	sp, sp, #16
 234              		@ sp needed
 235 002e 80BD     		pop	{r7, pc}
 236              	.L14:
 237              		.align	2
 238              	.L13:
 239 0030 04030740 		.word	1074201348
 240              		.cfi_endproc
 241              	.LFE4:
 242              		.size	I2COLED_SetRxFifoLevel, .-I2COLED_SetRxFifoLevel
 243              		.section	.text.I2COLED_SetTxFifoLevel,"ax",%progbits
 244              		.align	2
 245              		.global	I2COLED_SetTxFifoLevel
 246              		.code	16
 247              		.thumb_func
 248              		.type	I2COLED_SetTxFifoLevel, %function
 249              	I2COLED_SetTxFifoLevel:
 250              	.LFB5:
 253:Generated_Source\PSoC4/I2COLED.c **** 
 254:Generated_Source\PSoC4/I2COLED.c **** 
 255:Generated_Source\PSoC4/I2COLED.c **** /*******************************************************************************
 256:Generated_Source\PSoC4/I2COLED.c **** * Function Name: I2COLED_SetTxFifoLevel
 257:Generated_Source\PSoC4/I2COLED.c **** ********************************************************************************
 258:Generated_Source\PSoC4/I2COLED.c **** *
 259:Generated_Source\PSoC4/I2COLED.c **** * Summary:
 260:Generated_Source\PSoC4/I2COLED.c **** *  Sets level in the TX FIFO to generate a TX level interrupt.
 261:Generated_Source\PSoC4/I2COLED.c **** *  When the TX FIFO has more entries than the TX FIFO level an TX level
 262:Generated_Source\PSoC4/I2COLED.c **** *  interrupt request is generated.
 263:Generated_Source\PSoC4/I2COLED.c **** *
ARM GAS  C:\Users\jdrd3\AppData\Local\Temp\cc4sc8Gf.s 			page 10


 264:Generated_Source\PSoC4/I2COLED.c **** * Parameters:
 265:Generated_Source\PSoC4/I2COLED.c **** *  level: Level in the TX FIFO to generate TX level interrupt.
 266:Generated_Source\PSoC4/I2COLED.c **** *         The range of valid level values is between 0 and TX FIFO depth - 1.
 267:Generated_Source\PSoC4/I2COLED.c **** *
 268:Generated_Source\PSoC4/I2COLED.c **** * Return:
 269:Generated_Source\PSoC4/I2COLED.c **** *  None
 270:Generated_Source\PSoC4/I2COLED.c **** *
 271:Generated_Source\PSoC4/I2COLED.c **** *******************************************************************************/
 272:Generated_Source\PSoC4/I2COLED.c **** void I2COLED_SetTxFifoLevel(uint32 level)
 273:Generated_Source\PSoC4/I2COLED.c **** {
 251              		.loc 1 273 0
 252              		.cfi_startproc
 253              		@ args = 0, pretend = 0, frame = 16
 254              		@ frame_needed = 1, uses_anonymous_args = 0
 255 0000 80B5     		push	{r7, lr}
 256              		.cfi_def_cfa_offset 8
 257              		.cfi_offset 7, -8
 258              		.cfi_offset 14, -4
 259 0002 84B0     		sub	sp, sp, #16
 260              		.cfi_def_cfa_offset 24
 261 0004 00AF     		add	r7, sp, #0
 262              		.cfi_def_cfa_register 7
 263 0006 7860     		str	r0, [r7, #4]
 274:Generated_Source\PSoC4/I2COLED.c ****     uint32 txFifoCtrl;
 275:Generated_Source\PSoC4/I2COLED.c **** 
 276:Generated_Source\PSoC4/I2COLED.c ****     txFifoCtrl = I2COLED_TX_FIFO_CTRL_REG;
 264              		.loc 1 276 0
 265 0008 094B     		ldr	r3, .L16
 266 000a 1B68     		ldr	r3, [r3]
 267 000c FB60     		str	r3, [r7, #12]
 277:Generated_Source\PSoC4/I2COLED.c **** 
 278:Generated_Source\PSoC4/I2COLED.c ****     txFifoCtrl &= ((uint32) ~I2COLED_TX_FIFO_CTRL_TRIGGER_LEVEL_MASK); /* Clear level mask bits */
 268              		.loc 1 278 0
 269 000e FB68     		ldr	r3, [r7, #12]
 270 0010 0722     		movs	r2, #7
 271 0012 9343     		bics	r3, r2
 272 0014 FB60     		str	r3, [r7, #12]
 279:Generated_Source\PSoC4/I2COLED.c ****     txFifoCtrl |= ((uint32) (I2COLED_TX_FIFO_CTRL_TRIGGER_LEVEL_MASK & level));
 273              		.loc 1 279 0
 274 0016 7B68     		ldr	r3, [r7, #4]
 275 0018 0722     		movs	r2, #7
 276 001a 1340     		ands	r3, r2
 277 001c FA68     		ldr	r2, [r7, #12]
 278 001e 1343     		orrs	r3, r2
 279 0020 FB60     		str	r3, [r7, #12]
 280:Generated_Source\PSoC4/I2COLED.c **** 
 281:Generated_Source\PSoC4/I2COLED.c ****     I2COLED_TX_FIFO_CTRL_REG = txFifoCtrl;
 280              		.loc 1 281 0
 281 0022 034B     		ldr	r3, .L16
 282 0024 FA68     		ldr	r2, [r7, #12]
 283 0026 1A60     		str	r2, [r3]
 282:Generated_Source\PSoC4/I2COLED.c **** }
 284              		.loc 1 282 0
 285 0028 C046     		nop
 286 002a BD46     		mov	sp, r7
 287 002c 04B0     		add	sp, sp, #16
 288              		@ sp needed
ARM GAS  C:\Users\jdrd3\AppData\Local\Temp\cc4sc8Gf.s 			page 11


 289 002e 80BD     		pop	{r7, pc}
 290              	.L17:
 291              		.align	2
 292              	.L16:
 293 0030 04020740 		.word	1074201092
 294              		.cfi_endproc
 295              	.LFE5:
 296              		.size	I2COLED_SetTxFifoLevel, .-I2COLED_SetTxFifoLevel
 297              		.section	.text.I2COLED_SetCustomInterruptHandler,"ax",%progbits
 298              		.align	2
 299              		.global	I2COLED_SetCustomInterruptHandler
 300              		.code	16
 301              		.thumb_func
 302              		.type	I2COLED_SetCustomInterruptHandler, %function
 303              	I2COLED_SetCustomInterruptHandler:
 304              	.LFB6:
 283:Generated_Source\PSoC4/I2COLED.c **** 
 284:Generated_Source\PSoC4/I2COLED.c **** 
 285:Generated_Source\PSoC4/I2COLED.c **** /*******************************************************************************
 286:Generated_Source\PSoC4/I2COLED.c **** * Function Name: I2COLED_SetCustomInterruptHandler
 287:Generated_Source\PSoC4/I2COLED.c **** ********************************************************************************
 288:Generated_Source\PSoC4/I2COLED.c **** *
 289:Generated_Source\PSoC4/I2COLED.c **** * Summary:
 290:Generated_Source\PSoC4/I2COLED.c **** *  Registers a function to be called by the internal interrupt handler.
 291:Generated_Source\PSoC4/I2COLED.c **** *  First the function that is registered is called, then the internal interrupt
 292:Generated_Source\PSoC4/I2COLED.c **** *  handler performs any operation such as software buffer management functions
 293:Generated_Source\PSoC4/I2COLED.c **** *  before the interrupt returns.  It is the user's responsibility not to break
 294:Generated_Source\PSoC4/I2COLED.c **** *  the software buffer operations. Only one custom handler is supported, which
 295:Generated_Source\PSoC4/I2COLED.c **** *  is the function provided by the most recent call.
 296:Generated_Source\PSoC4/I2COLED.c **** *  At the initialization time no custom handler is registered.
 297:Generated_Source\PSoC4/I2COLED.c **** *
 298:Generated_Source\PSoC4/I2COLED.c **** * Parameters:
 299:Generated_Source\PSoC4/I2COLED.c **** *  func: Pointer to the function to register.
 300:Generated_Source\PSoC4/I2COLED.c **** *        The value NULL indicates to remove the current custom interrupt
 301:Generated_Source\PSoC4/I2COLED.c **** *        handler.
 302:Generated_Source\PSoC4/I2COLED.c **** *
 303:Generated_Source\PSoC4/I2COLED.c **** * Return:
 304:Generated_Source\PSoC4/I2COLED.c **** *  None
 305:Generated_Source\PSoC4/I2COLED.c **** *
 306:Generated_Source\PSoC4/I2COLED.c **** *******************************************************************************/
 307:Generated_Source\PSoC4/I2COLED.c **** void I2COLED_SetCustomInterruptHandler(cyisraddress func)
 308:Generated_Source\PSoC4/I2COLED.c **** {
 305              		.loc 1 308 0
 306              		.cfi_startproc
 307              		@ args = 0, pretend = 0, frame = 8
 308              		@ frame_needed = 1, uses_anonymous_args = 0
 309 0000 80B5     		push	{r7, lr}
 310              		.cfi_def_cfa_offset 8
 311              		.cfi_offset 7, -8
 312              		.cfi_offset 14, -4
 313 0002 82B0     		sub	sp, sp, #8
 314              		.cfi_def_cfa_offset 16
 315 0004 00AF     		add	r7, sp, #0
 316              		.cfi_def_cfa_register 7
 317 0006 7860     		str	r0, [r7, #4]
 309:Generated_Source\PSoC4/I2COLED.c **** #if !defined (CY_REMOVE_I2COLED_CUSTOM_INTR_HANDLER)
 310:Generated_Source\PSoC4/I2COLED.c ****     I2COLED_customIntrHandler = func; /* Register interrupt handler */
ARM GAS  C:\Users\jdrd3\AppData\Local\Temp\cc4sc8Gf.s 			page 12


 318              		.loc 1 310 0
 319 0008 034B     		ldr	r3, .L19
 320 000a 7A68     		ldr	r2, [r7, #4]
 321 000c 1A60     		str	r2, [r3]
 311:Generated_Source\PSoC4/I2COLED.c **** #else
 312:Generated_Source\PSoC4/I2COLED.c ****     if(NULL != func)
 313:Generated_Source\PSoC4/I2COLED.c ****     {
 314:Generated_Source\PSoC4/I2COLED.c ****         /* Suppress compiler warning */
 315:Generated_Source\PSoC4/I2COLED.c ****     }
 316:Generated_Source\PSoC4/I2COLED.c **** #endif /* !defined (CY_REMOVE_I2COLED_CUSTOM_INTR_HANDLER) */
 317:Generated_Source\PSoC4/I2COLED.c **** }
 322              		.loc 1 317 0
 323 000e C046     		nop
 324 0010 BD46     		mov	sp, r7
 325 0012 02B0     		add	sp, sp, #8
 326              		@ sp needed
 327 0014 80BD     		pop	{r7, pc}
 328              	.L20:
 329 0016 C046     		.align	2
 330              	.L19:
 331 0018 00000000 		.word	I2COLED_customIntrHandler
 332              		.cfi_endproc
 333              	.LFE6:
 334              		.size	I2COLED_SetCustomInterruptHandler, .-I2COLED_SetCustomInterruptHandler
 335              		.section	.text.I2COLED_ScbEnableIntr,"ax",%progbits
 336              		.align	2
 337              		.code	16
 338              		.thumb_func
 339              		.type	I2COLED_ScbEnableIntr, %function
 340              	I2COLED_ScbEnableIntr:
 341              	.LFB7:
 318:Generated_Source\PSoC4/I2COLED.c **** 
 319:Generated_Source\PSoC4/I2COLED.c **** 
 320:Generated_Source\PSoC4/I2COLED.c **** /*******************************************************************************
 321:Generated_Source\PSoC4/I2COLED.c **** * Function Name: I2COLED_ScbModeEnableIntr
 322:Generated_Source\PSoC4/I2COLED.c **** ********************************************************************************
 323:Generated_Source\PSoC4/I2COLED.c **** *
 324:Generated_Source\PSoC4/I2COLED.c **** * Summary:
 325:Generated_Source\PSoC4/I2COLED.c **** *  Enables an interrupt for a specific mode.
 326:Generated_Source\PSoC4/I2COLED.c **** *
 327:Generated_Source\PSoC4/I2COLED.c **** * Parameters:
 328:Generated_Source\PSoC4/I2COLED.c **** *  None
 329:Generated_Source\PSoC4/I2COLED.c **** *
 330:Generated_Source\PSoC4/I2COLED.c **** * Return:
 331:Generated_Source\PSoC4/I2COLED.c **** *  None
 332:Generated_Source\PSoC4/I2COLED.c **** *
 333:Generated_Source\PSoC4/I2COLED.c **** *******************************************************************************/
 334:Generated_Source\PSoC4/I2COLED.c **** static void I2COLED_ScbEnableIntr(void)
 335:Generated_Source\PSoC4/I2COLED.c **** {
 342              		.loc 1 335 0
 343              		.cfi_startproc
 344              		@ args = 0, pretend = 0, frame = 0
 345              		@ frame_needed = 1, uses_anonymous_args = 0
 346 0000 80B5     		push	{r7, lr}
 347              		.cfi_def_cfa_offset 8
 348              		.cfi_offset 7, -8
 349              		.cfi_offset 14, -4
ARM GAS  C:\Users\jdrd3\AppData\Local\Temp\cc4sc8Gf.s 			page 13


 350 0002 00AF     		add	r7, sp, #0
 351              		.cfi_def_cfa_register 7
 336:Generated_Source\PSoC4/I2COLED.c **** #if(I2COLED_SCB_IRQ_INTERNAL)
 337:Generated_Source\PSoC4/I2COLED.c ****     #if(I2COLED_SCB_MODE_UNCONFIG_CONST_CFG)
 338:Generated_Source\PSoC4/I2COLED.c ****         /* Enable interrupt in NVIC */
 339:Generated_Source\PSoC4/I2COLED.c ****         if(0u != I2COLED_scbEnableIntr)
 340:Generated_Source\PSoC4/I2COLED.c ****         {
 341:Generated_Source\PSoC4/I2COLED.c ****             I2COLED_EnableInt();
 342:Generated_Source\PSoC4/I2COLED.c ****         }
 343:Generated_Source\PSoC4/I2COLED.c ****     #else
 344:Generated_Source\PSoC4/I2COLED.c ****         I2COLED_EnableInt();
 352              		.loc 1 344 0
 353 0004 0B20     		movs	r0, #11
 354 0006 FFF7FEFF 		bl	CyIntEnable
 345:Generated_Source\PSoC4/I2COLED.c **** 
 346:Generated_Source\PSoC4/I2COLED.c ****     #endif /* (I2COLED_SCB_MODE_UNCONFIG_CONST_CFG) */
 347:Generated_Source\PSoC4/I2COLED.c **** #endif /* (I2COLED_SCB_IRQ_INTERNAL) */
 348:Generated_Source\PSoC4/I2COLED.c **** }
 355              		.loc 1 348 0
 356 000a C046     		nop
 357 000c BD46     		mov	sp, r7
 358              		@ sp needed
 359 000e 80BD     		pop	{r7, pc}
 360              		.cfi_endproc
 361              	.LFE7:
 362              		.size	I2COLED_ScbEnableIntr, .-I2COLED_ScbEnableIntr
 363              		.section	.text.I2COLED_ScbModeStop,"ax",%progbits
 364              		.align	2
 365              		.code	16
 366              		.thumb_func
 367              		.type	I2COLED_ScbModeStop, %function
 368              	I2COLED_ScbModeStop:
 369              	.LFB8:
 349:Generated_Source\PSoC4/I2COLED.c **** 
 350:Generated_Source\PSoC4/I2COLED.c **** 
 351:Generated_Source\PSoC4/I2COLED.c **** /*******************************************************************************
 352:Generated_Source\PSoC4/I2COLED.c **** * Function Name: I2COLED_ScbModeStop
 353:Generated_Source\PSoC4/I2COLED.c **** ********************************************************************************
 354:Generated_Source\PSoC4/I2COLED.c **** *
 355:Generated_Source\PSoC4/I2COLED.c **** * Summary:
 356:Generated_Source\PSoC4/I2COLED.c **** *  Calls the Stop function for a specific operation mode.
 357:Generated_Source\PSoC4/I2COLED.c **** *
 358:Generated_Source\PSoC4/I2COLED.c **** * Parameters:
 359:Generated_Source\PSoC4/I2COLED.c **** *  None
 360:Generated_Source\PSoC4/I2COLED.c **** *
 361:Generated_Source\PSoC4/I2COLED.c **** * Return:
 362:Generated_Source\PSoC4/I2COLED.c **** *  None
 363:Generated_Source\PSoC4/I2COLED.c **** *
 364:Generated_Source\PSoC4/I2COLED.c **** *******************************************************************************/
 365:Generated_Source\PSoC4/I2COLED.c **** static void I2COLED_ScbModeStop(void)
 366:Generated_Source\PSoC4/I2COLED.c **** {
 370              		.loc 1 366 0
 371              		.cfi_startproc
 372              		@ args = 0, pretend = 0, frame = 0
 373              		@ frame_needed = 1, uses_anonymous_args = 0
 374 0000 80B5     		push	{r7, lr}
 375              		.cfi_def_cfa_offset 8
ARM GAS  C:\Users\jdrd3\AppData\Local\Temp\cc4sc8Gf.s 			page 14


 376              		.cfi_offset 7, -8
 377              		.cfi_offset 14, -4
 378 0002 00AF     		add	r7, sp, #0
 379              		.cfi_def_cfa_register 7
 367:Generated_Source\PSoC4/I2COLED.c **** #if(I2COLED_SCB_MODE_UNCONFIG_CONST_CFG)
 368:Generated_Source\PSoC4/I2COLED.c ****     if(I2COLED_SCB_MODE_I2C_RUNTM_CFG)
 369:Generated_Source\PSoC4/I2COLED.c ****     {
 370:Generated_Source\PSoC4/I2COLED.c ****         I2COLED_I2CStop();
 371:Generated_Source\PSoC4/I2COLED.c ****     }
 372:Generated_Source\PSoC4/I2COLED.c ****     else if (I2COLED_SCB_MODE_EZI2C_RUNTM_CFG)
 373:Generated_Source\PSoC4/I2COLED.c ****     {
 374:Generated_Source\PSoC4/I2COLED.c ****         I2COLED_EzI2CStop();
 375:Generated_Source\PSoC4/I2COLED.c ****     }
 376:Generated_Source\PSoC4/I2COLED.c **** #if (!I2COLED_CY_SCBIP_V1)
 377:Generated_Source\PSoC4/I2COLED.c ****     else if (I2COLED_SCB_MODE_UART_RUNTM_CFG)
 378:Generated_Source\PSoC4/I2COLED.c ****     {
 379:Generated_Source\PSoC4/I2COLED.c ****         I2COLED_UartStop();
 380:Generated_Source\PSoC4/I2COLED.c ****     }
 381:Generated_Source\PSoC4/I2COLED.c **** #endif /* (!I2COLED_CY_SCBIP_V1) */
 382:Generated_Source\PSoC4/I2COLED.c ****     else
 383:Generated_Source\PSoC4/I2COLED.c ****     {
 384:Generated_Source\PSoC4/I2COLED.c ****         /* Do nothing for other modes */
 385:Generated_Source\PSoC4/I2COLED.c ****     }
 386:Generated_Source\PSoC4/I2COLED.c **** #elif(I2COLED_SCB_MODE_I2C_CONST_CFG)
 387:Generated_Source\PSoC4/I2COLED.c ****     I2COLED_I2CStop();
 380              		.loc 1 387 0
 381 0004 FFF7FEFF 		bl	I2COLED_I2CStop
 388:Generated_Source\PSoC4/I2COLED.c **** 
 389:Generated_Source\PSoC4/I2COLED.c **** #elif(I2COLED_SCB_MODE_EZI2C_CONST_CFG)
 390:Generated_Source\PSoC4/I2COLED.c ****     I2COLED_EzI2CStop();
 391:Generated_Source\PSoC4/I2COLED.c **** 
 392:Generated_Source\PSoC4/I2COLED.c **** #elif(I2COLED_SCB_MODE_UART_CONST_CFG)
 393:Generated_Source\PSoC4/I2COLED.c ****     I2COLED_UartStop();
 394:Generated_Source\PSoC4/I2COLED.c **** 
 395:Generated_Source\PSoC4/I2COLED.c **** #endif /* (I2COLED_SCB_MODE_UNCONFIG_CONST_CFG) */
 396:Generated_Source\PSoC4/I2COLED.c **** }
 382              		.loc 1 396 0
 383 0008 C046     		nop
 384 000a BD46     		mov	sp, r7
 385              		@ sp needed
 386 000c 80BD     		pop	{r7, pc}
 387              		.cfi_endproc
 388              	.LFE8:
 389              		.size	I2COLED_ScbModeStop, .-I2COLED_ScbModeStop
 390 000e C046     		.section	.text.I2COLED_I2CSlaveNackGeneration,"ax",%progbits
 391              		.align	2
 392              		.global	I2COLED_I2CSlaveNackGeneration
 393              		.code	16
 394              		.thumb_func
 395              		.type	I2COLED_I2CSlaveNackGeneration, %function
 396              	I2COLED_I2CSlaveNackGeneration:
 397              	.LFB9:
 397:Generated_Source\PSoC4/I2COLED.c **** 
 398:Generated_Source\PSoC4/I2COLED.c **** 
 399:Generated_Source\PSoC4/I2COLED.c **** #if(I2COLED_SCB_MODE_UNCONFIG_CONST_CFG)
 400:Generated_Source\PSoC4/I2COLED.c ****     /*******************************************************************************
 401:Generated_Source\PSoC4/I2COLED.c ****     * Function Name: I2COLED_SetPins
ARM GAS  C:\Users\jdrd3\AppData\Local\Temp\cc4sc8Gf.s 			page 15


 402:Generated_Source\PSoC4/I2COLED.c ****     ********************************************************************************
 403:Generated_Source\PSoC4/I2COLED.c ****     *
 404:Generated_Source\PSoC4/I2COLED.c ****     * Summary:
 405:Generated_Source\PSoC4/I2COLED.c ****     *  Sets the pins settings accordingly to the selected operation mode.
 406:Generated_Source\PSoC4/I2COLED.c ****     *  Only available in the Unconfigured operation mode. The mode specific
 407:Generated_Source\PSoC4/I2COLED.c ****     *  initialization function calls it.
 408:Generated_Source\PSoC4/I2COLED.c ****     *  Pins configuration is set by PSoC Creator when a specific mode of operation
 409:Generated_Source\PSoC4/I2COLED.c ****     *  is selected in design time.
 410:Generated_Source\PSoC4/I2COLED.c ****     *
 411:Generated_Source\PSoC4/I2COLED.c ****     * Parameters:
 412:Generated_Source\PSoC4/I2COLED.c ****     *  mode:      Mode of SCB operation.
 413:Generated_Source\PSoC4/I2COLED.c ****     *  subMode:   Sub-mode of SCB operation. It is only required for SPI and UART
 414:Generated_Source\PSoC4/I2COLED.c ****     *             modes.
 415:Generated_Source\PSoC4/I2COLED.c ****     *  uartEnableMask: enables TX or RX direction and RTS and CTS signals.
 416:Generated_Source\PSoC4/I2COLED.c ****     *
 417:Generated_Source\PSoC4/I2COLED.c ****     * Return:
 418:Generated_Source\PSoC4/I2COLED.c ****     *  None
 419:Generated_Source\PSoC4/I2COLED.c ****     *
 420:Generated_Source\PSoC4/I2COLED.c ****     *******************************************************************************/
 421:Generated_Source\PSoC4/I2COLED.c ****     void I2COLED_SetPins(uint32 mode, uint32 subMode, uint32 uartEnableMask)
 422:Generated_Source\PSoC4/I2COLED.c ****     {
 423:Generated_Source\PSoC4/I2COLED.c ****         uint32 hsiomSel [I2COLED_SCB_PINS_NUMBER];
 424:Generated_Source\PSoC4/I2COLED.c ****         uint32 pinsDm   [I2COLED_SCB_PINS_NUMBER];
 425:Generated_Source\PSoC4/I2COLED.c **** 
 426:Generated_Source\PSoC4/I2COLED.c ****     #if (!I2COLED_CY_SCBIP_V1)
 427:Generated_Source\PSoC4/I2COLED.c ****         uint32 pinsInBuf = 0u;
 428:Generated_Source\PSoC4/I2COLED.c ****     #endif /* (!I2COLED_CY_SCBIP_V1) */
 429:Generated_Source\PSoC4/I2COLED.c **** 
 430:Generated_Source\PSoC4/I2COLED.c ****         uint32 i;
 431:Generated_Source\PSoC4/I2COLED.c **** 
 432:Generated_Source\PSoC4/I2COLED.c ****         /* Set default HSIOM to GPIO and Drive Mode to Analog Hi-Z */
 433:Generated_Source\PSoC4/I2COLED.c ****         for(i = 0u; i < I2COLED_SCB_PINS_NUMBER; i++)
 434:Generated_Source\PSoC4/I2COLED.c ****         {
 435:Generated_Source\PSoC4/I2COLED.c ****             hsiomSel[i]  = I2COLED_HSIOM_DEF_SEL;
 436:Generated_Source\PSoC4/I2COLED.c ****             pinsDm[i]    = I2COLED_PIN_DM_ALG_HIZ;
 437:Generated_Source\PSoC4/I2COLED.c ****         }
 438:Generated_Source\PSoC4/I2COLED.c **** 
 439:Generated_Source\PSoC4/I2COLED.c ****         if((I2COLED_SCB_MODE_I2C   == mode) ||
 440:Generated_Source\PSoC4/I2COLED.c ****            (I2COLED_SCB_MODE_EZI2C == mode))
 441:Generated_Source\PSoC4/I2COLED.c ****         {
 442:Generated_Source\PSoC4/I2COLED.c ****             hsiomSel[I2COLED_MOSI_SCL_RX_PIN_INDEX] = I2COLED_HSIOM_I2C_SEL;
 443:Generated_Source\PSoC4/I2COLED.c ****             hsiomSel[I2COLED_MISO_SDA_TX_PIN_INDEX] = I2COLED_HSIOM_I2C_SEL;
 444:Generated_Source\PSoC4/I2COLED.c **** 
 445:Generated_Source\PSoC4/I2COLED.c ****             pinsDm[I2COLED_MOSI_SCL_RX_PIN_INDEX] = I2COLED_PIN_DM_OD_LO;
 446:Generated_Source\PSoC4/I2COLED.c ****             pinsDm[I2COLED_MISO_SDA_TX_PIN_INDEX] = I2COLED_PIN_DM_OD_LO;
 447:Generated_Source\PSoC4/I2COLED.c ****         }
 448:Generated_Source\PSoC4/I2COLED.c ****     #if (!I2COLED_CY_SCBIP_V1)
 449:Generated_Source\PSoC4/I2COLED.c ****         else if(I2COLED_SCB_MODE_SPI == mode)
 450:Generated_Source\PSoC4/I2COLED.c ****         {
 451:Generated_Source\PSoC4/I2COLED.c ****             hsiomSel[I2COLED_MOSI_SCL_RX_PIN_INDEX] = I2COLED_HSIOM_SPI_SEL;
 452:Generated_Source\PSoC4/I2COLED.c ****             hsiomSel[I2COLED_MISO_SDA_TX_PIN_INDEX] = I2COLED_HSIOM_SPI_SEL;
 453:Generated_Source\PSoC4/I2COLED.c ****             hsiomSel[I2COLED_SCLK_PIN_INDEX]        = I2COLED_HSIOM_SPI_SEL;
 454:Generated_Source\PSoC4/I2COLED.c **** 
 455:Generated_Source\PSoC4/I2COLED.c ****             if(I2COLED_SPI_SLAVE == subMode)
 456:Generated_Source\PSoC4/I2COLED.c ****             {
 457:Generated_Source\PSoC4/I2COLED.c ****                 /* Slave */
 458:Generated_Source\PSoC4/I2COLED.c ****                 pinsDm[I2COLED_MOSI_SCL_RX_PIN_INDEX] = I2COLED_PIN_DM_DIG_HIZ;
ARM GAS  C:\Users\jdrd3\AppData\Local\Temp\cc4sc8Gf.s 			page 16


 459:Generated_Source\PSoC4/I2COLED.c ****                 pinsDm[I2COLED_MISO_SDA_TX_PIN_INDEX] = I2COLED_PIN_DM_STRONG;
 460:Generated_Source\PSoC4/I2COLED.c ****                 pinsDm[I2COLED_SCLK_PIN_INDEX]        = I2COLED_PIN_DM_DIG_HIZ;
 461:Generated_Source\PSoC4/I2COLED.c **** 
 462:Generated_Source\PSoC4/I2COLED.c ****             #if(I2COLED_SS0_PIN)
 463:Generated_Source\PSoC4/I2COLED.c ****                 /* Only SS0 is valid choice for Slave */
 464:Generated_Source\PSoC4/I2COLED.c ****                 hsiomSel[I2COLED_SS0_PIN_INDEX] = I2COLED_HSIOM_SPI_SEL;
 465:Generated_Source\PSoC4/I2COLED.c ****                 pinsDm  [I2COLED_SS0_PIN_INDEX] = I2COLED_PIN_DM_DIG_HIZ;
 466:Generated_Source\PSoC4/I2COLED.c ****             #endif /* (I2COLED_SS1_PIN) */
 467:Generated_Source\PSoC4/I2COLED.c **** 
 468:Generated_Source\PSoC4/I2COLED.c ****             #if(I2COLED_MISO_SDA_TX_PIN)
 469:Generated_Source\PSoC4/I2COLED.c ****                 /* Disable input buffer */
 470:Generated_Source\PSoC4/I2COLED.c ****                  pinsInBuf |= I2COLED_MISO_SDA_TX_PIN_MASK;
 471:Generated_Source\PSoC4/I2COLED.c ****             #endif /* (I2COLED_MISO_SDA_TX_PIN_PIN) */
 472:Generated_Source\PSoC4/I2COLED.c ****             }
 473:Generated_Source\PSoC4/I2COLED.c ****             else /* (Master) */
 474:Generated_Source\PSoC4/I2COLED.c ****             {
 475:Generated_Source\PSoC4/I2COLED.c ****                 pinsDm[I2COLED_MOSI_SCL_RX_PIN_INDEX] = I2COLED_PIN_DM_STRONG;
 476:Generated_Source\PSoC4/I2COLED.c ****                 pinsDm[I2COLED_MISO_SDA_TX_PIN_INDEX] = I2COLED_PIN_DM_DIG_HIZ;
 477:Generated_Source\PSoC4/I2COLED.c ****                 pinsDm[I2COLED_SCLK_PIN_INDEX]        = I2COLED_PIN_DM_STRONG;
 478:Generated_Source\PSoC4/I2COLED.c **** 
 479:Generated_Source\PSoC4/I2COLED.c ****             #if(I2COLED_SS0_PIN)
 480:Generated_Source\PSoC4/I2COLED.c ****                 hsiomSel [I2COLED_SS0_PIN_INDEX] = I2COLED_HSIOM_SPI_SEL;
 481:Generated_Source\PSoC4/I2COLED.c ****                 pinsDm   [I2COLED_SS0_PIN_INDEX] = I2COLED_PIN_DM_STRONG;
 482:Generated_Source\PSoC4/I2COLED.c ****                 pinsInBuf                                |= I2COLED_SS0_PIN_MASK;
 483:Generated_Source\PSoC4/I2COLED.c ****             #endif /* (I2COLED_SS0_PIN) */
 484:Generated_Source\PSoC4/I2COLED.c **** 
 485:Generated_Source\PSoC4/I2COLED.c ****             #if(I2COLED_SS1_PIN)
 486:Generated_Source\PSoC4/I2COLED.c ****                 hsiomSel [I2COLED_SS1_PIN_INDEX] = I2COLED_HSIOM_SPI_SEL;
 487:Generated_Source\PSoC4/I2COLED.c ****                 pinsDm   [I2COLED_SS1_PIN_INDEX] = I2COLED_PIN_DM_STRONG;
 488:Generated_Source\PSoC4/I2COLED.c ****                 pinsInBuf                                |= I2COLED_SS1_PIN_MASK;
 489:Generated_Source\PSoC4/I2COLED.c ****             #endif /* (I2COLED_SS1_PIN) */
 490:Generated_Source\PSoC4/I2COLED.c **** 
 491:Generated_Source\PSoC4/I2COLED.c ****             #if(I2COLED_SS2_PIN)
 492:Generated_Source\PSoC4/I2COLED.c ****                 hsiomSel [I2COLED_SS2_PIN_INDEX] = I2COLED_HSIOM_SPI_SEL;
 493:Generated_Source\PSoC4/I2COLED.c ****                 pinsDm   [I2COLED_SS2_PIN_INDEX] = I2COLED_PIN_DM_STRONG;
 494:Generated_Source\PSoC4/I2COLED.c ****                 pinsInBuf                                |= I2COLED_SS2_PIN_MASK;
 495:Generated_Source\PSoC4/I2COLED.c ****             #endif /* (I2COLED_SS2_PIN) */
 496:Generated_Source\PSoC4/I2COLED.c **** 
 497:Generated_Source\PSoC4/I2COLED.c ****             #if(I2COLED_SS3_PIN)
 498:Generated_Source\PSoC4/I2COLED.c ****                 hsiomSel [I2COLED_SS3_PIN_INDEX] = I2COLED_HSIOM_SPI_SEL;
 499:Generated_Source\PSoC4/I2COLED.c ****                 pinsDm   [I2COLED_SS3_PIN_INDEX] = I2COLED_PIN_DM_STRONG;
 500:Generated_Source\PSoC4/I2COLED.c ****                 pinsInBuf                                |= I2COLED_SS3_PIN_MASK;
 501:Generated_Source\PSoC4/I2COLED.c ****             #endif /* (I2COLED_SS2_PIN) */
 502:Generated_Source\PSoC4/I2COLED.c **** 
 503:Generated_Source\PSoC4/I2COLED.c ****                 /* Disable input buffers */
 504:Generated_Source\PSoC4/I2COLED.c ****             #if(I2COLED_MOSI_SCL_RX_PIN)
 505:Generated_Source\PSoC4/I2COLED.c ****                 pinsInBuf |= I2COLED_MOSI_SCL_RX_PIN_MASK;
 506:Generated_Source\PSoC4/I2COLED.c ****             #endif /* (I2COLED_MOSI_SCL_RX_PIN) */
 507:Generated_Source\PSoC4/I2COLED.c **** 
 508:Generated_Source\PSoC4/I2COLED.c ****              #if(I2COLED_MOSI_SCL_RX_WAKE_PIN)
 509:Generated_Source\PSoC4/I2COLED.c ****                 pinsInBuf |= I2COLED_MOSI_SCL_RX_WAKE_PIN_MASK;
 510:Generated_Source\PSoC4/I2COLED.c ****             #endif /* (I2COLED_MOSI_SCL_RX_WAKE_PIN) */
 511:Generated_Source\PSoC4/I2COLED.c **** 
 512:Generated_Source\PSoC4/I2COLED.c ****             #if(I2COLED_SCLK_PIN)
 513:Generated_Source\PSoC4/I2COLED.c ****                 pinsInBuf |= I2COLED_SCLK_PIN_MASK;
 514:Generated_Source\PSoC4/I2COLED.c ****             #endif /* (I2COLED_SCLK_PIN) */
 515:Generated_Source\PSoC4/I2COLED.c ****             }
ARM GAS  C:\Users\jdrd3\AppData\Local\Temp\cc4sc8Gf.s 			page 17


 516:Generated_Source\PSoC4/I2COLED.c ****         }
 517:Generated_Source\PSoC4/I2COLED.c ****         else /* UART */
 518:Generated_Source\PSoC4/I2COLED.c ****         {
 519:Generated_Source\PSoC4/I2COLED.c ****             if(I2COLED_UART_MODE_SMARTCARD == subMode)
 520:Generated_Source\PSoC4/I2COLED.c ****             {
 521:Generated_Source\PSoC4/I2COLED.c ****                 /* SmartCard */
 522:Generated_Source\PSoC4/I2COLED.c ****                 hsiomSel[I2COLED_MISO_SDA_TX_PIN_INDEX] = I2COLED_HSIOM_UART_SEL;
 523:Generated_Source\PSoC4/I2COLED.c ****                 pinsDm  [I2COLED_MISO_SDA_TX_PIN_INDEX] = I2COLED_PIN_DM_OD_LO;
 524:Generated_Source\PSoC4/I2COLED.c ****             }
 525:Generated_Source\PSoC4/I2COLED.c ****             else /* Standard or IrDA */
 526:Generated_Source\PSoC4/I2COLED.c ****             {
 527:Generated_Source\PSoC4/I2COLED.c ****                 if(0u != (I2COLED_UART_RX_PIN_ENABLE & uartEnableMask))
 528:Generated_Source\PSoC4/I2COLED.c ****                 {
 529:Generated_Source\PSoC4/I2COLED.c ****                     hsiomSel[I2COLED_MOSI_SCL_RX_PIN_INDEX] = I2COLED_HSIOM_UART_SEL;
 530:Generated_Source\PSoC4/I2COLED.c ****                     pinsDm  [I2COLED_MOSI_SCL_RX_PIN_INDEX] = I2COLED_PIN_DM_DIG_HIZ;
 531:Generated_Source\PSoC4/I2COLED.c ****                 }
 532:Generated_Source\PSoC4/I2COLED.c **** 
 533:Generated_Source\PSoC4/I2COLED.c ****                 if(0u != (I2COLED_UART_TX_PIN_ENABLE & uartEnableMask))
 534:Generated_Source\PSoC4/I2COLED.c ****                 {
 535:Generated_Source\PSoC4/I2COLED.c ****                     hsiomSel[I2COLED_MISO_SDA_TX_PIN_INDEX] = I2COLED_HSIOM_UART_SEL;
 536:Generated_Source\PSoC4/I2COLED.c ****                     pinsDm  [I2COLED_MISO_SDA_TX_PIN_INDEX] = I2COLED_PIN_DM_STRONG;
 537:Generated_Source\PSoC4/I2COLED.c **** 
 538:Generated_Source\PSoC4/I2COLED.c ****                 #if(I2COLED_MISO_SDA_TX_PIN)
 539:Generated_Source\PSoC4/I2COLED.c ****                      pinsInBuf |= I2COLED_MISO_SDA_TX_PIN_MASK;
 540:Generated_Source\PSoC4/I2COLED.c ****                 #endif /* (I2COLED_MISO_SDA_TX_PIN_PIN) */
 541:Generated_Source\PSoC4/I2COLED.c ****                 }
 542:Generated_Source\PSoC4/I2COLED.c **** 
 543:Generated_Source\PSoC4/I2COLED.c ****             #if !(I2COLED_CY_SCBIP_V0 || I2COLED_CY_SCBIP_V1)
 544:Generated_Source\PSoC4/I2COLED.c ****                 if(I2COLED_UART_MODE_STD == subMode)
 545:Generated_Source\PSoC4/I2COLED.c ****                 {
 546:Generated_Source\PSoC4/I2COLED.c ****                     if(0u != (I2COLED_UART_CTS_PIN_ENABLE & uartEnableMask))
 547:Generated_Source\PSoC4/I2COLED.c ****                     {
 548:Generated_Source\PSoC4/I2COLED.c ****                         /* CTS input is multiplexed with SCLK */
 549:Generated_Source\PSoC4/I2COLED.c ****                         hsiomSel[I2COLED_SCLK_PIN_INDEX] = I2COLED_HSIOM_UART_SEL;
 550:Generated_Source\PSoC4/I2COLED.c ****                         pinsDm  [I2COLED_SCLK_PIN_INDEX] = I2COLED_PIN_DM_DIG_HIZ;
 551:Generated_Source\PSoC4/I2COLED.c ****                     }
 552:Generated_Source\PSoC4/I2COLED.c **** 
 553:Generated_Source\PSoC4/I2COLED.c ****                     if(0u != (I2COLED_UART_RTS_PIN_ENABLE & uartEnableMask))
 554:Generated_Source\PSoC4/I2COLED.c ****                     {
 555:Generated_Source\PSoC4/I2COLED.c ****                         /* RTS output is multiplexed with SS0 */
 556:Generated_Source\PSoC4/I2COLED.c ****                         hsiomSel[I2COLED_SS0_PIN_INDEX] = I2COLED_HSIOM_UART_SEL;
 557:Generated_Source\PSoC4/I2COLED.c ****                         pinsDm  [I2COLED_SS0_PIN_INDEX] = I2COLED_PIN_DM_STRONG;
 558:Generated_Source\PSoC4/I2COLED.c **** 
 559:Generated_Source\PSoC4/I2COLED.c ****                     #if(I2COLED_SS0_PIN)
 560:Generated_Source\PSoC4/I2COLED.c ****                         /* Disable input buffer */
 561:Generated_Source\PSoC4/I2COLED.c ****                         pinsInBuf |= I2COLED_SS0_PIN_MASK;
 562:Generated_Source\PSoC4/I2COLED.c ****                     #endif /* (I2COLED_SS0_PIN) */
 563:Generated_Source\PSoC4/I2COLED.c ****                     }
 564:Generated_Source\PSoC4/I2COLED.c ****                 }
 565:Generated_Source\PSoC4/I2COLED.c ****             #endif /* !(I2COLED_CY_SCBIP_V0 || I2COLED_CY_SCBIP_V1) */
 566:Generated_Source\PSoC4/I2COLED.c ****             }
 567:Generated_Source\PSoC4/I2COLED.c ****         }
 568:Generated_Source\PSoC4/I2COLED.c ****     #endif /* (!I2COLED_CY_SCBIP_V1) */
 569:Generated_Source\PSoC4/I2COLED.c **** 
 570:Generated_Source\PSoC4/I2COLED.c ****     /* Configure pins: set HSIOM, DM and InputBufEnable */
 571:Generated_Source\PSoC4/I2COLED.c ****     /* Note: the DR register settings do not effect the pin output if HSIOM is other than GPIO */
 572:Generated_Source\PSoC4/I2COLED.c **** 
ARM GAS  C:\Users\jdrd3\AppData\Local\Temp\cc4sc8Gf.s 			page 18


 573:Generated_Source\PSoC4/I2COLED.c ****     #if(I2COLED_MOSI_SCL_RX_PIN)
 574:Generated_Source\PSoC4/I2COLED.c ****         I2COLED_SET_HSIOM_SEL(I2COLED_MOSI_SCL_RX_HSIOM_REG,
 575:Generated_Source\PSoC4/I2COLED.c ****                                        I2COLED_MOSI_SCL_RX_HSIOM_MASK,
 576:Generated_Source\PSoC4/I2COLED.c ****                                        I2COLED_MOSI_SCL_RX_HSIOM_POS,
 577:Generated_Source\PSoC4/I2COLED.c ****                                        hsiomSel[I2COLED_MOSI_SCL_RX_PIN_INDEX]);
 578:Generated_Source\PSoC4/I2COLED.c **** 
 579:Generated_Source\PSoC4/I2COLED.c ****         I2COLED_spi_mosi_i2c_scl_uart_rx_SetDriveMode((uint8) pinsDm[I2COLED_MOSI_SCL_RX_PIN_INDEX]
 580:Generated_Source\PSoC4/I2COLED.c **** 
 581:Generated_Source\PSoC4/I2COLED.c ****     #if (!I2COLED_CY_SCBIP_V1)
 582:Generated_Source\PSoC4/I2COLED.c ****         I2COLED_SET_INP_DIS(I2COLED_spi_mosi_i2c_scl_uart_rx_INP_DIS,
 583:Generated_Source\PSoC4/I2COLED.c ****                                      I2COLED_spi_mosi_i2c_scl_uart_rx_MASK,
 584:Generated_Source\PSoC4/I2COLED.c ****                                      (0u != (pinsInBuf & I2COLED_MOSI_SCL_RX_PIN_MASK)));
 585:Generated_Source\PSoC4/I2COLED.c ****     #endif /* (!I2COLED_CY_SCBIP_V1) */
 586:Generated_Source\PSoC4/I2COLED.c ****     #endif /* (I2COLED_MOSI_SCL_RX_PIN) */
 587:Generated_Source\PSoC4/I2COLED.c **** 
 588:Generated_Source\PSoC4/I2COLED.c ****     #if(I2COLED_MOSI_SCL_RX_WAKE_PIN)
 589:Generated_Source\PSoC4/I2COLED.c ****         I2COLED_SET_HSIOM_SEL(I2COLED_MOSI_SCL_RX_WAKE_HSIOM_REG,
 590:Generated_Source\PSoC4/I2COLED.c ****                                        I2COLED_MOSI_SCL_RX_WAKE_HSIOM_MASK,
 591:Generated_Source\PSoC4/I2COLED.c ****                                        I2COLED_MOSI_SCL_RX_WAKE_HSIOM_POS,
 592:Generated_Source\PSoC4/I2COLED.c ****                                        hsiomSel[I2COLED_MOSI_SCL_RX_WAKE_PIN_INDEX]);
 593:Generated_Source\PSoC4/I2COLED.c **** 
 594:Generated_Source\PSoC4/I2COLED.c ****         I2COLED_spi_mosi_i2c_scl_uart_rx_wake_SetDriveMode((uint8)
 595:Generated_Source\PSoC4/I2COLED.c ****                                                                pinsDm[I2COLED_MOSI_SCL_RX_WAKE_PIN_
 596:Generated_Source\PSoC4/I2COLED.c **** 
 597:Generated_Source\PSoC4/I2COLED.c ****         I2COLED_SET_INP_DIS(I2COLED_spi_mosi_i2c_scl_uart_rx_wake_INP_DIS,
 598:Generated_Source\PSoC4/I2COLED.c ****                                      I2COLED_spi_mosi_i2c_scl_uart_rx_wake_MASK,
 599:Generated_Source\PSoC4/I2COLED.c ****                                      (0u != (pinsInBuf & I2COLED_MOSI_SCL_RX_WAKE_PIN_MASK)));
 600:Generated_Source\PSoC4/I2COLED.c **** 
 601:Generated_Source\PSoC4/I2COLED.c ****          /* Set interrupt on falling edge */
 602:Generated_Source\PSoC4/I2COLED.c ****         I2COLED_SET_INCFG_TYPE(I2COLED_MOSI_SCL_RX_WAKE_INTCFG_REG,
 603:Generated_Source\PSoC4/I2COLED.c ****                                         I2COLED_MOSI_SCL_RX_WAKE_INTCFG_TYPE_MASK,
 604:Generated_Source\PSoC4/I2COLED.c ****                                         I2COLED_MOSI_SCL_RX_WAKE_INTCFG_TYPE_POS,
 605:Generated_Source\PSoC4/I2COLED.c ****                                         I2COLED_INTCFG_TYPE_FALLING_EDGE);
 606:Generated_Source\PSoC4/I2COLED.c ****     #endif /* (I2COLED_MOSI_SCL_RX_WAKE_PIN) */
 607:Generated_Source\PSoC4/I2COLED.c **** 
 608:Generated_Source\PSoC4/I2COLED.c ****     #if(I2COLED_MISO_SDA_TX_PIN)
 609:Generated_Source\PSoC4/I2COLED.c ****         I2COLED_SET_HSIOM_SEL(I2COLED_MISO_SDA_TX_HSIOM_REG,
 610:Generated_Source\PSoC4/I2COLED.c ****                                        I2COLED_MISO_SDA_TX_HSIOM_MASK,
 611:Generated_Source\PSoC4/I2COLED.c ****                                        I2COLED_MISO_SDA_TX_HSIOM_POS,
 612:Generated_Source\PSoC4/I2COLED.c ****                                        hsiomSel[I2COLED_MISO_SDA_TX_PIN_INDEX]);
 613:Generated_Source\PSoC4/I2COLED.c **** 
 614:Generated_Source\PSoC4/I2COLED.c ****         I2COLED_spi_miso_i2c_sda_uart_tx_SetDriveMode((uint8) pinsDm[I2COLED_MISO_SDA_TX_PIN_INDEX]
 615:Generated_Source\PSoC4/I2COLED.c **** 
 616:Generated_Source\PSoC4/I2COLED.c ****     #if (!I2COLED_CY_SCBIP_V1)
 617:Generated_Source\PSoC4/I2COLED.c ****         I2COLED_SET_INP_DIS(I2COLED_spi_miso_i2c_sda_uart_tx_INP_DIS,
 618:Generated_Source\PSoC4/I2COLED.c ****                                      I2COLED_spi_miso_i2c_sda_uart_tx_MASK,
 619:Generated_Source\PSoC4/I2COLED.c ****                                     (0u != (pinsInBuf & I2COLED_MISO_SDA_TX_PIN_MASK)));
 620:Generated_Source\PSoC4/I2COLED.c ****     #endif /* (!I2COLED_CY_SCBIP_V1) */
 621:Generated_Source\PSoC4/I2COLED.c ****     #endif /* (I2COLED_MOSI_SCL_RX_PIN) */
 622:Generated_Source\PSoC4/I2COLED.c **** 
 623:Generated_Source\PSoC4/I2COLED.c ****     #if(I2COLED_SCLK_PIN)
 624:Generated_Source\PSoC4/I2COLED.c ****         I2COLED_SET_HSIOM_SEL(I2COLED_SCLK_HSIOM_REG, I2COLED_SCLK_HSIOM_MASK,
 625:Generated_Source\PSoC4/I2COLED.c ****                                        I2COLED_SCLK_HSIOM_POS, hsiomSel[I2COLED_SCLK_PIN_INDEX]);
 626:Generated_Source\PSoC4/I2COLED.c **** 
 627:Generated_Source\PSoC4/I2COLED.c ****         I2COLED_spi_sclk_SetDriveMode((uint8) pinsDm[I2COLED_SCLK_PIN_INDEX]);
 628:Generated_Source\PSoC4/I2COLED.c **** 
 629:Generated_Source\PSoC4/I2COLED.c ****         I2COLED_SET_INP_DIS(I2COLED_spi_sclk_INP_DIS,
ARM GAS  C:\Users\jdrd3\AppData\Local\Temp\cc4sc8Gf.s 			page 19


 630:Generated_Source\PSoC4/I2COLED.c ****                                      I2COLED_spi_sclk_MASK,
 631:Generated_Source\PSoC4/I2COLED.c ****                                      (0u != (pinsInBuf & I2COLED_SCLK_PIN_MASK)));
 632:Generated_Source\PSoC4/I2COLED.c ****     #endif /* (I2COLED_SCLK_PIN) */
 633:Generated_Source\PSoC4/I2COLED.c **** 
 634:Generated_Source\PSoC4/I2COLED.c ****     #if(I2COLED_SS0_PIN)
 635:Generated_Source\PSoC4/I2COLED.c ****         I2COLED_SET_HSIOM_SEL(I2COLED_SS0_HSIOM_REG, I2COLED_SS0_HSIOM_MASK,
 636:Generated_Source\PSoC4/I2COLED.c ****                                        I2COLED_SS0_HSIOM_POS, hsiomSel[I2COLED_SS0_PIN_INDEX]);
 637:Generated_Source\PSoC4/I2COLED.c **** 
 638:Generated_Source\PSoC4/I2COLED.c ****         I2COLED_spi_ss0_SetDriveMode((uint8) pinsDm[I2COLED_SS0_PIN_INDEX]);
 639:Generated_Source\PSoC4/I2COLED.c **** 
 640:Generated_Source\PSoC4/I2COLED.c ****         I2COLED_SET_INP_DIS(I2COLED_spi_ss0_INP_DIS,
 641:Generated_Source\PSoC4/I2COLED.c ****                                      I2COLED_spi_ss0_MASK,
 642:Generated_Source\PSoC4/I2COLED.c ****                                      (0u != (pinsInBuf & I2COLED_SS0_PIN_MASK)));
 643:Generated_Source\PSoC4/I2COLED.c ****     #endif /* (I2COLED_SS1_PIN) */
 644:Generated_Source\PSoC4/I2COLED.c **** 
 645:Generated_Source\PSoC4/I2COLED.c ****     #if(I2COLED_SS1_PIN)
 646:Generated_Source\PSoC4/I2COLED.c ****         I2COLED_SET_HSIOM_SEL(I2COLED_SS1_HSIOM_REG, I2COLED_SS1_HSIOM_MASK,
 647:Generated_Source\PSoC4/I2COLED.c ****                                        I2COLED_SS1_HSIOM_POS, hsiomSel[I2COLED_SS1_PIN_INDEX]);
 648:Generated_Source\PSoC4/I2COLED.c **** 
 649:Generated_Source\PSoC4/I2COLED.c ****         I2COLED_spi_ss1_SetDriveMode((uint8) pinsDm[I2COLED_SS1_PIN_INDEX]);
 650:Generated_Source\PSoC4/I2COLED.c **** 
 651:Generated_Source\PSoC4/I2COLED.c ****         I2COLED_SET_INP_DIS(I2COLED_spi_ss1_INP_DIS,
 652:Generated_Source\PSoC4/I2COLED.c ****                                      I2COLED_spi_ss1_MASK,
 653:Generated_Source\PSoC4/I2COLED.c ****                                      (0u != (pinsInBuf & I2COLED_SS1_PIN_MASK)));
 654:Generated_Source\PSoC4/I2COLED.c ****     #endif /* (I2COLED_SS1_PIN) */
 655:Generated_Source\PSoC4/I2COLED.c **** 
 656:Generated_Source\PSoC4/I2COLED.c ****     #if(I2COLED_SS2_PIN)
 657:Generated_Source\PSoC4/I2COLED.c ****         I2COLED_SET_HSIOM_SEL(I2COLED_SS2_HSIOM_REG, I2COLED_SS2_HSIOM_MASK,
 658:Generated_Source\PSoC4/I2COLED.c ****                                        I2COLED_SS2_HSIOM_POS, hsiomSel[I2COLED_SS2_PIN_INDEX]);
 659:Generated_Source\PSoC4/I2COLED.c **** 
 660:Generated_Source\PSoC4/I2COLED.c ****         I2COLED_spi_ss2_SetDriveMode((uint8) pinsDm[I2COLED_SS2_PIN_INDEX]);
 661:Generated_Source\PSoC4/I2COLED.c **** 
 662:Generated_Source\PSoC4/I2COLED.c ****         I2COLED_SET_INP_DIS(I2COLED_spi_ss2_INP_DIS,
 663:Generated_Source\PSoC4/I2COLED.c ****                                      I2COLED_spi_ss2_MASK,
 664:Generated_Source\PSoC4/I2COLED.c ****                                      (0u != (pinsInBuf & I2COLED_SS2_PIN_MASK)));
 665:Generated_Source\PSoC4/I2COLED.c ****     #endif /* (I2COLED_SS2_PIN) */
 666:Generated_Source\PSoC4/I2COLED.c **** 
 667:Generated_Source\PSoC4/I2COLED.c ****     #if(I2COLED_SS3_PIN)
 668:Generated_Source\PSoC4/I2COLED.c ****         I2COLED_SET_HSIOM_SEL(I2COLED_SS3_HSIOM_REG,  I2COLED_SS3_HSIOM_MASK,
 669:Generated_Source\PSoC4/I2COLED.c ****                                        I2COLED_SS3_HSIOM_POS, hsiomSel[I2COLED_SS3_PIN_INDEX]);
 670:Generated_Source\PSoC4/I2COLED.c **** 
 671:Generated_Source\PSoC4/I2COLED.c ****         I2COLED_spi_ss3_SetDriveMode((uint8) pinsDm[I2COLED_SS3_PIN_INDEX]);
 672:Generated_Source\PSoC4/I2COLED.c **** 
 673:Generated_Source\PSoC4/I2COLED.c ****         I2COLED_SET_INP_DIS(I2COLED_spi_ss3_INP_DIS,
 674:Generated_Source\PSoC4/I2COLED.c ****                                      I2COLED_spi_ss3_MASK,
 675:Generated_Source\PSoC4/I2COLED.c ****                                      (0u != (pinsInBuf & I2COLED_SS3_PIN_MASK)));
 676:Generated_Source\PSoC4/I2COLED.c ****     #endif /* (I2COLED_SS3_PIN) */
 677:Generated_Source\PSoC4/I2COLED.c ****     }
 678:Generated_Source\PSoC4/I2COLED.c **** 
 679:Generated_Source\PSoC4/I2COLED.c **** #endif /* (I2COLED_SCB_MODE_UNCONFIG_CONST_CFG) */
 680:Generated_Source\PSoC4/I2COLED.c **** 
 681:Generated_Source\PSoC4/I2COLED.c **** 
 682:Generated_Source\PSoC4/I2COLED.c **** #if (I2COLED_CY_SCBIP_V0 || I2COLED_CY_SCBIP_V1)
 683:Generated_Source\PSoC4/I2COLED.c ****     /*******************************************************************************
 684:Generated_Source\PSoC4/I2COLED.c ****     * Function Name: I2COLED_I2CSlaveNackGeneration
 685:Generated_Source\PSoC4/I2COLED.c ****     ********************************************************************************
 686:Generated_Source\PSoC4/I2COLED.c ****     *
ARM GAS  C:\Users\jdrd3\AppData\Local\Temp\cc4sc8Gf.s 			page 20


 687:Generated_Source\PSoC4/I2COLED.c ****     * Summary:
 688:Generated_Source\PSoC4/I2COLED.c ****     *  Sets command to generate NACK to the address or data.
 689:Generated_Source\PSoC4/I2COLED.c ****     *
 690:Generated_Source\PSoC4/I2COLED.c ****     * Parameters:
 691:Generated_Source\PSoC4/I2COLED.c ****     *  None
 692:Generated_Source\PSoC4/I2COLED.c ****     *
 693:Generated_Source\PSoC4/I2COLED.c ****     * Return:
 694:Generated_Source\PSoC4/I2COLED.c ****     *  None
 695:Generated_Source\PSoC4/I2COLED.c ****     *
 696:Generated_Source\PSoC4/I2COLED.c ****     *******************************************************************************/
 697:Generated_Source\PSoC4/I2COLED.c ****     void I2COLED_I2CSlaveNackGeneration(void)
 698:Generated_Source\PSoC4/I2COLED.c ****     {
 398              		.loc 1 698 0
 399              		.cfi_startproc
 400              		@ args = 0, pretend = 0, frame = 0
 401              		@ frame_needed = 1, uses_anonymous_args = 0
 402 0000 80B5     		push	{r7, lr}
 403              		.cfi_def_cfa_offset 8
 404              		.cfi_offset 7, -8
 405              		.cfi_offset 14, -4
 406 0002 00AF     		add	r7, sp, #0
 407              		.cfi_def_cfa_register 7
 699:Generated_Source\PSoC4/I2COLED.c ****         /* Check for EC_AM toggle condition: EC_AM and clock stretching for address are enabled */
 700:Generated_Source\PSoC4/I2COLED.c ****         if ((0u != (I2COLED_CTRL_REG & I2COLED_CTRL_EC_AM_MODE)) &&
 408              		.loc 1 700 0
 409 0004 0F4B     		ldr	r3, .L25
 410 0006 1A68     		ldr	r2, [r3]
 411 0008 8023     		movs	r3, #128
 412 000a 5B00     		lsls	r3, r3, #1
 413 000c 1340     		ands	r3, r2
 414 000e 12D0     		beq	.L24
 701:Generated_Source\PSoC4/I2COLED.c ****             (0u == (I2COLED_I2C_CTRL_REG & I2COLED_I2C_CTRL_S_NOT_READY_ADDR_NACK)))
 415              		.loc 1 701 0 discriminator 1
 416 0010 0D4B     		ldr	r3, .L25+4
 417 0012 1A68     		ldr	r2, [r3]
 418 0014 8023     		movs	r3, #128
 419 0016 DB01     		lsls	r3, r3, #7
 420 0018 1340     		ands	r3, r2
 700:Generated_Source\PSoC4/I2COLED.c ****             (0u == (I2COLED_I2C_CTRL_REG & I2COLED_I2C_CTRL_S_NOT_READY_ADDR_NACK)))
 421              		.loc 1 700 0 discriminator 1
 422 001a 0CD1     		bne	.L24
 702:Generated_Source\PSoC4/I2COLED.c ****         {
 703:Generated_Source\PSoC4/I2COLED.c ****             /* Toggle EC_AM before NACK generation */
 704:Generated_Source\PSoC4/I2COLED.c ****             I2COLED_CTRL_REG &= ~I2COLED_CTRL_EC_AM_MODE;
 423              		.loc 1 704 0
 424 001c 094B     		ldr	r3, .L25
 425 001e 094A     		ldr	r2, .L25
 426 0020 1268     		ldr	r2, [r2]
 427 0022 0A49     		ldr	r1, .L25+8
 428 0024 0A40     		ands	r2, r1
 429 0026 1A60     		str	r2, [r3]
 705:Generated_Source\PSoC4/I2COLED.c ****             I2COLED_CTRL_REG |=  I2COLED_CTRL_EC_AM_MODE;
 430              		.loc 1 705 0
 431 0028 064B     		ldr	r3, .L25
 432 002a 064A     		ldr	r2, .L25
 433 002c 1268     		ldr	r2, [r2]
 434 002e 8021     		movs	r1, #128
ARM GAS  C:\Users\jdrd3\AppData\Local\Temp\cc4sc8Gf.s 			page 21


 435 0030 4900     		lsls	r1, r1, #1
 436 0032 0A43     		orrs	r2, r1
 437 0034 1A60     		str	r2, [r3]
 438              	.L24:
 706:Generated_Source\PSoC4/I2COLED.c ****         }
 707:Generated_Source\PSoC4/I2COLED.c **** 
 708:Generated_Source\PSoC4/I2COLED.c ****         I2COLED_I2C_SLAVE_CMD_REG = I2COLED_I2C_SLAVE_CMD_S_NACK;
 439              		.loc 1 708 0
 440 0036 064B     		ldr	r3, .L25+12
 441 0038 0222     		movs	r2, #2
 442 003a 1A60     		str	r2, [r3]
 709:Generated_Source\PSoC4/I2COLED.c ****     }
 443              		.loc 1 709 0
 444 003c C046     		nop
 445 003e BD46     		mov	sp, r7
 446              		@ sp needed
 447 0040 80BD     		pop	{r7, pc}
 448              	.L26:
 449 0042 C046     		.align	2
 450              	.L25:
 451 0044 00000740 		.word	1074200576
 452 0048 60000740 		.word	1074200672
 453 004c FFFEFFFF 		.word	-257
 454 0050 6C000740 		.word	1074200684
 455              		.cfi_endproc
 456              	.LFE9:
 457              		.size	I2COLED_I2CSlaveNackGeneration, .-I2COLED_I2CSlaveNackGeneration
 458              		.text
 459              	.Letext0:
 460              		.file 2 "Generated_Source\\PSoC4/cytypes.h"