ARM GAS  C:\Users\jdrd3\AppData\Local\Temp\ccQ8iyfh.s 			page 1


   1              		.syntax unified
   2              		.cpu cortex-m0
   3              		.fpu softvfp
   4              		.eabi_attribute 20, 1
   5              		.eabi_attribute 21, 1
   6              		.eabi_attribute 23, 3
   7              		.eabi_attribute 24, 1
   8              		.eabi_attribute 25, 1
   9              		.eabi_attribute 26, 1
  10              		.eabi_attribute 30, 6
  11              		.eabi_attribute 34, 0
  12              		.eabi_attribute 18, 4
  13              		.thumb
  14              		.syntax unified
  15              		.file	"ssd1306.c"
  16              		.text
  17              	.Ltext0:
  18              		.cfi_sections	.debug_frame
  19              		.section	.rodata
  20              		.align	2
  21              		.type	font, %object
  22              		.size	font, 1275
  23              	font:
  24 0000 00       		.byte	0
  25 0001 00       		.byte	0
  26 0002 00       		.byte	0
  27 0003 00       		.byte	0
  28 0004 00       		.byte	0
  29 0005 3E       		.byte	62
  30 0006 5B       		.byte	91
  31 0007 4F       		.byte	79
  32 0008 5B       		.byte	91
  33 0009 3E       		.byte	62
  34 000a 3E       		.byte	62
  35 000b 6B       		.byte	107
  36 000c 4F       		.byte	79
  37 000d 6B       		.byte	107
  38 000e 3E       		.byte	62
  39 000f 1C       		.byte	28
  40 0010 3E       		.byte	62
  41 0011 7C       		.byte	124
  42 0012 3E       		.byte	62
  43 0013 1C       		.byte	28
  44 0014 18       		.byte	24
  45 0015 3C       		.byte	60
  46 0016 7E       		.byte	126
  47 0017 3C       		.byte	60
  48 0018 18       		.byte	24
  49 0019 1C       		.byte	28
  50 001a 57       		.byte	87
  51 001b 7D       		.byte	125
  52 001c 57       		.byte	87
  53 001d 1C       		.byte	28
  54 001e 1C       		.byte	28
  55 001f 5E       		.byte	94
  56 0020 7F       		.byte	127
  57 0021 5E       		.byte	94
ARM GAS  C:\Users\jdrd3\AppData\Local\Temp\ccQ8iyfh.s 			page 2


  58 0022 1C       		.byte	28
  59 0023 00       		.byte	0
  60 0024 18       		.byte	24
  61 0025 3C       		.byte	60
  62 0026 18       		.byte	24
  63 0027 00       		.byte	0
  64 0028 FF       		.byte	-1
  65 0029 E7       		.byte	-25
  66 002a C3       		.byte	-61
  67 002b E7       		.byte	-25
  68 002c FF       		.byte	-1
  69 002d 00       		.byte	0
  70 002e 18       		.byte	24
  71 002f 24       		.byte	36
  72 0030 18       		.byte	24
  73 0031 00       		.byte	0
  74 0032 FF       		.byte	-1
  75 0033 E7       		.byte	-25
  76 0034 DB       		.byte	-37
  77 0035 E7       		.byte	-25
  78 0036 FF       		.byte	-1
  79 0037 30       		.byte	48
  80 0038 48       		.byte	72
  81 0039 3A       		.byte	58
  82 003a 06       		.byte	6
  83 003b 0E       		.byte	14
  84 003c 26       		.byte	38
  85 003d 29       		.byte	41
  86 003e 79       		.byte	121
  87 003f 29       		.byte	41
  88 0040 26       		.byte	38
  89 0041 40       		.byte	64
  90 0042 7F       		.byte	127
  91 0043 05       		.byte	5
  92 0044 05       		.byte	5
  93 0045 07       		.byte	7
  94 0046 40       		.byte	64
  95 0047 7F       		.byte	127
  96 0048 05       		.byte	5
  97 0049 25       		.byte	37
  98 004a 3F       		.byte	63
  99 004b 5A       		.byte	90
 100 004c 3C       		.byte	60
 101 004d E7       		.byte	-25
 102 004e 3C       		.byte	60
 103 004f 5A       		.byte	90
 104 0050 7F       		.byte	127
 105 0051 3E       		.byte	62
 106 0052 1C       		.byte	28
 107 0053 1C       		.byte	28
 108 0054 08       		.byte	8
 109 0055 08       		.byte	8
 110 0056 1C       		.byte	28
 111 0057 1C       		.byte	28
 112 0058 3E       		.byte	62
 113 0059 7F       		.byte	127
 114 005a 14       		.byte	20
ARM GAS  C:\Users\jdrd3\AppData\Local\Temp\ccQ8iyfh.s 			page 3


 115 005b 22       		.byte	34
 116 005c 7F       		.byte	127
 117 005d 22       		.byte	34
 118 005e 14       		.byte	20
 119 005f 5F       		.byte	95
 120 0060 5F       		.byte	95
 121 0061 00       		.byte	0
 122 0062 5F       		.byte	95
 123 0063 5F       		.byte	95
 124 0064 06       		.byte	6
 125 0065 09       		.byte	9
 126 0066 7F       		.byte	127
 127 0067 01       		.byte	1
 128 0068 7F       		.byte	127
 129 0069 00       		.byte	0
 130 006a 66       		.byte	102
 131 006b 89       		.byte	-119
 132 006c 95       		.byte	-107
 133 006d 6A       		.byte	106
 134 006e 60       		.byte	96
 135 006f 60       		.byte	96
 136 0070 60       		.byte	96
 137 0071 60       		.byte	96
 138 0072 60       		.byte	96
 139 0073 94       		.byte	-108
 140 0074 A2       		.byte	-94
 141 0075 FF       		.byte	-1
 142 0076 A2       		.byte	-94
 143 0077 94       		.byte	-108
 144 0078 08       		.byte	8
 145 0079 04       		.byte	4
 146 007a 7E       		.byte	126
 147 007b 04       		.byte	4
 148 007c 08       		.byte	8
 149 007d 10       		.byte	16
 150 007e 20       		.byte	32
 151 007f 7E       		.byte	126
 152 0080 20       		.byte	32
 153 0081 10       		.byte	16
 154 0082 08       		.byte	8
 155 0083 08       		.byte	8
 156 0084 2A       		.byte	42
 157 0085 1C       		.byte	28
 158 0086 08       		.byte	8
 159 0087 08       		.byte	8
 160 0088 1C       		.byte	28
 161 0089 2A       		.byte	42
 162 008a 08       		.byte	8
 163 008b 08       		.byte	8
 164 008c 1E       		.byte	30
 165 008d 10       		.byte	16
 166 008e 10       		.byte	16
 167 008f 10       		.byte	16
 168 0090 10       		.byte	16
 169 0091 0C       		.byte	12
 170 0092 1E       		.byte	30
 171 0093 0C       		.byte	12
ARM GAS  C:\Users\jdrd3\AppData\Local\Temp\ccQ8iyfh.s 			page 4


 172 0094 1E       		.byte	30
 173 0095 0C       		.byte	12
 174 0096 30       		.byte	48
 175 0097 38       		.byte	56
 176 0098 3E       		.byte	62
 177 0099 38       		.byte	56
 178 009a 30       		.byte	48
 179 009b 06       		.byte	6
 180 009c 0E       		.byte	14
 181 009d 3E       		.byte	62
 182 009e 0E       		.byte	14
 183 009f 06       		.byte	6
 184 00a0 00       		.byte	0
 185 00a1 00       		.byte	0
 186 00a2 00       		.byte	0
 187 00a3 00       		.byte	0
 188 00a4 00       		.byte	0
 189 00a5 00       		.byte	0
 190 00a6 00       		.byte	0
 191 00a7 5F       		.byte	95
 192 00a8 00       		.byte	0
 193 00a9 00       		.byte	0
 194 00aa 00       		.byte	0
 195 00ab 07       		.byte	7
 196 00ac 00       		.byte	0
 197 00ad 07       		.byte	7
 198 00ae 00       		.byte	0
 199 00af 14       		.byte	20
 200 00b0 7F       		.byte	127
 201 00b1 14       		.byte	20
 202 00b2 7F       		.byte	127
 203 00b3 14       		.byte	20
 204 00b4 24       		.byte	36
 205 00b5 2A       		.byte	42
 206 00b6 7F       		.byte	127
 207 00b7 2A       		.byte	42
 208 00b8 12       		.byte	18
 209 00b9 23       		.byte	35
 210 00ba 13       		.byte	19
 211 00bb 08       		.byte	8
 212 00bc 64       		.byte	100
 213 00bd 62       		.byte	98
 214 00be 36       		.byte	54
 215 00bf 49       		.byte	73
 216 00c0 56       		.byte	86
 217 00c1 20       		.byte	32
 218 00c2 50       		.byte	80
 219 00c3 00       		.byte	0
 220 00c4 08       		.byte	8
 221 00c5 07       		.byte	7
 222 00c6 03       		.byte	3
 223 00c7 00       		.byte	0
 224 00c8 00       		.byte	0
 225 00c9 1C       		.byte	28
 226 00ca 22       		.byte	34
 227 00cb 41       		.byte	65
 228 00cc 00       		.byte	0
ARM GAS  C:\Users\jdrd3\AppData\Local\Temp\ccQ8iyfh.s 			page 5


 229 00cd 00       		.byte	0
 230 00ce 41       		.byte	65
 231 00cf 22       		.byte	34
 232 00d0 1C       		.byte	28
 233 00d1 00       		.byte	0
 234 00d2 2A       		.byte	42
 235 00d3 1C       		.byte	28
 236 00d4 7F       		.byte	127
 237 00d5 1C       		.byte	28
 238 00d6 2A       		.byte	42
 239 00d7 08       		.byte	8
 240 00d8 08       		.byte	8
 241 00d9 3E       		.byte	62
 242 00da 08       		.byte	8
 243 00db 08       		.byte	8
 244 00dc 00       		.byte	0
 245 00dd 80       		.byte	-128
 246 00de 70       		.byte	112
 247 00df 30       		.byte	48
 248 00e0 00       		.byte	0
 249 00e1 08       		.byte	8
 250 00e2 08       		.byte	8
 251 00e3 08       		.byte	8
 252 00e4 08       		.byte	8
 253 00e5 08       		.byte	8
 254 00e6 00       		.byte	0
 255 00e7 00       		.byte	0
 256 00e8 60       		.byte	96
 257 00e9 60       		.byte	96
 258 00ea 00       		.byte	0
 259 00eb 20       		.byte	32
 260 00ec 10       		.byte	16
 261 00ed 08       		.byte	8
 262 00ee 04       		.byte	4
 263 00ef 02       		.byte	2
 264 00f0 3E       		.byte	62
 265 00f1 51       		.byte	81
 266 00f2 49       		.byte	73
 267 00f3 45       		.byte	69
 268 00f4 3E       		.byte	62
 269 00f5 00       		.byte	0
 270 00f6 42       		.byte	66
 271 00f7 7F       		.byte	127
 272 00f8 40       		.byte	64
 273 00f9 00       		.byte	0
 274 00fa 72       		.byte	114
 275 00fb 49       		.byte	73
 276 00fc 49       		.byte	73
 277 00fd 49       		.byte	73
 278 00fe 46       		.byte	70
 279 00ff 21       		.byte	33
 280 0100 41       		.byte	65
 281 0101 49       		.byte	73
 282 0102 4D       		.byte	77
 283 0103 33       		.byte	51
 284 0104 18       		.byte	24
 285 0105 14       		.byte	20
ARM GAS  C:\Users\jdrd3\AppData\Local\Temp\ccQ8iyfh.s 			page 6


 286 0106 12       		.byte	18
 287 0107 7F       		.byte	127
 288 0108 10       		.byte	16
 289 0109 27       		.byte	39
 290 010a 45       		.byte	69
 291 010b 45       		.byte	69
 292 010c 45       		.byte	69
 293 010d 39       		.byte	57
 294 010e 3C       		.byte	60
 295 010f 4A       		.byte	74
 296 0110 49       		.byte	73
 297 0111 49       		.byte	73
 298 0112 31       		.byte	49
 299 0113 41       		.byte	65
 300 0114 21       		.byte	33
 301 0115 11       		.byte	17
 302 0116 09       		.byte	9
 303 0117 07       		.byte	7
 304 0118 36       		.byte	54
 305 0119 49       		.byte	73
 306 011a 49       		.byte	73
 307 011b 49       		.byte	73
 308 011c 36       		.byte	54
 309 011d 46       		.byte	70
 310 011e 49       		.byte	73
 311 011f 49       		.byte	73
 312 0120 29       		.byte	41
 313 0121 1E       		.byte	30
 314 0122 00       		.byte	0
 315 0123 00       		.byte	0
 316 0124 14       		.byte	20
 317 0125 00       		.byte	0
 318 0126 00       		.byte	0
 319 0127 00       		.byte	0
 320 0128 40       		.byte	64
 321 0129 34       		.byte	52
 322 012a 00       		.byte	0
 323 012b 00       		.byte	0
 324 012c 00       		.byte	0
 325 012d 08       		.byte	8
 326 012e 14       		.byte	20
 327 012f 22       		.byte	34
 328 0130 41       		.byte	65
 329 0131 14       		.byte	20
 330 0132 14       		.byte	20
 331 0133 14       		.byte	20
 332 0134 14       		.byte	20
 333 0135 14       		.byte	20
 334 0136 00       		.byte	0
 335 0137 41       		.byte	65
 336 0138 22       		.byte	34
 337 0139 14       		.byte	20
 338 013a 08       		.byte	8
 339 013b 02       		.byte	2
 340 013c 01       		.byte	1
 341 013d 59       		.byte	89
 342 013e 09       		.byte	9
ARM GAS  C:\Users\jdrd3\AppData\Local\Temp\ccQ8iyfh.s 			page 7


 343 013f 06       		.byte	6
 344 0140 3E       		.byte	62
 345 0141 41       		.byte	65
 346 0142 5D       		.byte	93
 347 0143 59       		.byte	89
 348 0144 4E       		.byte	78
 349 0145 7C       		.byte	124
 350 0146 12       		.byte	18
 351 0147 11       		.byte	17
 352 0148 12       		.byte	18
 353 0149 7C       		.byte	124
 354 014a 7F       		.byte	127
 355 014b 49       		.byte	73
 356 014c 49       		.byte	73
 357 014d 49       		.byte	73
 358 014e 36       		.byte	54
 359 014f 3E       		.byte	62
 360 0150 41       		.byte	65
 361 0151 41       		.byte	65
 362 0152 41       		.byte	65
 363 0153 22       		.byte	34
 364 0154 7F       		.byte	127
 365 0155 41       		.byte	65
 366 0156 41       		.byte	65
 367 0157 41       		.byte	65
 368 0158 3E       		.byte	62
 369 0159 7F       		.byte	127
 370 015a 49       		.byte	73
 371 015b 49       		.byte	73
 372 015c 49       		.byte	73
 373 015d 41       		.byte	65
 374 015e 7F       		.byte	127
 375 015f 09       		.byte	9
 376 0160 09       		.byte	9
 377 0161 09       		.byte	9
 378 0162 01       		.byte	1
 379 0163 3E       		.byte	62
 380 0164 41       		.byte	65
 381 0165 41       		.byte	65
 382 0166 51       		.byte	81
 383 0167 73       		.byte	115
 384 0168 7F       		.byte	127
 385 0169 08       		.byte	8
 386 016a 08       		.byte	8
 387 016b 08       		.byte	8
 388 016c 7F       		.byte	127
 389 016d 00       		.byte	0
 390 016e 41       		.byte	65
 391 016f 7F       		.byte	127
 392 0170 41       		.byte	65
 393 0171 00       		.byte	0
 394 0172 20       		.byte	32
 395 0173 40       		.byte	64
 396 0174 41       		.byte	65
 397 0175 3F       		.byte	63
 398 0176 01       		.byte	1
 399 0177 7F       		.byte	127
ARM GAS  C:\Users\jdrd3\AppData\Local\Temp\ccQ8iyfh.s 			page 8


 400 0178 08       		.byte	8
 401 0179 14       		.byte	20
 402 017a 22       		.byte	34
 403 017b 41       		.byte	65
 404 017c 7F       		.byte	127
 405 017d 40       		.byte	64
 406 017e 40       		.byte	64
 407 017f 40       		.byte	64
 408 0180 40       		.byte	64
 409 0181 7F       		.byte	127
 410 0182 02       		.byte	2
 411 0183 1C       		.byte	28
 412 0184 02       		.byte	2
 413 0185 7F       		.byte	127
 414 0186 7F       		.byte	127
 415 0187 04       		.byte	4
 416 0188 08       		.byte	8
 417 0189 10       		.byte	16
 418 018a 7F       		.byte	127
 419 018b 3E       		.byte	62
 420 018c 41       		.byte	65
 421 018d 41       		.byte	65
 422 018e 41       		.byte	65
 423 018f 3E       		.byte	62
 424 0190 7F       		.byte	127
 425 0191 09       		.byte	9
 426 0192 09       		.byte	9
 427 0193 09       		.byte	9
 428 0194 06       		.byte	6
 429 0195 3E       		.byte	62
 430 0196 41       		.byte	65
 431 0197 51       		.byte	81
 432 0198 21       		.byte	33
 433 0199 5E       		.byte	94
 434 019a 7F       		.byte	127
 435 019b 09       		.byte	9
 436 019c 19       		.byte	25
 437 019d 29       		.byte	41
 438 019e 46       		.byte	70
 439 019f 26       		.byte	38
 440 01a0 49       		.byte	73
 441 01a1 49       		.byte	73
 442 01a2 49       		.byte	73
 443 01a3 32       		.byte	50
 444 01a4 03       		.byte	3
 445 01a5 01       		.byte	1
 446 01a6 7F       		.byte	127
 447 01a7 01       		.byte	1
 448 01a8 03       		.byte	3
 449 01a9 3F       		.byte	63
 450 01aa 40       		.byte	64
 451 01ab 40       		.byte	64
 452 01ac 40       		.byte	64
 453 01ad 3F       		.byte	63
 454 01ae 1F       		.byte	31
 455 01af 20       		.byte	32
 456 01b0 40       		.byte	64
ARM GAS  C:\Users\jdrd3\AppData\Local\Temp\ccQ8iyfh.s 			page 9


 457 01b1 20       		.byte	32
 458 01b2 1F       		.byte	31
 459 01b3 3F       		.byte	63
 460 01b4 40       		.byte	64
 461 01b5 38       		.byte	56
 462 01b6 40       		.byte	64
 463 01b7 3F       		.byte	63
 464 01b8 63       		.byte	99
 465 01b9 14       		.byte	20
 466 01ba 08       		.byte	8
 467 01bb 14       		.byte	20
 468 01bc 63       		.byte	99
 469 01bd 03       		.byte	3
 470 01be 04       		.byte	4
 471 01bf 78       		.byte	120
 472 01c0 04       		.byte	4
 473 01c1 03       		.byte	3
 474 01c2 61       		.byte	97
 475 01c3 59       		.byte	89
 476 01c4 49       		.byte	73
 477 01c5 4D       		.byte	77
 478 01c6 43       		.byte	67
 479 01c7 00       		.byte	0
 480 01c8 7F       		.byte	127
 481 01c9 41       		.byte	65
 482 01ca 41       		.byte	65
 483 01cb 41       		.byte	65
 484 01cc 02       		.byte	2
 485 01cd 04       		.byte	4
 486 01ce 08       		.byte	8
 487 01cf 10       		.byte	16
 488 01d0 20       		.byte	32
 489 01d1 00       		.byte	0
 490 01d2 41       		.byte	65
 491 01d3 41       		.byte	65
 492 01d4 41       		.byte	65
 493 01d5 7F       		.byte	127
 494 01d6 04       		.byte	4
 495 01d7 02       		.byte	2
 496 01d8 01       		.byte	1
 497 01d9 02       		.byte	2
 498 01da 04       		.byte	4
 499 01db 40       		.byte	64
 500 01dc 40       		.byte	64
 501 01dd 40       		.byte	64
 502 01de 40       		.byte	64
 503 01df 40       		.byte	64
 504 01e0 00       		.byte	0
 505 01e1 03       		.byte	3
 506 01e2 07       		.byte	7
 507 01e3 08       		.byte	8
 508 01e4 00       		.byte	0
 509 01e5 20       		.byte	32
 510 01e6 54       		.byte	84
 511 01e7 54       		.byte	84
 512 01e8 78       		.byte	120
 513 01e9 40       		.byte	64
ARM GAS  C:\Users\jdrd3\AppData\Local\Temp\ccQ8iyfh.s 			page 10


 514 01ea 7F       		.byte	127
 515 01eb 28       		.byte	40
 516 01ec 44       		.byte	68
 517 01ed 44       		.byte	68
 518 01ee 38       		.byte	56
 519 01ef 38       		.byte	56
 520 01f0 44       		.byte	68
 521 01f1 44       		.byte	68
 522 01f2 44       		.byte	68
 523 01f3 28       		.byte	40
 524 01f4 38       		.byte	56
 525 01f5 44       		.byte	68
 526 01f6 44       		.byte	68
 527 01f7 28       		.byte	40
 528 01f8 7F       		.byte	127
 529 01f9 38       		.byte	56
 530 01fa 54       		.byte	84
 531 01fb 54       		.byte	84
 532 01fc 54       		.byte	84
 533 01fd 18       		.byte	24
 534 01fe 00       		.byte	0
 535 01ff 08       		.byte	8
 536 0200 7E       		.byte	126
 537 0201 09       		.byte	9
 538 0202 02       		.byte	2
 539 0203 18       		.byte	24
 540 0204 A4       		.byte	-92
 541 0205 A4       		.byte	-92
 542 0206 9C       		.byte	-100
 543 0207 78       		.byte	120
 544 0208 7F       		.byte	127
 545 0209 08       		.byte	8
 546 020a 04       		.byte	4
 547 020b 04       		.byte	4
 548 020c 78       		.byte	120
 549 020d 00       		.byte	0
 550 020e 44       		.byte	68
 551 020f 7D       		.byte	125
 552 0210 40       		.byte	64
 553 0211 00       		.byte	0
 554 0212 20       		.byte	32
 555 0213 40       		.byte	64
 556 0214 40       		.byte	64
 557 0215 3D       		.byte	61
 558 0216 00       		.byte	0
 559 0217 7F       		.byte	127
 560 0218 10       		.byte	16
 561 0219 28       		.byte	40
 562 021a 44       		.byte	68
 563 021b 00       		.byte	0
 564 021c 00       		.byte	0
 565 021d 41       		.byte	65
 566 021e 7F       		.byte	127
 567 021f 40       		.byte	64
 568 0220 00       		.byte	0
 569 0221 7C       		.byte	124
 570 0222 04       		.byte	4
ARM GAS  C:\Users\jdrd3\AppData\Local\Temp\ccQ8iyfh.s 			page 11


 571 0223 78       		.byte	120
 572 0224 04       		.byte	4
 573 0225 78       		.byte	120
 574 0226 7C       		.byte	124
 575 0227 08       		.byte	8
 576 0228 04       		.byte	4
 577 0229 04       		.byte	4
 578 022a 78       		.byte	120
 579 022b 38       		.byte	56
 580 022c 44       		.byte	68
 581 022d 44       		.byte	68
 582 022e 44       		.byte	68
 583 022f 38       		.byte	56
 584 0230 FC       		.byte	-4
 585 0231 18       		.byte	24
 586 0232 24       		.byte	36
 587 0233 24       		.byte	36
 588 0234 18       		.byte	24
 589 0235 18       		.byte	24
 590 0236 24       		.byte	36
 591 0237 24       		.byte	36
 592 0238 18       		.byte	24
 593 0239 FC       		.byte	-4
 594 023a 7C       		.byte	124
 595 023b 08       		.byte	8
 596 023c 04       		.byte	4
 597 023d 04       		.byte	4
 598 023e 08       		.byte	8
 599 023f 48       		.byte	72
 600 0240 54       		.byte	84
 601 0241 54       		.byte	84
 602 0242 54       		.byte	84
 603 0243 24       		.byte	36
 604 0244 04       		.byte	4
 605 0245 04       		.byte	4
 606 0246 3F       		.byte	63
 607 0247 44       		.byte	68
 608 0248 24       		.byte	36
 609 0249 3C       		.byte	60
 610 024a 40       		.byte	64
 611 024b 40       		.byte	64
 612 024c 20       		.byte	32
 613 024d 7C       		.byte	124
 614 024e 1C       		.byte	28
 615 024f 20       		.byte	32
 616 0250 40       		.byte	64
 617 0251 20       		.byte	32
 618 0252 1C       		.byte	28
 619 0253 3C       		.byte	60
 620 0254 40       		.byte	64
 621 0255 30       		.byte	48
 622 0256 40       		.byte	64
 623 0257 3C       		.byte	60
 624 0258 44       		.byte	68
 625 0259 28       		.byte	40
 626 025a 10       		.byte	16
 627 025b 28       		.byte	40
ARM GAS  C:\Users\jdrd3\AppData\Local\Temp\ccQ8iyfh.s 			page 12


 628 025c 44       		.byte	68
 629 025d 4C       		.byte	76
 630 025e 90       		.byte	-112
 631 025f 90       		.byte	-112
 632 0260 90       		.byte	-112
 633 0261 7C       		.byte	124
 634 0262 44       		.byte	68
 635 0263 64       		.byte	100
 636 0264 54       		.byte	84
 637 0265 4C       		.byte	76
 638 0266 44       		.byte	68
 639 0267 00       		.byte	0
 640 0268 08       		.byte	8
 641 0269 36       		.byte	54
 642 026a 41       		.byte	65
 643 026b 00       		.byte	0
 644 026c 00       		.byte	0
 645 026d 00       		.byte	0
 646 026e 77       		.byte	119
 647 026f 00       		.byte	0
 648 0270 00       		.byte	0
 649 0271 00       		.byte	0
 650 0272 41       		.byte	65
 651 0273 36       		.byte	54
 652 0274 08       		.byte	8
 653 0275 00       		.byte	0
 654 0276 02       		.byte	2
 655 0277 01       		.byte	1
 656 0278 02       		.byte	2
 657 0279 04       		.byte	4
 658 027a 02       		.byte	2
 659 027b 3C       		.byte	60
 660 027c 26       		.byte	38
 661 027d 23       		.byte	35
 662 027e 26       		.byte	38
 663 027f 3C       		.byte	60
 664 0280 1E       		.byte	30
 665 0281 A1       		.byte	-95
 666 0282 A1       		.byte	-95
 667 0283 61       		.byte	97
 668 0284 12       		.byte	18
 669 0285 3A       		.byte	58
 670 0286 40       		.byte	64
 671 0287 40       		.byte	64
 672 0288 20       		.byte	32
 673 0289 7A       		.byte	122
 674 028a 38       		.byte	56
 675 028b 54       		.byte	84
 676 028c 54       		.byte	84
 677 028d 55       		.byte	85
 678 028e 59       		.byte	89
 679 028f 21       		.byte	33
 680 0290 55       		.byte	85
 681 0291 55       		.byte	85
 682 0292 79       		.byte	121
 683 0293 41       		.byte	65
 684 0294 22       		.byte	34
ARM GAS  C:\Users\jdrd3\AppData\Local\Temp\ccQ8iyfh.s 			page 13


 685 0295 54       		.byte	84
 686 0296 54       		.byte	84
 687 0297 78       		.byte	120
 688 0298 42       		.byte	66
 689 0299 21       		.byte	33
 690 029a 55       		.byte	85
 691 029b 54       		.byte	84
 692 029c 78       		.byte	120
 693 029d 40       		.byte	64
 694 029e 20       		.byte	32
 695 029f 54       		.byte	84
 696 02a0 55       		.byte	85
 697 02a1 79       		.byte	121
 698 02a2 40       		.byte	64
 699 02a3 0C       		.byte	12
 700 02a4 1E       		.byte	30
 701 02a5 52       		.byte	82
 702 02a6 72       		.byte	114
 703 02a7 12       		.byte	18
 704 02a8 39       		.byte	57
 705 02a9 55       		.byte	85
 706 02aa 55       		.byte	85
 707 02ab 55       		.byte	85
 708 02ac 59       		.byte	89
 709 02ad 39       		.byte	57
 710 02ae 54       		.byte	84
 711 02af 54       		.byte	84
 712 02b0 54       		.byte	84
 713 02b1 59       		.byte	89
 714 02b2 39       		.byte	57
 715 02b3 55       		.byte	85
 716 02b4 54       		.byte	84
 717 02b5 54       		.byte	84
 718 02b6 58       		.byte	88
 719 02b7 00       		.byte	0
 720 02b8 00       		.byte	0
 721 02b9 45       		.byte	69
 722 02ba 7C       		.byte	124
 723 02bb 41       		.byte	65
 724 02bc 00       		.byte	0
 725 02bd 02       		.byte	2
 726 02be 45       		.byte	69
 727 02bf 7D       		.byte	125
 728 02c0 42       		.byte	66
 729 02c1 00       		.byte	0
 730 02c2 01       		.byte	1
 731 02c3 45       		.byte	69
 732 02c4 7C       		.byte	124
 733 02c5 40       		.byte	64
 734 02c6 7D       		.byte	125
 735 02c7 12       		.byte	18
 736 02c8 11       		.byte	17
 737 02c9 12       		.byte	18
 738 02ca 7D       		.byte	125
 739 02cb F0       		.byte	-16
 740 02cc 28       		.byte	40
 741 02cd 25       		.byte	37
ARM GAS  C:\Users\jdrd3\AppData\Local\Temp\ccQ8iyfh.s 			page 14


 742 02ce 28       		.byte	40
 743 02cf F0       		.byte	-16
 744 02d0 7C       		.byte	124
 745 02d1 54       		.byte	84
 746 02d2 55       		.byte	85
 747 02d3 45       		.byte	69
 748 02d4 00       		.byte	0
 749 02d5 20       		.byte	32
 750 02d6 54       		.byte	84
 751 02d7 54       		.byte	84
 752 02d8 7C       		.byte	124
 753 02d9 54       		.byte	84
 754 02da 7C       		.byte	124
 755 02db 0A       		.byte	10
 756 02dc 09       		.byte	9
 757 02dd 7F       		.byte	127
 758 02de 49       		.byte	73
 759 02df 32       		.byte	50
 760 02e0 49       		.byte	73
 761 02e1 49       		.byte	73
 762 02e2 49       		.byte	73
 763 02e3 32       		.byte	50
 764 02e4 3A       		.byte	58
 765 02e5 44       		.byte	68
 766 02e6 44       		.byte	68
 767 02e7 44       		.byte	68
 768 02e8 3A       		.byte	58
 769 02e9 32       		.byte	50
 770 02ea 4A       		.byte	74
 771 02eb 48       		.byte	72
 772 02ec 48       		.byte	72
 773 02ed 30       		.byte	48
 774 02ee 3A       		.byte	58
 775 02ef 41       		.byte	65
 776 02f0 41       		.byte	65
 777 02f1 21       		.byte	33
 778 02f2 7A       		.byte	122
 779 02f3 3A       		.byte	58
 780 02f4 42       		.byte	66
 781 02f5 40       		.byte	64
 782 02f6 20       		.byte	32
 783 02f7 78       		.byte	120
 784 02f8 00       		.byte	0
 785 02f9 9D       		.byte	-99
 786 02fa A0       		.byte	-96
 787 02fb A0       		.byte	-96
 788 02fc 7D       		.byte	125
 789 02fd 3D       		.byte	61
 790 02fe 42       		.byte	66
 791 02ff 42       		.byte	66
 792 0300 42       		.byte	66
 793 0301 3D       		.byte	61
 794 0302 3D       		.byte	61
 795 0303 40       		.byte	64
 796 0304 40       		.byte	64
 797 0305 40       		.byte	64
 798 0306 3D       		.byte	61
ARM GAS  C:\Users\jdrd3\AppData\Local\Temp\ccQ8iyfh.s 			page 15


 799 0307 3C       		.byte	60
 800 0308 24       		.byte	36
 801 0309 FF       		.byte	-1
 802 030a 24       		.byte	36
 803 030b 24       		.byte	36
 804 030c 48       		.byte	72
 805 030d 7E       		.byte	126
 806 030e 49       		.byte	73
 807 030f 43       		.byte	67
 808 0310 66       		.byte	102
 809 0311 2B       		.byte	43
 810 0312 2F       		.byte	47
 811 0313 FC       		.byte	-4
 812 0314 2F       		.byte	47
 813 0315 2B       		.byte	43
 814 0316 FF       		.byte	-1
 815 0317 09       		.byte	9
 816 0318 29       		.byte	41
 817 0319 F6       		.byte	-10
 818 031a 20       		.byte	32
 819 031b C0       		.byte	-64
 820 031c 88       		.byte	-120
 821 031d 7E       		.byte	126
 822 031e 09       		.byte	9
 823 031f 03       		.byte	3
 824 0320 20       		.byte	32
 825 0321 54       		.byte	84
 826 0322 54       		.byte	84
 827 0323 79       		.byte	121
 828 0324 41       		.byte	65
 829 0325 00       		.byte	0
 830 0326 00       		.byte	0
 831 0327 44       		.byte	68
 832 0328 7D       		.byte	125
 833 0329 41       		.byte	65
 834 032a 30       		.byte	48
 835 032b 48       		.byte	72
 836 032c 48       		.byte	72
 837 032d 4A       		.byte	74
 838 032e 32       		.byte	50
 839 032f 38       		.byte	56
 840 0330 40       		.byte	64
 841 0331 40       		.byte	64
 842 0332 22       		.byte	34
 843 0333 7A       		.byte	122
 844 0334 00       		.byte	0
 845 0335 7A       		.byte	122
 846 0336 0A       		.byte	10
 847 0337 0A       		.byte	10
 848 0338 72       		.byte	114
 849 0339 7D       		.byte	125
 850 033a 0D       		.byte	13
 851 033b 19       		.byte	25
 852 033c 31       		.byte	49
 853 033d 7D       		.byte	125
 854 033e 26       		.byte	38
 855 033f 29       		.byte	41
ARM GAS  C:\Users\jdrd3\AppData\Local\Temp\ccQ8iyfh.s 			page 16


 856 0340 29       		.byte	41
 857 0341 2F       		.byte	47
 858 0342 28       		.byte	40
 859 0343 26       		.byte	38
 860 0344 29       		.byte	41
 861 0345 29       		.byte	41
 862 0346 29       		.byte	41
 863 0347 26       		.byte	38
 864 0348 30       		.byte	48
 865 0349 48       		.byte	72
 866 034a 4D       		.byte	77
 867 034b 40       		.byte	64
 868 034c 20       		.byte	32
 869 034d 38       		.byte	56
 870 034e 08       		.byte	8
 871 034f 08       		.byte	8
 872 0350 08       		.byte	8
 873 0351 08       		.byte	8
 874 0352 08       		.byte	8
 875 0353 08       		.byte	8
 876 0354 08       		.byte	8
 877 0355 08       		.byte	8
 878 0356 38       		.byte	56
 879 0357 2F       		.byte	47
 880 0358 10       		.byte	16
 881 0359 C8       		.byte	-56
 882 035a AC       		.byte	-84
 883 035b BA       		.byte	-70
 884 035c 2F       		.byte	47
 885 035d 10       		.byte	16
 886 035e 28       		.byte	40
 887 035f 34       		.byte	52
 888 0360 FA       		.byte	-6
 889 0361 00       		.byte	0
 890 0362 00       		.byte	0
 891 0363 7B       		.byte	123
 892 0364 00       		.byte	0
 893 0365 00       		.byte	0
 894 0366 08       		.byte	8
 895 0367 14       		.byte	20
 896 0368 2A       		.byte	42
 897 0369 14       		.byte	20
 898 036a 22       		.byte	34
 899 036b 22       		.byte	34
 900 036c 14       		.byte	20
 901 036d 2A       		.byte	42
 902 036e 14       		.byte	20
 903 036f 08       		.byte	8
 904 0370 AA       		.byte	-86
 905 0371 00       		.byte	0
 906 0372 55       		.byte	85
 907 0373 00       		.byte	0
 908 0374 AA       		.byte	-86
 909 0375 AA       		.byte	-86
 910 0376 55       		.byte	85
 911 0377 AA       		.byte	-86
 912 0378 55       		.byte	85
ARM GAS  C:\Users\jdrd3\AppData\Local\Temp\ccQ8iyfh.s 			page 17


 913 0379 AA       		.byte	-86
 914 037a 00       		.byte	0
 915 037b 00       		.byte	0
 916 037c 00       		.byte	0
 917 037d FF       		.byte	-1
 918 037e 00       		.byte	0
 919 037f 10       		.byte	16
 920 0380 10       		.byte	16
 921 0381 10       		.byte	16
 922 0382 FF       		.byte	-1
 923 0383 00       		.byte	0
 924 0384 14       		.byte	20
 925 0385 14       		.byte	20
 926 0386 14       		.byte	20
 927 0387 FF       		.byte	-1
 928 0388 00       		.byte	0
 929 0389 10       		.byte	16
 930 038a 10       		.byte	16
 931 038b FF       		.byte	-1
 932 038c 00       		.byte	0
 933 038d FF       		.byte	-1
 934 038e 10       		.byte	16
 935 038f 10       		.byte	16
 936 0390 F0       		.byte	-16
 937 0391 10       		.byte	16
 938 0392 F0       		.byte	-16
 939 0393 14       		.byte	20
 940 0394 14       		.byte	20
 941 0395 14       		.byte	20
 942 0396 FC       		.byte	-4
 943 0397 00       		.byte	0
 944 0398 14       		.byte	20
 945 0399 14       		.byte	20
 946 039a F7       		.byte	-9
 947 039b 00       		.byte	0
 948 039c FF       		.byte	-1
 949 039d 00       		.byte	0
 950 039e 00       		.byte	0
 951 039f FF       		.byte	-1
 952 03a0 00       		.byte	0
 953 03a1 FF       		.byte	-1
 954 03a2 14       		.byte	20
 955 03a3 14       		.byte	20
 956 03a4 F4       		.byte	-12
 957 03a5 04       		.byte	4
 958 03a6 FC       		.byte	-4
 959 03a7 14       		.byte	20
 960 03a8 14       		.byte	20
 961 03a9 17       		.byte	23
 962 03aa 10       		.byte	16
 963 03ab 1F       		.byte	31
 964 03ac 10       		.byte	16
 965 03ad 10       		.byte	16
 966 03ae 1F       		.byte	31
 967 03af 10       		.byte	16
 968 03b0 1F       		.byte	31
 969 03b1 14       		.byte	20
ARM GAS  C:\Users\jdrd3\AppData\Local\Temp\ccQ8iyfh.s 			page 18


 970 03b2 14       		.byte	20
 971 03b3 14       		.byte	20
 972 03b4 1F       		.byte	31
 973 03b5 00       		.byte	0
 974 03b6 10       		.byte	16
 975 03b7 10       		.byte	16
 976 03b8 10       		.byte	16
 977 03b9 F0       		.byte	-16
 978 03ba 00       		.byte	0
 979 03bb 00       		.byte	0
 980 03bc 00       		.byte	0
 981 03bd 00       		.byte	0
 982 03be 1F       		.byte	31
 983 03bf 10       		.byte	16
 984 03c0 10       		.byte	16
 985 03c1 10       		.byte	16
 986 03c2 10       		.byte	16
 987 03c3 1F       		.byte	31
 988 03c4 10       		.byte	16
 989 03c5 10       		.byte	16
 990 03c6 10       		.byte	16
 991 03c7 10       		.byte	16
 992 03c8 F0       		.byte	-16
 993 03c9 10       		.byte	16
 994 03ca 00       		.byte	0
 995 03cb 00       		.byte	0
 996 03cc 00       		.byte	0
 997 03cd FF       		.byte	-1
 998 03ce 10       		.byte	16
 999 03cf 10       		.byte	16
 1000 03d0 10       		.byte	16
 1001 03d1 10       		.byte	16
 1002 03d2 10       		.byte	16
 1003 03d3 10       		.byte	16
 1004 03d4 10       		.byte	16
 1005 03d5 10       		.byte	16
 1006 03d6 10       		.byte	16
 1007 03d7 FF       		.byte	-1
 1008 03d8 10       		.byte	16
 1009 03d9 00       		.byte	0
 1010 03da 00       		.byte	0
 1011 03db 00       		.byte	0
 1012 03dc FF       		.byte	-1
 1013 03dd 14       		.byte	20
 1014 03de 00       		.byte	0
 1015 03df 00       		.byte	0
 1016 03e0 FF       		.byte	-1
 1017 03e1 00       		.byte	0
 1018 03e2 FF       		.byte	-1
 1019 03e3 00       		.byte	0
 1020 03e4 00       		.byte	0
 1021 03e5 1F       		.byte	31
 1022 03e6 10       		.byte	16
 1023 03e7 17       		.byte	23
 1024 03e8 00       		.byte	0
 1025 03e9 00       		.byte	0
 1026 03ea FC       		.byte	-4
ARM GAS  C:\Users\jdrd3\AppData\Local\Temp\ccQ8iyfh.s 			page 19


 1027 03eb 04       		.byte	4
 1028 03ec F4       		.byte	-12
 1029 03ed 14       		.byte	20
 1030 03ee 14       		.byte	20
 1031 03ef 17       		.byte	23
 1032 03f0 10       		.byte	16
 1033 03f1 17       		.byte	23
 1034 03f2 14       		.byte	20
 1035 03f3 14       		.byte	20
 1036 03f4 F4       		.byte	-12
 1037 03f5 04       		.byte	4
 1038 03f6 F4       		.byte	-12
 1039 03f7 00       		.byte	0
 1040 03f8 00       		.byte	0
 1041 03f9 FF       		.byte	-1
 1042 03fa 00       		.byte	0
 1043 03fb F7       		.byte	-9
 1044 03fc 14       		.byte	20
 1045 03fd 14       		.byte	20
 1046 03fe 14       		.byte	20
 1047 03ff 14       		.byte	20
 1048 0400 14       		.byte	20
 1049 0401 14       		.byte	20
 1050 0402 14       		.byte	20
 1051 0403 F7       		.byte	-9
 1052 0404 00       		.byte	0
 1053 0405 F7       		.byte	-9
 1054 0406 14       		.byte	20
 1055 0407 14       		.byte	20
 1056 0408 14       		.byte	20
 1057 0409 17       		.byte	23
 1058 040a 14       		.byte	20
 1059 040b 10       		.byte	16
 1060 040c 10       		.byte	16
 1061 040d 1F       		.byte	31
 1062 040e 10       		.byte	16
 1063 040f 1F       		.byte	31
 1064 0410 14       		.byte	20
 1065 0411 14       		.byte	20
 1066 0412 14       		.byte	20
 1067 0413 F4       		.byte	-12
 1068 0414 14       		.byte	20
 1069 0415 10       		.byte	16
 1070 0416 10       		.byte	16
 1071 0417 F0       		.byte	-16
 1072 0418 10       		.byte	16
 1073 0419 F0       		.byte	-16
 1074 041a 00       		.byte	0
 1075 041b 00       		.byte	0
 1076 041c 1F       		.byte	31
 1077 041d 10       		.byte	16
 1078 041e 1F       		.byte	31
 1079 041f 00       		.byte	0
 1080 0420 00       		.byte	0
 1081 0421 00       		.byte	0
 1082 0422 1F       		.byte	31
 1083 0423 14       		.byte	20
ARM GAS  C:\Users\jdrd3\AppData\Local\Temp\ccQ8iyfh.s 			page 20


 1084 0424 00       		.byte	0
 1085 0425 00       		.byte	0
 1086 0426 00       		.byte	0
 1087 0427 FC       		.byte	-4
 1088 0428 14       		.byte	20
 1089 0429 00       		.byte	0
 1090 042a 00       		.byte	0
 1091 042b F0       		.byte	-16
 1092 042c 10       		.byte	16
 1093 042d F0       		.byte	-16
 1094 042e 10       		.byte	16
 1095 042f 10       		.byte	16
 1096 0430 FF       		.byte	-1
 1097 0431 10       		.byte	16
 1098 0432 FF       		.byte	-1
 1099 0433 14       		.byte	20
 1100 0434 14       		.byte	20
 1101 0435 14       		.byte	20
 1102 0436 FF       		.byte	-1
 1103 0437 14       		.byte	20
 1104 0438 10       		.byte	16
 1105 0439 10       		.byte	16
 1106 043a 10       		.byte	16
 1107 043b 1F       		.byte	31
 1108 043c 00       		.byte	0
 1109 043d 00       		.byte	0
 1110 043e 00       		.byte	0
 1111 043f 00       		.byte	0
 1112 0440 F0       		.byte	-16
 1113 0441 10       		.byte	16
 1114 0442 FF       		.byte	-1
 1115 0443 FF       		.byte	-1
 1116 0444 FF       		.byte	-1
 1117 0445 FF       		.byte	-1
 1118 0446 FF       		.byte	-1
 1119 0447 F0       		.byte	-16
 1120 0448 F0       		.byte	-16
 1121 0449 F0       		.byte	-16
 1122 044a F0       		.byte	-16
 1123 044b F0       		.byte	-16
 1124 044c FF       		.byte	-1
 1125 044d FF       		.byte	-1
 1126 044e FF       		.byte	-1
 1127 044f 00       		.byte	0
 1128 0450 00       		.byte	0
 1129 0451 00       		.byte	0
 1130 0452 00       		.byte	0
 1131 0453 00       		.byte	0
 1132 0454 FF       		.byte	-1
 1133 0455 FF       		.byte	-1
 1134 0456 0F       		.byte	15
 1135 0457 0F       		.byte	15
 1136 0458 0F       		.byte	15
 1137 0459 0F       		.byte	15
 1138 045a 0F       		.byte	15
 1139 045b 38       		.byte	56
 1140 045c 44       		.byte	68
ARM GAS  C:\Users\jdrd3\AppData\Local\Temp\ccQ8iyfh.s 			page 21


 1141 045d 44       		.byte	68
 1142 045e 38       		.byte	56
 1143 045f 44       		.byte	68
 1144 0460 FC       		.byte	-4
 1145 0461 4A       		.byte	74
 1146 0462 4A       		.byte	74
 1147 0463 4A       		.byte	74
 1148 0464 34       		.byte	52
 1149 0465 7E       		.byte	126
 1150 0466 02       		.byte	2
 1151 0467 02       		.byte	2
 1152 0468 06       		.byte	6
 1153 0469 06       		.byte	6
 1154 046a 02       		.byte	2
 1155 046b 7E       		.byte	126
 1156 046c 02       		.byte	2
 1157 046d 7E       		.byte	126
 1158 046e 02       		.byte	2
 1159 046f 63       		.byte	99
 1160 0470 55       		.byte	85
 1161 0471 49       		.byte	73
 1162 0472 41       		.byte	65
 1163 0473 63       		.byte	99
 1164 0474 38       		.byte	56
 1165 0475 44       		.byte	68
 1166 0476 44       		.byte	68
 1167 0477 3C       		.byte	60
 1168 0478 04       		.byte	4
 1169 0479 40       		.byte	64
 1170 047a 7E       		.byte	126
 1171 047b 20       		.byte	32
 1172 047c 1E       		.byte	30
 1173 047d 20       		.byte	32
 1174 047e 06       		.byte	6
 1175 047f 02       		.byte	2
 1176 0480 7E       		.byte	126
 1177 0481 02       		.byte	2
 1178 0482 02       		.byte	2
 1179 0483 99       		.byte	-103
 1180 0484 A5       		.byte	-91
 1181 0485 E7       		.byte	-25
 1182 0486 A5       		.byte	-91
 1183 0487 99       		.byte	-103
 1184 0488 1C       		.byte	28
 1185 0489 2A       		.byte	42
 1186 048a 49       		.byte	73
 1187 048b 2A       		.byte	42
 1188 048c 1C       		.byte	28
 1189 048d 4C       		.byte	76
 1190 048e 72       		.byte	114
 1191 048f 01       		.byte	1
 1192 0490 72       		.byte	114
 1193 0491 4C       		.byte	76
 1194 0492 30       		.byte	48
 1195 0493 4A       		.byte	74
 1196 0494 4D       		.byte	77
 1197 0495 4D       		.byte	77
ARM GAS  C:\Users\jdrd3\AppData\Local\Temp\ccQ8iyfh.s 			page 22


 1198 0496 30       		.byte	48
 1199 0497 30       		.byte	48
 1200 0498 48       		.byte	72
 1201 0499 78       		.byte	120
 1202 049a 48       		.byte	72
 1203 049b 30       		.byte	48
 1204 049c BC       		.byte	-68
 1205 049d 62       		.byte	98
 1206 049e 5A       		.byte	90
 1207 049f 46       		.byte	70
 1208 04a0 3D       		.byte	61
 1209 04a1 3E       		.byte	62
 1210 04a2 49       		.byte	73
 1211 04a3 49       		.byte	73
 1212 04a4 49       		.byte	73
 1213 04a5 00       		.byte	0
 1214 04a6 7E       		.byte	126
 1215 04a7 01       		.byte	1
 1216 04a8 01       		.byte	1
 1217 04a9 01       		.byte	1
 1218 04aa 7E       		.byte	126
 1219 04ab 2A       		.byte	42
 1220 04ac 2A       		.byte	42
 1221 04ad 2A       		.byte	42
 1222 04ae 2A       		.byte	42
 1223 04af 2A       		.byte	42
 1224 04b0 44       		.byte	68
 1225 04b1 44       		.byte	68
 1226 04b2 5F       		.byte	95
 1227 04b3 44       		.byte	68
 1228 04b4 44       		.byte	68
 1229 04b5 40       		.byte	64
 1230 04b6 51       		.byte	81
 1231 04b7 4A       		.byte	74
 1232 04b8 44       		.byte	68
 1233 04b9 40       		.byte	64
 1234 04ba 40       		.byte	64
 1235 04bb 44       		.byte	68
 1236 04bc 4A       		.byte	74
 1237 04bd 51       		.byte	81
 1238 04be 40       		.byte	64
 1239 04bf 00       		.byte	0
 1240 04c0 00       		.byte	0
 1241 04c1 FF       		.byte	-1
 1242 04c2 01       		.byte	1
 1243 04c3 03       		.byte	3
 1244 04c4 E0       		.byte	-32
 1245 04c5 80       		.byte	-128
 1246 04c6 FF       		.byte	-1
 1247 04c7 00       		.byte	0
 1248 04c8 00       		.byte	0
 1249 04c9 08       		.byte	8
 1250 04ca 08       		.byte	8
 1251 04cb 6B       		.byte	107
 1252 04cc 6B       		.byte	107
 1253 04cd 08       		.byte	8
 1254 04ce 36       		.byte	54
ARM GAS  C:\Users\jdrd3\AppData\Local\Temp\ccQ8iyfh.s 			page 23


 1255 04cf 12       		.byte	18
 1256 04d0 36       		.byte	54
 1257 04d1 24       		.byte	36
 1258 04d2 36       		.byte	54
 1259 04d3 06       		.byte	6
 1260 04d4 0F       		.byte	15
 1261 04d5 09       		.byte	9
 1262 04d6 0F       		.byte	15
 1263 04d7 06       		.byte	6
 1264 04d8 00       		.byte	0
 1265 04d9 00       		.byte	0
 1266 04da 18       		.byte	24
 1267 04db 18       		.byte	24
 1268 04dc 00       		.byte	0
 1269 04dd 00       		.byte	0
 1270 04de 00       		.byte	0
 1271 04df 10       		.byte	16
 1272 04e0 10       		.byte	16
 1273 04e1 00       		.byte	0
 1274 04e2 30       		.byte	48
 1275 04e3 40       		.byte	64
 1276 04e4 FF       		.byte	-1
 1277 04e5 01       		.byte	1
 1278 04e6 01       		.byte	1
 1279 04e7 00       		.byte	0
 1280 04e8 1F       		.byte	31
 1281 04e9 01       		.byte	1
 1282 04ea 01       		.byte	1
 1283 04eb 1E       		.byte	30
 1284 04ec 00       		.byte	0
 1285 04ed 19       		.byte	25
 1286 04ee 1D       		.byte	29
 1287 04ef 17       		.byte	23
 1288 04f0 12       		.byte	18
 1289 04f1 00       		.byte	0
 1290 04f2 3C       		.byte	60
 1291 04f3 3C       		.byte	60
 1292 04f4 3C       		.byte	60
 1293 04f5 3C       		.byte	60
 1294 04f6 00       		.byte	0
 1295 04f7 00       		.byte	0
 1296 04f8 00       		.byte	0
 1297 04f9 00       		.byte	0
 1298 04fa 00       		.byte	0
 1299              		.bss
 1300              	_i2caddr:
 1301 0000 00       		.space	1
 1302              		.data
 1303              		.align	2
 1304              		.type	SSD1306_buffer, %object
 1305              		.size	SSD1306_buffer, 1025
 1306              	SSD1306_buffer:
 1307 0000 40       		.byte	64
 1308 0001 00000000 		.space	1024
 1308      00000000 
 1308      00000000 
 1308      00000000 
ARM GAS  C:\Users\jdrd3\AppData\Local\Temp\ccQ8iyfh.s 			page 24


 1308      00000000 
 1309 0401 000000   		.align	2
 1310              		.type	_displaybuf, %object
 1311              		.size	_displaybuf, 4
 1312              	_displaybuf:
 1313 0404 01000000 		.word	SSD1306_buffer+1
 1314              		.align	1
 1315              		.type	_displaybuf_size, %object
 1316              		.size	_displaybuf_size, 2
 1317              	_displaybuf_size:
 1318 0408 0004     		.short	1024
 1319              		.section	.rodata
 1320 04fb 00       		.align	2
 1321              	.LC0:
 1322 04fc 00       		.byte	0
 1323 04fd AE       		.byte	-82
 1324 04fe D5       		.byte	-43
 1325 04ff 80       		.byte	-128
 1326 0500 A8       		.byte	-88
 1327 0501 3F       		.byte	63
 1328 0502 D3       		.byte	-45
 1329 0503 00       		.byte	0
 1330 0504 40       		.byte	64
 1331 0505 8D       		.byte	-115
 1332 0506 14       		.byte	20
 1333 0507 20       		.byte	32
 1334 0508 00       		.byte	0
 1335 0509 A1       		.byte	-95
 1336 050a C8       		.byte	-56
 1337 050b DA       		.byte	-38
 1338 050c 12       		.byte	18
 1339 050d 81       		.byte	-127
 1340 050e CF       		.byte	-49
 1341 050f D9       		.byte	-39
 1342 0510 F1       		.byte	-15
 1343 0511 DB       		.byte	-37
 1344 0512 40       		.byte	64
 1345 0513 A4       		.byte	-92
 1346 0514 A6       		.byte	-90
 1347 0515 AF       		.byte	-81
 1348              		.section	.text.display_init,"ax",%progbits
 1349              		.align	2
 1350              		.global	display_init
 1351              		.code	16
 1352              		.thumb_func
 1353              		.type	display_init, %function
 1354              	display_init:
 1355              	.LFB33:
 1356              		.file 1 "ssd1306.c"
   1:ssd1306.c     **** /*
   2:ssd1306.c     **** 
   3:ssd1306.c     **** SSD1306 OLED - I2C driver
   4:ssd1306.c     **** 
   5:ssd1306.c     **** Derk Steggewentz, 3/2015 
   6:ssd1306.c     **** 
   7:ssd1306.c     **** This is a I2C driver for SSD1306 OLED displays including graphics library.
   8:ssd1306.c     **** 
ARM GAS  C:\Users\jdrd3\AppData\Local\Temp\ccQ8iyfh.s 			page 25


   9:ssd1306.c     **** 
  10:ssd1306.c     **** The graphics library part (gfx_ functions) is based on the Adafruit graphics library.
  11:ssd1306.c     **** 
  12:ssd1306.c     **** 
  13:ssd1306.c     **** No license restrictions on my part, do whatever you want as long as you follow the inherited
  14:ssd1306.c     **** license requirements (applying to the Adafruit graphics library part).
  15:ssd1306.c     **** 
  16:ssd1306.c     **** 
  17:ssd1306.c     **** ===== derived license (for graphics library) ======
  18:ssd1306.c     **** 
  19:ssd1306.c     **** Copyright (c) 2013 Adafruit Industries. All rights reserved.
  20:ssd1306.c     **** 
  21:ssd1306.c     **** Redistribution and use in source and binary forms, with or without
  22:ssd1306.c     **** modification, are permitted provided that the following conditions are met:
  23:ssd1306.c     **** - Redistributions of source code must retain the above copyright notice,
  24:ssd1306.c     **** this list of conditions and the following disclaimer.
  25:ssd1306.c     **** - Redistributions in binary form must reproduce the above copyright notice,
  26:ssd1306.c     **** this list of conditions and the following disclaimer in the documentation
  27:ssd1306.c     **** and/or other materials provided with the distribution.
  28:ssd1306.c     **** THIS SOFTWARE IS PROVIDED BY THE COPYRIGHT HOLDERS AND CONTRIBUTORS "AS IS"
  29:ssd1306.c     **** AND ANY EXPRESS OR IMPLIED WARRANTIES, INCLUDING, BUT NOT LIMITED TO, THE
  30:ssd1306.c     **** IMPLIED WARRANTIES OF MERCHANTABILITY AND FITNESS FOR A PARTICULAR PURPOSE
  31:ssd1306.c     **** ARE DISCLAIMED. IN NO EVENT SHALL THE COPYRIGHT HOLDER OR CONTRIBUTORS BE
  32:ssd1306.c     **** LIABLE FOR ANY DIRECT, INDIRECT, INCIDENTAL, SPECIAL, EXEMPLARY, OR
  33:ssd1306.c     **** CONSEQUENTIAL DAMAGES (INCLUDING, BUT NOT LIMITED TO, PROCUREMENT OF
  34:ssd1306.c     **** SUBSTITUTE GOODS OR SERVICES; LOSS OF USE, DATA, OR PROFITS; OR BUSINESS
  35:ssd1306.c     **** INTERRUPTION) HOWEVER CAUSED AND ON ANY THEORY OF LIABILITY, WHETHER IN
  36:ssd1306.c     **** CONTRACT, STRICT LIABILITY, OR TORT (INCLUDING NEGLIGENCE OR OTHERWISE)
  37:ssd1306.c     **** ARISING IN ANY WAY OUT OF THE USE OF THIS SOFTWARE, EVEN IF ADVISED OF THE
  38:ssd1306.c     **** POSSIBILITY OF SUCH DAMAGE.
  39:ssd1306.c     **** 
  40:ssd1306.c     **** */
  41:ssd1306.c     **** 
  42:ssd1306.c     **** 
  43:ssd1306.c     **** #include <project.h>
  44:ssd1306.c     **** #include <stdlib.h>
  45:ssd1306.c     **** 
  46:ssd1306.c     **** #include "font.h"
  47:ssd1306.c     **** #include "ssd1306.h"
  48:ssd1306.c     **** 
  49:ssd1306.c     **** 
  50:ssd1306.c     **** #define DISPLAYWIDTH 128
  51:ssd1306.c     **** #define DISPLAYHEIGHT 64
  52:ssd1306.c     ****     
  53:ssd1306.c     **** #define SSD1306_SETCONTRAST 0x81
  54:ssd1306.c     **** #define SSD1306_DISPLAYALLON_RESUME 0xA4
  55:ssd1306.c     **** #define SSD1306_DISPLAYALLON 0xA5
  56:ssd1306.c     **** #define SSD1306_NORMALDISPLAY 0xA6
  57:ssd1306.c     **** #define SSD1306_INVERTDISPLAY 0xA7
  58:ssd1306.c     **** #define SSD1306_DISPLAYOFF 0xAE
  59:ssd1306.c     **** #define SSD1306_DISPLAYON 0xAF
  60:ssd1306.c     **** #define SSD1306_SETDISPLAYOFFSET 0xD3
  61:ssd1306.c     **** #define SSD1306_SETCOMPINS 0xDA
  62:ssd1306.c     **** #define SSD1306_SETVCOMDETECT 0xDB
  63:ssd1306.c     **** #define SSD1306_SETDISPLAYCLOCKDIV 0xD5
  64:ssd1306.c     **** #define SSD1306_SETPRECHARGE 0xD9
  65:ssd1306.c     **** #define SSD1306_SETMULTIPLEX 0xA8
ARM GAS  C:\Users\jdrd3\AppData\Local\Temp\ccQ8iyfh.s 			page 26


  66:ssd1306.c     **** #define SSD1306_SETLOWCOLUMN 0x00
  67:ssd1306.c     **** #define SSD1306_SETHIGHCOLUMN 0x10
  68:ssd1306.c     **** #define SSD1306_SETSTARTLINE 0x40
  69:ssd1306.c     **** #define SSD1306_MEMORYMODE 0x20
  70:ssd1306.c     **** #define SSD1306_COLUMNADDR 0x21
  71:ssd1306.c     **** #define SSD1306_PAGEADDR 0x22
  72:ssd1306.c     **** #define SSD1306_COMSCANINC 0xC0
  73:ssd1306.c     **** #define SSD1306_COMSCANDEC 0xC8
  74:ssd1306.c     **** #define SSD1306_SEGREMAP 0xA0
  75:ssd1306.c     **** #define SSD1306_CHARGEPUMP 0x8D
  76:ssd1306.c     **** #define SSD1306_EXTERNALVCC 0x1
  77:ssd1306.c     **** #define SSD1306_SWITCHCAPVCC 0x2
  78:ssd1306.c     **** #define SSD1306_ACTIVATE_SCROLL 0x2F
  79:ssd1306.c     **** #define SSD1306_DEACTIVATE_SCROLL 0x2E
  80:ssd1306.c     **** 
  81:ssd1306.c     **** 
  82:ssd1306.c     **** // I2C result status
  83:ssd1306.c     **** #define TRANSFER_CMPLT    (0x00u)
  84:ssd1306.c     **** #define TRANSFER_ERROR    (0xFFu)
  85:ssd1306.c     **** 
  86:ssd1306.c     **** 
  87:ssd1306.c     **** static uint32 display_write_buf( uint8* buf, uint16_t size );
  88:ssd1306.c     **** 
  89:ssd1306.c     **** void gfx_init( int16_t width, int16_t height );
  90:ssd1306.c     **** 
  91:ssd1306.c     **** static uint8 _i2caddr;
  92:ssd1306.c     **** 
  93:ssd1306.c     **** // display memory buffer ( === MUST INCLUDE === the preceding I2C 0x40 control byte for the display
  94:ssd1306.c     **** static uint8_t SSD1306_buffer[DISPLAYHEIGHT * DISPLAYWIDTH / 8 + 1] = { 0x40 };
  95:ssd1306.c     **** // pointer to actual display memory buffer
  96:ssd1306.c     **** static uint8_t* _displaybuf = SSD1306_buffer+1;
  97:ssd1306.c     **** static uint16_t _displaybuf_size = sizeof(SSD1306_buffer) - 1;
  98:ssd1306.c     **** 
  99:ssd1306.c     **** // see data sheet page 25 for Graphic Display Data RAM organization
 100:ssd1306.c     **** // 8 pages, each page a row of DISPLAYWIDTH bytes
 101:ssd1306.c     **** // start address of of row: y/8*DISPLAYWIDTH
 102:ssd1306.c     **** // x pos in row: == x 
 103:ssd1306.c     **** #define GDDRAM_ADDRESS(X,Y) ((_displaybuf)+((Y)/8)*(DISPLAYWIDTH)+(X))
 104:ssd1306.c     **** 
 105:ssd1306.c     **** // lower 3 bit of y determine vertical pixel position (pos 0...7) in GDDRAM byte
 106:ssd1306.c     **** // (y&0x07) == position of pixel on row (page). LSB is top, MSB bottom
 107:ssd1306.c     **** #define GDDRAM_PIXMASK(Y) (1 << ((Y)&0x07))
 108:ssd1306.c     **** 
 109:ssd1306.c     **** #define PIXEL_ON(X,Y) (*GDDRAM_ADDRESS(x,y) |= GDDRAM_PIXMASK(y))
 110:ssd1306.c     **** #define PIXEL_OFF(X,Y) (*GDDRAM_ADDRESS(x,y) &= ~GDDRAM_PIXMASK(y))
 111:ssd1306.c     **** #define PIXEL_TOGGLE(X,Y) (*GDDRAM_ADDRESS(x,y) ^= GDDRAM_PIXMASK(y)) 
 112:ssd1306.c     **** 
 113:ssd1306.c     **** 
 114:ssd1306.c     **** 
 115:ssd1306.c     **** // call before first use of other functions
 116:ssd1306.c     **** void display_init( uint8 i2caddr ){
 1357              		.loc 1 116 0
 1358              		.cfi_startproc
 1359              		@ args = 0, pretend = 0, frame = 40
 1360              		@ frame_needed = 1, uses_anonymous_args = 0
 1361 0000 80B5     		push	{r7, lr}
 1362              		.cfi_def_cfa_offset 8
ARM GAS  C:\Users\jdrd3\AppData\Local\Temp\ccQ8iyfh.s 			page 27


 1363              		.cfi_offset 7, -8
 1364              		.cfi_offset 14, -4
 1365 0002 8AB0     		sub	sp, sp, #40
 1366              		.cfi_def_cfa_offset 48
 1367 0004 00AF     		add	r7, sp, #0
 1368              		.cfi_def_cfa_register 7
 1369 0006 0200     		movs	r2, r0
 1370 0008 FB1D     		adds	r3, r7, #7
 1371 000a 1A70     		strb	r2, [r3]
 117:ssd1306.c     ****     
 118:ssd1306.c     ****     _i2caddr = i2caddr;
 1372              		.loc 1 118 0
 1373 000c 0D4B     		ldr	r3, .L2
 1374 000e FA1D     		adds	r2, r7, #7
 1375 0010 1278     		ldrb	r2, [r2]
 1376 0012 1A70     		strb	r2, [r3]
 119:ssd1306.c     ****     gfx_init( DISPLAYWIDTH, DISPLAYHEIGHT );
 1377              		.loc 1 119 0
 1378 0014 4021     		movs	r1, #64
 1379 0016 8020     		movs	r0, #128
 1380 0018 FFF7FEFF 		bl	gfx_init
 120:ssd1306.c     ****     
 121:ssd1306.c     ****     uint8 cmdbuf[] = {
 1381              		.loc 1 121 0
 1382 001c 0C23     		movs	r3, #12
 1383 001e FA18     		adds	r2, r7, r3
 1384 0020 094B     		ldr	r3, .L2+4
 1385 0022 1000     		movs	r0, r2
 1386 0024 1900     		movs	r1, r3
 1387 0026 1A23     		movs	r3, #26
 1388 0028 1A00     		movs	r2, r3
 1389 002a FFF7FEFF 		bl	memcpy
 122:ssd1306.c     ****         0x00,
 123:ssd1306.c     ****         SSD1306_DISPLAYOFF,
 124:ssd1306.c     ****         SSD1306_SETDISPLAYCLOCKDIV,
 125:ssd1306.c     ****         0x80,
 126:ssd1306.c     ****         SSD1306_SETMULTIPLEX,
 127:ssd1306.c     ****         0x3f,
 128:ssd1306.c     ****         SSD1306_SETDISPLAYOFFSET,
 129:ssd1306.c     ****         0x00,
 130:ssd1306.c     ****         SSD1306_SETSTARTLINE | 0x0,
 131:ssd1306.c     ****         SSD1306_CHARGEPUMP,
 132:ssd1306.c     ****         0x14,
 133:ssd1306.c     ****         SSD1306_MEMORYMODE,
 134:ssd1306.c     ****         0x00,
 135:ssd1306.c     ****         SSD1306_SEGREMAP | 0x1,
 136:ssd1306.c     ****         SSD1306_COMSCANDEC,
 137:ssd1306.c     ****         SSD1306_SETCOMPINS,
 138:ssd1306.c     ****         0x12,
 139:ssd1306.c     ****         SSD1306_SETCONTRAST,
 140:ssd1306.c     ****         0xcf,
 141:ssd1306.c     ****         SSD1306_SETPRECHARGE,
 142:ssd1306.c     ****         0xf1,
 143:ssd1306.c     ****         SSD1306_SETVCOMDETECT,
 144:ssd1306.c     ****         0x40,
 145:ssd1306.c     ****         SSD1306_DISPLAYALLON_RESUME,
 146:ssd1306.c     ****         SSD1306_NORMALDISPLAY,
ARM GAS  C:\Users\jdrd3\AppData\Local\Temp\ccQ8iyfh.s 			page 28


 147:ssd1306.c     ****         SSD1306_DISPLAYON
 148:ssd1306.c     ****     };
 149:ssd1306.c     ****     
 150:ssd1306.c     ****     display_write_buf( cmdbuf, sizeof(cmdbuf) ); 
 1390              		.loc 1 150 0
 1391 002e 0C23     		movs	r3, #12
 1392 0030 FB18     		adds	r3, r7, r3
 1393 0032 1A21     		movs	r1, #26
 1394 0034 1800     		movs	r0, r3
 1395 0036 FFF7FEFF 		bl	display_write_buf
 151:ssd1306.c     **** }
 1396              		.loc 1 151 0
 1397 003a C046     		nop
 1398 003c BD46     		mov	sp, r7
 1399 003e 0AB0     		add	sp, sp, #40
 1400              		@ sp needed
 1401 0040 80BD     		pop	{r7, pc}
 1402              	.L3:
 1403 0042 C046     		.align	2
 1404              	.L2:
 1405 0044 00000000 		.word	_i2caddr
 1406 0048 FC040000 		.word	.LC0
 1407              		.cfi_endproc
 1408              	.LFE33:
 1409              		.size	display_init, .-display_init
 1410              		.section	.text.display_write_buf,"ax",%progbits
 1411              		.align	2
 1412              		.code	16
 1413              		.thumb_func
 1414              		.type	display_write_buf, %function
 1415              	display_write_buf:
 1416              	.LFB34:
 152:ssd1306.c     **** 
 153:ssd1306.c     **** 
 154:ssd1306.c     **** // for submitting command sequences:
 155:ssd1306.c     **** //  buf[0] must be 0x00
 156:ssd1306.c     **** // for submitting bulk data (writing to display RAM):
 157:ssd1306.c     **** //  buf[0] must be 0x40
 158:ssd1306.c     **** static uint32 display_write_buf( uint8* buf, uint16_t size ){
 1417              		.loc 1 158 0
 1418              		.cfi_startproc
 1419              		@ args = 0, pretend = 0, frame = 16
 1420              		@ frame_needed = 1, uses_anonymous_args = 0
 1421 0000 80B5     		push	{r7, lr}
 1422              		.cfi_def_cfa_offset 8
 1423              		.cfi_offset 7, -8
 1424              		.cfi_offset 14, -4
 1425 0002 84B0     		sub	sp, sp, #16
 1426              		.cfi_def_cfa_offset 24
 1427 0004 00AF     		add	r7, sp, #0
 1428              		.cfi_def_cfa_register 7
 1429 0006 7860     		str	r0, [r7, #4]
 1430 0008 0A00     		movs	r2, r1
 1431 000a BB1C     		adds	r3, r7, #2
 1432 000c 1A80     		strh	r2, [r3]
 159:ssd1306.c     **** 
 160:ssd1306.c     ****     uint32 status = TRANSFER_ERROR;
ARM GAS  C:\Users\jdrd3\AppData\Local\Temp\ccQ8iyfh.s 			page 29


 1433              		.loc 1 160 0
 1434 000e FF23     		movs	r3, #255
 1435 0010 FB60     		str	r3, [r7, #12]
 161:ssd1306.c     **** 
 162:ssd1306.c     ****     I2COLED_I2CMasterWriteBuf(_i2caddr, buf, size, I2COLED_I2C_MODE_COMPLETE_XFER);
 1436              		.loc 1 162 0
 1437 0012 134B     		ldr	r3, .L8
 1438 0014 1B78     		ldrb	r3, [r3]
 1439 0016 1800     		movs	r0, r3
 1440 0018 BB1C     		adds	r3, r7, #2
 1441 001a 1A88     		ldrh	r2, [r3]
 1442 001c 7968     		ldr	r1, [r7, #4]
 1443 001e 0023     		movs	r3, #0
 1444 0020 FFF7FEFF 		bl	I2COLED_I2CMasterWriteBuf
 163:ssd1306.c     ****     while( 0u == (I2COLED_I2CMasterStatus() & I2COLED_I2C_MSTAT_WR_CMPLT) );
 1445              		.loc 1 163 0
 1446 0024 C046     		nop
 1447              	.L5:
 1448              		.loc 1 163 0 is_stmt 0 discriminator 1
 1449 0026 FFF7FEFF 		bl	I2COLED_I2CMasterStatus
 1450 002a 0200     		movs	r2, r0
 1451 002c 0223     		movs	r3, #2
 1452 002e 1340     		ands	r3, r2
 1453 0030 F9D0     		beq	.L5
 164:ssd1306.c     **** 
 165:ssd1306.c     ****     if( 0u == (I2COLED_I2C_MSTAT_ERR_XFER & I2COLED_I2CMasterStatus()) ){
 1454              		.loc 1 165 0 is_stmt 1
 1455 0032 FFF7FEFF 		bl	I2COLED_I2CMasterStatus
 1456 0036 0200     		movs	r2, r0
 1457 0038 8023     		movs	r3, #128
 1458 003a 9B00     		lsls	r3, r3, #2
 1459 003c 1340     		ands	r3, r2
 1460 003e 08D1     		bne	.L6
 166:ssd1306.c     ****         // Check if all bytes was written 
 167:ssd1306.c     ****         if( I2COLED_I2CMasterGetWriteBufSize() == size ){
 1461              		.loc 1 167 0
 1462 0040 FFF7FEFF 		bl	I2COLED_I2CMasterGetWriteBufSize
 1463 0044 0200     		movs	r2, r0
 1464 0046 BB1C     		adds	r3, r7, #2
 1465 0048 1B88     		ldrh	r3, [r3]
 1466 004a 9A42     		cmp	r2, r3
 1467 004c 01D1     		bne	.L6
 168:ssd1306.c     ****             status = TRANSFER_CMPLT;
 1468              		.loc 1 168 0
 1469 004e 0023     		movs	r3, #0
 1470 0050 FB60     		str	r3, [r7, #12]
 1471              	.L6:
 169:ssd1306.c     ****         }
 170:ssd1306.c     ****     }
 171:ssd1306.c     ****     I2COLED_I2CMasterClearStatus();
 1472              		.loc 1 171 0
 1473 0052 FFF7FEFF 		bl	I2COLED_I2CMasterClearStatus
 172:ssd1306.c     **** 
 173:ssd1306.c     ****     return status;
 1474              		.loc 1 173 0
 1475 0056 FB68     		ldr	r3, [r7, #12]
 174:ssd1306.c     **** }
ARM GAS  C:\Users\jdrd3\AppData\Local\Temp\ccQ8iyfh.s 			page 30


 1476              		.loc 1 174 0
 1477 0058 1800     		movs	r0, r3
 1478 005a BD46     		mov	sp, r7
 1479 005c 04B0     		add	sp, sp, #16
 1480              		@ sp needed
 1481 005e 80BD     		pop	{r7, pc}
 1482              	.L9:
 1483              		.align	2
 1484              	.L8:
 1485 0060 00000000 		.word	_i2caddr
 1486              		.cfi_endproc
 1487              	.LFE34:
 1488              		.size	display_write_buf, .-display_write_buf
 1489              		.section	.text.display_setPixel,"ax",%progbits
 1490              		.align	2
 1491              		.code	16
 1492              		.thumb_func
 1493              		.type	display_setPixel, %function
 1494              	display_setPixel:
 1495              	.LFB35:
 175:ssd1306.c     **** 
 176:ssd1306.c     **** 
 177:ssd1306.c     **** // used by gfx_ functions. Needs to be implemented by display_
 178:ssd1306.c     **** static void display_setPixel( int16_t x, int16_t y, uint16_t color ){
 1496              		.loc 1 178 0
 1497              		.cfi_startproc
 1498              		@ args = 0, pretend = 0, frame = 8
 1499              		@ frame_needed = 1, uses_anonymous_args = 0
 1500 0000 90B5     		push	{r4, r7, lr}
 1501              		.cfi_def_cfa_offset 12
 1502              		.cfi_offset 4, -12
 1503              		.cfi_offset 7, -8
 1504              		.cfi_offset 14, -4
 1505 0002 83B0     		sub	sp, sp, #12
 1506              		.cfi_def_cfa_offset 24
 1507 0004 00AF     		add	r7, sp, #0
 1508              		.cfi_def_cfa_register 7
 1509 0006 0400     		movs	r4, r0
 1510 0008 0800     		movs	r0, r1
 1511 000a 1100     		movs	r1, r2
 1512 000c BB1D     		adds	r3, r7, #6
 1513 000e 221C     		adds	r2, r4, #0
 1514 0010 1A80     		strh	r2, [r3]
 1515 0012 3B1D     		adds	r3, r7, #4
 1516 0014 021C     		adds	r2, r0, #0
 1517 0016 1A80     		strh	r2, [r3]
 1518 0018 BB1C     		adds	r3, r7, #2
 1519 001a 0A1C     		adds	r2, r1, #0
 1520 001c 1A80     		strh	r2, [r3]
 179:ssd1306.c     ****     
 180:ssd1306.c     ****     if( (x < 0) || (x >= DISPLAYWIDTH) || (y < 0) || (y >= DISPLAYHEIGHT) )
 1521              		.loc 1 180 0
 1522 001e BB1D     		adds	r3, r7, #6
 1523 0020 0022     		movs	r2, #0
 1524 0022 9B5E     		ldrsh	r3, [r3, r2]
 1525 0024 002B     		cmp	r3, #0
 1526 0026 00DA     		bge	.LCB151
ARM GAS  C:\Users\jdrd3\AppData\Local\Temp\ccQ8iyfh.s 			page 31


 1527 0028 A1E0     		b	.L20	@long jump
 1528              	.LCB151:
 1529              		.loc 1 180 0 is_stmt 0 discriminator 1
 1530 002a BB1D     		adds	r3, r7, #6
 1531 002c 0022     		movs	r2, #0
 1532 002e 9B5E     		ldrsh	r3, [r3, r2]
 1533 0030 7F2B     		cmp	r3, #127
 1534 0032 00DD     		ble	.LCB155
 1535 0034 9BE0     		b	.L20	@long jump
 1536              	.LCB155:
 1537              		.loc 1 180 0 discriminator 2
 1538 0036 3B1D     		adds	r3, r7, #4
 1539 0038 0022     		movs	r2, #0
 1540 003a 9B5E     		ldrsh	r3, [r3, r2]
 1541 003c 002B     		cmp	r3, #0
 1542 003e 00DA     		bge	.LCB159
 1543 0040 95E0     		b	.L20	@long jump
 1544              	.LCB159:
 1545              		.loc 1 180 0 discriminator 3
 1546 0042 3B1D     		adds	r3, r7, #4
 1547 0044 0022     		movs	r2, #0
 1548 0046 9B5E     		ldrsh	r3, [r3, r2]
 1549 0048 3F2B     		cmp	r3, #63
 1550 004a 00DD     		ble	.LCB163
 1551 004c 8FE0     		b	.L20	@long jump
 1552              	.LCB163:
 181:ssd1306.c     ****         return;
 182:ssd1306.c     **** 
 183:ssd1306.c     ****     switch( color ){
 1553              		.loc 1 183 0 is_stmt 1
 1554 004e BB1C     		adds	r3, r7, #2
 1555 0050 1B88     		ldrh	r3, [r3]
 1556 0052 012B     		cmp	r3, #1
 1557 0054 04D0     		beq	.L14
 1558 0056 022B     		cmp	r3, #2
 1559 0058 5CD0     		beq	.L15
 1560 005a 002B     		cmp	r3, #0
 1561 005c 2CD0     		beq	.L16
 1562 005e 87E0     		b	.L10
 1563              	.L14:
 184:ssd1306.c     ****         case WHITE: 
 185:ssd1306.c     ****             PIXEL_ON(x,y);
 1564              		.loc 1 185 0
 1565 0060 454B     		ldr	r3, .L21
 1566 0062 1A68     		ldr	r2, [r3]
 1567 0064 3B1D     		adds	r3, r7, #4
 1568 0066 0021     		movs	r1, #0
 1569 0068 5B5E     		ldrsh	r3, [r3, r1]
 1570 006a 002B     		cmp	r3, #0
 1571 006c 00DA     		bge	.L17
 1572 006e 0733     		adds	r3, r3, #7
 1573              	.L17:
 1574 0070 DB10     		asrs	r3, r3, #3
 1575 0072 18B2     		sxth	r0, r3
 1576 0074 0300     		movs	r3, r0
 1577 0076 DB01     		lsls	r3, r3, #7
 1578 0078 1900     		movs	r1, r3
ARM GAS  C:\Users\jdrd3\AppData\Local\Temp\ccQ8iyfh.s 			page 32


 1579 007a BB1D     		adds	r3, r7, #6
 1580 007c 0024     		movs	r4, #0
 1581 007e 1B5F     		ldrsh	r3, [r3, r4]
 1582 0080 CB18     		adds	r3, r1, r3
 1583 0082 D218     		adds	r2, r2, r3
 1584 0084 3C4B     		ldr	r3, .L21
 1585 0086 1968     		ldr	r1, [r3]
 1586 0088 0300     		movs	r3, r0
 1587 008a DB01     		lsls	r3, r3, #7
 1588 008c 1800     		movs	r0, r3
 1589 008e BB1D     		adds	r3, r7, #6
 1590 0090 0024     		movs	r4, #0
 1591 0092 1B5F     		ldrsh	r3, [r3, r4]
 1592 0094 C318     		adds	r3, r0, r3
 1593 0096 CB18     		adds	r3, r1, r3
 1594 0098 1B78     		ldrb	r3, [r3]
 1595 009a 59B2     		sxtb	r1, r3
 1596 009c 3B1D     		adds	r3, r7, #4
 1597 009e 1B88     		ldrh	r3, [r3]
 1598 00a0 1800     		movs	r0, r3
 1599 00a2 0723     		movs	r3, #7
 1600 00a4 0340     		ands	r3, r0
 1601 00a6 0120     		movs	r0, #1
 1602 00a8 9840     		lsls	r0, r0, r3
 1603 00aa 0300     		movs	r3, r0
 1604 00ac 5BB2     		sxtb	r3, r3
 1605 00ae 0B43     		orrs	r3, r1
 1606 00b0 5BB2     		sxtb	r3, r3
 1607 00b2 DBB2     		uxtb	r3, r3
 1608 00b4 1370     		strb	r3, [r2]
 186:ssd1306.c     ****             break;
 1609              		.loc 1 186 0
 1610 00b6 5BE0     		b	.L10
 1611              	.L16:
 187:ssd1306.c     ****         case BLACK:
 188:ssd1306.c     ****             PIXEL_OFF(x,y);
 1612              		.loc 1 188 0
 1613 00b8 2F4B     		ldr	r3, .L21
 1614 00ba 1A68     		ldr	r2, [r3]
 1615 00bc 3B1D     		adds	r3, r7, #4
 1616 00be 0021     		movs	r1, #0
 1617 00c0 5B5E     		ldrsh	r3, [r3, r1]
 1618 00c2 002B     		cmp	r3, #0
 1619 00c4 00DA     		bge	.L18
 1620 00c6 0733     		adds	r3, r3, #7
 1621              	.L18:
 1622 00c8 DB10     		asrs	r3, r3, #3
 1623 00ca 18B2     		sxth	r0, r3
 1624 00cc 0300     		movs	r3, r0
 1625 00ce DB01     		lsls	r3, r3, #7
 1626 00d0 1900     		movs	r1, r3
 1627 00d2 BB1D     		adds	r3, r7, #6
 1628 00d4 0024     		movs	r4, #0
 1629 00d6 1B5F     		ldrsh	r3, [r3, r4]
 1630 00d8 CB18     		adds	r3, r1, r3
 1631 00da D218     		adds	r2, r2, r3
 1632 00dc 264B     		ldr	r3, .L21
ARM GAS  C:\Users\jdrd3\AppData\Local\Temp\ccQ8iyfh.s 			page 33


 1633 00de 1968     		ldr	r1, [r3]
 1634 00e0 0300     		movs	r3, r0
 1635 00e2 DB01     		lsls	r3, r3, #7
 1636 00e4 1800     		movs	r0, r3
 1637 00e6 BB1D     		adds	r3, r7, #6
 1638 00e8 0024     		movs	r4, #0
 1639 00ea 1B5F     		ldrsh	r3, [r3, r4]
 1640 00ec C318     		adds	r3, r0, r3
 1641 00ee CB18     		adds	r3, r1, r3
 1642 00f0 1B78     		ldrb	r3, [r3]
 1643 00f2 5BB2     		sxtb	r3, r3
 1644 00f4 391D     		adds	r1, r7, #4
 1645 00f6 0988     		ldrh	r1, [r1]
 1646 00f8 0800     		movs	r0, r1
 1647 00fa 0721     		movs	r1, #7
 1648 00fc 0140     		ands	r1, r0
 1649 00fe 0120     		movs	r0, #1
 1650 0100 8840     		lsls	r0, r0, r1
 1651 0102 0100     		movs	r1, r0
 1652 0104 49B2     		sxtb	r1, r1
 1653 0106 C943     		mvns	r1, r1
 1654 0108 49B2     		sxtb	r1, r1
 1655 010a 0B40     		ands	r3, r1
 1656 010c 5BB2     		sxtb	r3, r3
 1657 010e DBB2     		uxtb	r3, r3
 1658 0110 1370     		strb	r3, [r2]
 189:ssd1306.c     ****             break;
 1659              		.loc 1 189 0
 1660 0112 2DE0     		b	.L10
 1661              	.L15:
 190:ssd1306.c     ****         case INVERSE: 
 191:ssd1306.c     ****             PIXEL_TOGGLE(x,y);
 1662              		.loc 1 191 0
 1663 0114 184B     		ldr	r3, .L21
 1664 0116 1A68     		ldr	r2, [r3]
 1665 0118 3B1D     		adds	r3, r7, #4
 1666 011a 0021     		movs	r1, #0
 1667 011c 5B5E     		ldrsh	r3, [r3, r1]
 1668 011e 002B     		cmp	r3, #0
 1669 0120 00DA     		bge	.L19
 1670 0122 0733     		adds	r3, r3, #7
 1671              	.L19:
 1672 0124 DB10     		asrs	r3, r3, #3
 1673 0126 18B2     		sxth	r0, r3
 1674 0128 0300     		movs	r3, r0
 1675 012a DB01     		lsls	r3, r3, #7
 1676 012c 1900     		movs	r1, r3
 1677 012e BB1D     		adds	r3, r7, #6
 1678 0130 0024     		movs	r4, #0
 1679 0132 1B5F     		ldrsh	r3, [r3, r4]
 1680 0134 CB18     		adds	r3, r1, r3
 1681 0136 D218     		adds	r2, r2, r3
 1682 0138 0F4B     		ldr	r3, .L21
 1683 013a 1968     		ldr	r1, [r3]
 1684 013c 0300     		movs	r3, r0
 1685 013e DB01     		lsls	r3, r3, #7
 1686 0140 1800     		movs	r0, r3
ARM GAS  C:\Users\jdrd3\AppData\Local\Temp\ccQ8iyfh.s 			page 34


 1687 0142 BB1D     		adds	r3, r7, #6
 1688 0144 0024     		movs	r4, #0
 1689 0146 1B5F     		ldrsh	r3, [r3, r4]
 1690 0148 C318     		adds	r3, r0, r3
 1691 014a CB18     		adds	r3, r1, r3
 1692 014c 1B78     		ldrb	r3, [r3]
 1693 014e 59B2     		sxtb	r1, r3
 1694 0150 3B1D     		adds	r3, r7, #4
 1695 0152 1B88     		ldrh	r3, [r3]
 1696 0154 1800     		movs	r0, r3
 1697 0156 0723     		movs	r3, #7
 1698 0158 0340     		ands	r3, r0
 1699 015a 0120     		movs	r0, #1
 1700 015c 9840     		lsls	r0, r0, r3
 1701 015e 0300     		movs	r3, r0
 1702 0160 5BB2     		sxtb	r3, r3
 1703 0162 4B40     		eors	r3, r1
 1704 0164 5BB2     		sxtb	r3, r3
 1705 0166 DBB2     		uxtb	r3, r3
 1706 0168 1370     		strb	r3, [r2]
 192:ssd1306.c     ****             break;
 1707              		.loc 1 192 0
 1708 016a C046     		nop
 1709 016c 00E0     		b	.L10
 1710              	.L20:
 181:ssd1306.c     **** 
 1711              		.loc 1 181 0
 1712 016e C046     		nop
 1713              	.L10:
 193:ssd1306.c     ****     }
 194:ssd1306.c     **** }
 1714              		.loc 1 194 0
 1715 0170 BD46     		mov	sp, r7
 1716 0172 03B0     		add	sp, sp, #12
 1717              		@ sp needed
 1718 0174 90BD     		pop	{r4, r7, pc}
 1719              	.L22:
 1720 0176 C046     		.align	2
 1721              	.L21:
 1722 0178 04040000 		.word	_displaybuf
 1723              		.cfi_endproc
 1724              	.LFE35:
 1725              		.size	display_setPixel, .-display_setPixel
 1726              		.section	.text.display_clear,"ax",%progbits
 1727              		.align	2
 1728              		.global	display_clear
 1729              		.code	16
 1730              		.thumb_func
 1731              		.type	display_clear, %function
 1732              	display_clear:
 1733              	.LFB36:
 195:ssd1306.c     **** 
 196:ssd1306.c     **** 
 197:ssd1306.c     **** void display_clear(void){
 1734              		.loc 1 197 0
 1735              		.cfi_startproc
 1736              		@ args = 0, pretend = 0, frame = 0
ARM GAS  C:\Users\jdrd3\AppData\Local\Temp\ccQ8iyfh.s 			page 35


 1737              		@ frame_needed = 1, uses_anonymous_args = 0
 1738 0000 80B5     		push	{r7, lr}
 1739              		.cfi_def_cfa_offset 8
 1740              		.cfi_offset 7, -8
 1741              		.cfi_offset 14, -4
 1742 0002 00AF     		add	r7, sp, #0
 1743              		.cfi_def_cfa_register 7
 198:ssd1306.c     ****     memset( _displaybuf, 0, _displaybuf_size );
 1744              		.loc 1 198 0
 1745 0004 064B     		ldr	r3, .L24
 1746 0006 1868     		ldr	r0, [r3]
 1747 0008 064B     		ldr	r3, .L24+4
 1748 000a 1B88     		ldrh	r3, [r3]
 1749 000c 1A00     		movs	r2, r3
 1750 000e 0021     		movs	r1, #0
 1751 0010 FFF7FEFF 		bl	memset
 199:ssd1306.c     ****     SSD1306_buffer[0] = 0x40; // to be sure its there
 1752              		.loc 1 199 0
 1753 0014 044B     		ldr	r3, .L24+8
 1754 0016 4022     		movs	r2, #64
 1755 0018 1A70     		strb	r2, [r3]
 200:ssd1306.c     **** }
 1756              		.loc 1 200 0
 1757 001a C046     		nop
 1758 001c BD46     		mov	sp, r7
 1759              		@ sp needed
 1760 001e 80BD     		pop	{r7, pc}
 1761              	.L25:
 1762              		.align	2
 1763              	.L24:
 1764 0020 04040000 		.word	_displaybuf
 1765 0024 08040000 		.word	_displaybuf_size
 1766 0028 00000000 		.word	SSD1306_buffer
 1767              		.cfi_endproc
 1768              	.LFE36:
 1769              		.size	display_clear, .-display_clear
 1770              		.section	.text.display_contrast,"ax",%progbits
 1771              		.align	2
 1772              		.global	display_contrast
 1773              		.code	16
 1774              		.thumb_func
 1775              		.type	display_contrast, %function
 1776              	display_contrast:
 1777              	.LFB37:
 201:ssd1306.c     **** 
 202:ssd1306.c     **** 
 203:ssd1306.c     **** // contrast: 0 ...255
 204:ssd1306.c     **** void display_contrast( uint8_t contrast ){
 1778              		.loc 1 204 0
 1779              		.cfi_startproc
 1780              		@ args = 0, pretend = 0, frame = 16
 1781              		@ frame_needed = 1, uses_anonymous_args = 0
 1782 0000 80B5     		push	{r7, lr}
 1783              		.cfi_def_cfa_offset 8
 1784              		.cfi_offset 7, -8
 1785              		.cfi_offset 14, -4
 1786 0002 84B0     		sub	sp, sp, #16
ARM GAS  C:\Users\jdrd3\AppData\Local\Temp\ccQ8iyfh.s 			page 36


 1787              		.cfi_def_cfa_offset 24
 1788 0004 00AF     		add	r7, sp, #0
 1789              		.cfi_def_cfa_register 7
 1790 0006 0200     		movs	r2, r0
 1791 0008 FB1D     		adds	r3, r7, #7
 1792 000a 1A70     		strb	r2, [r3]
 205:ssd1306.c     ****         
 206:ssd1306.c     ****     uint8 cmdbuf[] = {
 1793              		.loc 1 206 0
 1794 000c 0C23     		movs	r3, #12
 1795 000e FB18     		adds	r3, r7, r3
 1796 0010 0022     		movs	r2, #0
 1797 0012 1A70     		strb	r2, [r3]
 1798 0014 0C23     		movs	r3, #12
 1799 0016 FB18     		adds	r3, r7, r3
 1800 0018 8122     		movs	r2, #129
 1801 001a 5A70     		strb	r2, [r3, #1]
 1802 001c 0C23     		movs	r3, #12
 1803 001e FB18     		adds	r3, r7, r3
 1804 0020 FA1D     		adds	r2, r7, #7
 1805 0022 1278     		ldrb	r2, [r2]
 1806 0024 9A70     		strb	r2, [r3, #2]
 207:ssd1306.c     ****         0x00,  
 208:ssd1306.c     ****         SSD1306_SETCONTRAST,
 209:ssd1306.c     ****         contrast
 210:ssd1306.c     ****     };
 211:ssd1306.c     ****     display_write_buf( cmdbuf, sizeof(cmdbuf) ); 
 1807              		.loc 1 211 0
 1808 0026 0C23     		movs	r3, #12
 1809 0028 FB18     		adds	r3, r7, r3
 1810 002a 0321     		movs	r1, #3
 1811 002c 1800     		movs	r0, r3
 1812 002e FFF7FEFF 		bl	display_write_buf
 212:ssd1306.c     **** }
 1813              		.loc 1 212 0
 1814 0032 C046     		nop
 1815 0034 BD46     		mov	sp, r7
 1816 0036 04B0     		add	sp, sp, #16
 1817              		@ sp needed
 1818 0038 80BD     		pop	{r7, pc}
 1819              		.cfi_endproc
 1820              	.LFE37:
 1821              		.size	display_contrast, .-display_contrast
 1822 003a C046     		.section	.text.display_invert,"ax",%progbits
 1823              		.align	2
 1824              		.global	display_invert
 1825              		.code	16
 1826              		.thumb_func
 1827              		.type	display_invert, %function
 1828              	display_invert:
 1829              	.LFB38:
 213:ssd1306.c     **** 
 214:ssd1306.c     **** 
 215:ssd1306.c     **** // invert <> 0 for inverse display, invert == 0 for normal display
 216:ssd1306.c     **** void display_invert( uint8_t invert ){
 1830              		.loc 1 216 0
 1831              		.cfi_startproc
ARM GAS  C:\Users\jdrd3\AppData\Local\Temp\ccQ8iyfh.s 			page 37


 1832              		@ args = 0, pretend = 0, frame = 16
 1833              		@ frame_needed = 1, uses_anonymous_args = 0
 1834 0000 80B5     		push	{r7, lr}
 1835              		.cfi_def_cfa_offset 8
 1836              		.cfi_offset 7, -8
 1837              		.cfi_offset 14, -4
 1838 0002 84B0     		sub	sp, sp, #16
 1839              		.cfi_def_cfa_offset 24
 1840 0004 00AF     		add	r7, sp, #0
 1841              		.cfi_def_cfa_register 7
 1842 0006 0200     		movs	r2, r0
 1843 0008 FB1D     		adds	r3, r7, #7
 1844 000a 1A70     		strb	r2, [r3]
 217:ssd1306.c     **** 
 218:ssd1306.c     ****     uint8 cmdbuf[] = {
 1845              		.loc 1 218 0
 1846 000c 0C23     		movs	r3, #12
 1847 000e FB18     		adds	r3, r7, r3
 1848 0010 0022     		movs	r2, #0
 1849 0012 1A70     		strb	r2, [r3]
 1850 0014 0C23     		movs	r3, #12
 1851 0016 FB18     		adds	r3, r7, r3
 1852 0018 0022     		movs	r2, #0
 1853 001a 5A70     		strb	r2, [r3, #1]
 219:ssd1306.c     ****         0x00,  
 220:ssd1306.c     ****         0
 221:ssd1306.c     ****     };
 222:ssd1306.c     ****     cmdbuf[1] = invert ? SSD1306_INVERTDISPLAY : SSD1306_NORMALDISPLAY;
 1854              		.loc 1 222 0
 1855 001c FB1D     		adds	r3, r7, #7
 1856 001e 1B78     		ldrb	r3, [r3]
 1857 0020 002B     		cmp	r3, #0
 1858 0022 01D0     		beq	.L28
 1859              		.loc 1 222 0 is_stmt 0 discriminator 1
 1860 0024 A722     		movs	r2, #167
 1861 0026 00E0     		b	.L29
 1862              	.L28:
 1863              		.loc 1 222 0 discriminator 2
 1864 0028 A622     		movs	r2, #166
 1865              	.L29:
 1866              		.loc 1 222 0 discriminator 4
 1867 002a 0C23     		movs	r3, #12
 1868 002c FB18     		adds	r3, r7, r3
 1869 002e 5A70     		strb	r2, [r3, #1]
 223:ssd1306.c     ****     display_write_buf( cmdbuf, sizeof(cmdbuf) ); 
 1870              		.loc 1 223 0 is_stmt 1 discriminator 4
 1871 0030 0C23     		movs	r3, #12
 1872 0032 FB18     		adds	r3, r7, r3
 1873 0034 0221     		movs	r1, #2
 1874 0036 1800     		movs	r0, r3
 1875 0038 FFF7FEFF 		bl	display_write_buf
 224:ssd1306.c     **** }
 1876              		.loc 1 224 0 discriminator 4
 1877 003c C046     		nop
 1878 003e BD46     		mov	sp, r7
 1879 0040 04B0     		add	sp, sp, #16
 1880              		@ sp needed
ARM GAS  C:\Users\jdrd3\AppData\Local\Temp\ccQ8iyfh.s 			page 38


 1881 0042 80BD     		pop	{r7, pc}
 1882              		.cfi_endproc
 1883              	.LFE38:
 1884              		.size	display_invert, .-display_invert
 1885              		.section	.rodata
 1886 0516 0000     		.align	2
 1887              	.LC1:
 1888 0518 00       		.byte	0
 1889 0519 21       		.byte	33
 1890 051a 00       		.byte	0
 1891 051b 7F       		.byte	127
 1892 051c 22       		.byte	34
 1893 051d 00       		.byte	0
 1894 051e 07       		.byte	7
 1895              		.section	.text.display_update,"ax",%progbits
 1896              		.align	2
 1897              		.global	display_update
 1898              		.code	16
 1899              		.thumb_func
 1900              		.type	display_update, %function
 1901              	display_update:
 1902              	.LFB39:
 225:ssd1306.c     **** 
 226:ssd1306.c     **** 
 227:ssd1306.c     **** void display_update(void) {
 1903              		.loc 1 227 0
 1904              		.cfi_startproc
 1905              		@ args = 0, pretend = 0, frame = 8
 1906              		@ frame_needed = 1, uses_anonymous_args = 0
 1907 0000 80B5     		push	{r7, lr}
 1908              		.cfi_def_cfa_offset 8
 1909              		.cfi_offset 7, -8
 1910              		.cfi_offset 14, -4
 1911 0002 82B0     		sub	sp, sp, #8
 1912              		.cfi_def_cfa_offset 16
 1913 0004 00AF     		add	r7, sp, #0
 1914              		.cfi_def_cfa_register 7
 228:ssd1306.c     ****       
 229:ssd1306.c     ****     uint8 cmdbuf[] = {
 1915              		.loc 1 229 0
 1916 0006 3A00     		movs	r2, r7
 1917 0008 0A4B     		ldr	r3, .L31
 1918 000a 1000     		movs	r0, r2
 1919 000c 1900     		movs	r1, r3
 1920 000e 0723     		movs	r3, #7
 1921 0010 1A00     		movs	r2, r3
 1922 0012 FFF7FEFF 		bl	memcpy
 230:ssd1306.c     ****         0x00,
 231:ssd1306.c     ****         SSD1306_COLUMNADDR,
 232:ssd1306.c     ****         0,                      // start
 233:ssd1306.c     ****         DISPLAYWIDTH-1, // end
 234:ssd1306.c     ****         SSD1306_PAGEADDR,
 235:ssd1306.c     ****         0,                      // start
 236:ssd1306.c     ****         7                       // end
 237:ssd1306.c     ****     };
 238:ssd1306.c     ****     display_write_buf( cmdbuf, sizeof(cmdbuf) ); 
 1923              		.loc 1 238 0
ARM GAS  C:\Users\jdrd3\AppData\Local\Temp\ccQ8iyfh.s 			page 39


 1924 0016 3B00     		movs	r3, r7
 1925 0018 0721     		movs	r1, #7
 1926 001a 1800     		movs	r0, r3
 1927 001c FFF7FEFF 		bl	display_write_buf
 239:ssd1306.c     ****     display_write_buf( SSD1306_buffer, sizeof(SSD1306_buffer) );
 1928              		.loc 1 239 0
 1929 0020 054A     		ldr	r2, .L31+4
 1930 0022 064B     		ldr	r3, .L31+8
 1931 0024 1100     		movs	r1, r2
 1932 0026 1800     		movs	r0, r3
 1933 0028 FFF7FEFF 		bl	display_write_buf
 240:ssd1306.c     **** }
 1934              		.loc 1 240 0
 1935 002c C046     		nop
 1936 002e BD46     		mov	sp, r7
 1937 0030 02B0     		add	sp, sp, #8
 1938              		@ sp needed
 1939 0032 80BD     		pop	{r7, pc}
 1940              	.L32:
 1941              		.align	2
 1942              	.L31:
 1943 0034 18050000 		.word	.LC1
 1944 0038 01040000 		.word	1025
 1945 003c 00000000 		.word	SSD1306_buffer
 1946              		.cfi_endproc
 1947              	.LFE39:
 1948              		.size	display_update, .-display_update
 1949              		.section	.text.display_line,"ax",%progbits
 1950              		.align	2
 1951              		.code	16
 1952              		.thumb_func
 1953              		.type	display_line, %function
 1954              	display_line:
 1955              	.LFB40:
 241:ssd1306.c     **** 
 242:ssd1306.c     **** 
 243:ssd1306.c     **** // draws horizontal or vertical line
 244:ssd1306.c     **** // Note: no check for valid coords, this needs to be done by caller
 245:ssd1306.c     **** // should only be called from gfx_hvline which is doing all validity checking
 246:ssd1306.c     **** static void display_line( int16_t x1, int16_t y1, int16_t x2, int16_t y2, uint16_t color ){
 1956              		.loc 1 246 0
 1957              		.cfi_startproc
 1958              		@ args = 4, pretend = 0, frame = 48
 1959              		@ frame_needed = 1, uses_anonymous_args = 0
 1960 0000 B0B5     		push	{r4, r5, r7, lr}
 1961              		.cfi_def_cfa_offset 16
 1962              		.cfi_offset 4, -16
 1963              		.cfi_offset 5, -12
 1964              		.cfi_offset 7, -8
 1965              		.cfi_offset 14, -4
 1966 0002 8CB0     		sub	sp, sp, #48
 1967              		.cfi_def_cfa_offset 64
 1968 0004 00AF     		add	r7, sp, #0
 1969              		.cfi_def_cfa_register 7
 1970 0006 0500     		movs	r5, r0
 1971 0008 0C00     		movs	r4, r1
 1972 000a 1000     		movs	r0, r2
ARM GAS  C:\Users\jdrd3\AppData\Local\Temp\ccQ8iyfh.s 			page 40


 1973 000c 1900     		movs	r1, r3
 1974 000e BB1D     		adds	r3, r7, #6
 1975 0010 2A1C     		adds	r2, r5, #0
 1976 0012 1A80     		strh	r2, [r3]
 1977 0014 3B1D     		adds	r3, r7, #4
 1978 0016 221C     		adds	r2, r4, #0
 1979 0018 1A80     		strh	r2, [r3]
 1980 001a BB1C     		adds	r3, r7, #2
 1981 001c 021C     		adds	r2, r0, #0
 1982 001e 1A80     		strh	r2, [r3]
 1983 0020 3B00     		movs	r3, r7
 1984 0022 0A1C     		adds	r2, r1, #0
 1985 0024 1A80     		strh	r2, [r3]
 247:ssd1306.c     **** 
 248:ssd1306.c     ****     if( x1 == x2 ){
 1986              		.loc 1 248 0
 1987 0026 BA1D     		adds	r2, r7, #6
 1988 0028 BB1C     		adds	r3, r7, #2
 1989 002a 0021     		movs	r1, #0
 1990 002c 525E     		ldrsh	r2, [r2, r1]
 1991 002e 0021     		movs	r1, #0
 1992 0030 5B5E     		ldrsh	r3, [r3, r1]
 1993 0032 9A42     		cmp	r2, r3
 1994 0034 00D0     		beq	.LCB550
 1995 0036 D5E0     		b	.L34	@long jump
 1996              	.LCB550:
 1997              	.LBB2:
 249:ssd1306.c     ****         // vertical
 250:ssd1306.c     ****         uint8_t* pstart = GDDRAM_ADDRESS(x1,y1);
 1998              		.loc 1 250 0
 1999 0038 9B4B     		ldr	r3, .L63
 2000 003a 1A68     		ldr	r2, [r3]
 2001 003c 3B1D     		adds	r3, r7, #4
 2002 003e 0021     		movs	r1, #0
 2003 0040 5B5E     		ldrsh	r3, [r3, r1]
 2004 0042 002B     		cmp	r3, #0
 2005 0044 00DA     		bge	.L35
 2006 0046 0733     		adds	r3, r3, #7
 2007              	.L35:
 2008 0048 DB10     		asrs	r3, r3, #3
 2009 004a 1BB2     		sxth	r3, r3
 2010 004c DB01     		lsls	r3, r3, #7
 2011 004e 1900     		movs	r1, r3
 2012 0050 BB1D     		adds	r3, r7, #6
 2013 0052 0020     		movs	r0, #0
 2014 0054 1B5E     		ldrsh	r3, [r3, r0]
 2015 0056 CB18     		adds	r3, r1, r3
 2016 0058 D318     		adds	r3, r2, r3
 2017 005a 3B62     		str	r3, [r7, #32]
 251:ssd1306.c     ****         uint8_t* pend = GDDRAM_ADDRESS(x2,y2);       
 2018              		.loc 1 251 0
 2019 005c 924B     		ldr	r3, .L63
 2020 005e 1A68     		ldr	r2, [r3]
 2021 0060 3B00     		movs	r3, r7
 2022 0062 0021     		movs	r1, #0
 2023 0064 5B5E     		ldrsh	r3, [r3, r1]
 2024 0066 002B     		cmp	r3, #0
ARM GAS  C:\Users\jdrd3\AppData\Local\Temp\ccQ8iyfh.s 			page 41


 2025 0068 00DA     		bge	.L36
 2026 006a 0733     		adds	r3, r3, #7
 2027              	.L36:
 2028 006c DB10     		asrs	r3, r3, #3
 2029 006e 1BB2     		sxth	r3, r3
 2030 0070 DB01     		lsls	r3, r3, #7
 2031 0072 1900     		movs	r1, r3
 2032 0074 BB1C     		adds	r3, r7, #2
 2033 0076 0020     		movs	r0, #0
 2034 0078 1B5E     		ldrsh	r3, [r3, r0]
 2035 007a CB18     		adds	r3, r1, r3
 2036 007c D318     		adds	r3, r2, r3
 2037 007e FB61     		str	r3, [r7, #28]
 252:ssd1306.c     ****         uint8_t* ptr = pstart;             
 2038              		.loc 1 252 0
 2039 0080 3B6A     		ldr	r3, [r7, #32]
 2040 0082 FB62     		str	r3, [r7, #44]
 253:ssd1306.c     ****         
 254:ssd1306.c     ****         while( ptr <= pend ){
 2041              		.loc 1 254 0
 2042 0084 A8E0     		b	.L37
 2043              	.L53:
 2044              	.LBB3:
 255:ssd1306.c     ****             
 256:ssd1306.c     ****             uint8_t mask;
 257:ssd1306.c     ****             if( ptr == pstart ){
 2045              		.loc 1 257 0
 2046 0086 FA6A     		ldr	r2, [r7, #44]
 2047 0088 3B6A     		ldr	r3, [r7, #32]
 2048 008a 9A42     		cmp	r2, r3
 2049 008c 3AD1     		bne	.L38
 2050              	.LBB4:
 258:ssd1306.c     ****                 // top
 259:ssd1306.c     ****                 uint8_t lbit = y1 % 8;
 2051              		.loc 1 259 0
 2052 008e 3B1D     		adds	r3, r7, #4
 2053 0090 0022     		movs	r2, #0
 2054 0092 9B5E     		ldrsh	r3, [r3, r2]
 2055 0094 854A     		ldr	r2, .L63+4
 2056 0096 1340     		ands	r3, r2
 2057 0098 04D5     		bpl	.L39
 2058 009a 013B     		subs	r3, r3, #1
 2059 009c 0822     		movs	r2, #8
 2060 009e 5242     		rsbs	r2, r2, #0
 2061 00a0 1343     		orrs	r3, r2
 2062 00a2 0133     		adds	r3, r3, #1
 2063              	.L39:
 2064 00a4 1AB2     		sxth	r2, r3
 2065 00a6 1B23     		movs	r3, #27
 2066 00a8 FB18     		adds	r3, r7, r3
 2067 00aa 1A70     		strb	r2, [r3]
 260:ssd1306.c     ****                 // bottom (line can be very short, all inside this one byte)
 261:ssd1306.c     ****                 uint8_t ubit = lbit + y2 - y1;
 2068              		.loc 1 261 0
 2069 00ac 3B00     		movs	r3, r7
 2070 00ae 1B88     		ldrh	r3, [r3]
 2071 00b0 DAB2     		uxtb	r2, r3
ARM GAS  C:\Users\jdrd3\AppData\Local\Temp\ccQ8iyfh.s 			page 42


 2072 00b2 1B23     		movs	r3, #27
 2073 00b4 FB18     		adds	r3, r7, r3
 2074 00b6 1B78     		ldrb	r3, [r3]
 2075 00b8 D318     		adds	r3, r2, r3
 2076 00ba D9B2     		uxtb	r1, r3
 2077 00bc 3B1D     		adds	r3, r7, #4
 2078 00be 1B88     		ldrh	r3, [r3]
 2079 00c0 DAB2     		uxtb	r2, r3
 2080 00c2 2A23     		movs	r3, #42
 2081 00c4 FB18     		adds	r3, r7, r3
 2082 00c6 8A1A     		subs	r2, r1, r2
 2083 00c8 1A70     		strb	r2, [r3]
 262:ssd1306.c     ****                 if( ubit >= 7 )
 2084              		.loc 1 262 0
 2085 00ca 2A23     		movs	r3, #42
 2086 00cc FB18     		adds	r3, r7, r3
 2087 00ce 1B78     		ldrb	r3, [r3]
 2088 00d0 062B     		cmp	r3, #6
 2089 00d2 03D9     		bls	.L40
 263:ssd1306.c     ****                     ubit = 7;
 2090              		.loc 1 263 0
 2091 00d4 2A23     		movs	r3, #42
 2092 00d6 FB18     		adds	r3, r7, r3
 2093 00d8 0722     		movs	r2, #7
 2094 00da 1A70     		strb	r2, [r3]
 2095              	.L40:
 264:ssd1306.c     ****                 mask = ((1 << (ubit-lbit+1)) - 1) << lbit;    
 2096              		.loc 1 264 0
 2097 00dc 2A23     		movs	r3, #42
 2098 00de FB18     		adds	r3, r7, r3
 2099 00e0 1A78     		ldrb	r2, [r3]
 2100 00e2 1B23     		movs	r3, #27
 2101 00e4 FB18     		adds	r3, r7, r3
 2102 00e6 1B78     		ldrb	r3, [r3]
 2103 00e8 D31A     		subs	r3, r2, r3
 2104 00ea 0133     		adds	r3, r3, #1
 2105 00ec 0122     		movs	r2, #1
 2106 00ee 9A40     		lsls	r2, r2, r3
 2107 00f0 1300     		movs	r3, r2
 2108 00f2 5A1E     		subs	r2, r3, #1
 2109 00f4 1B23     		movs	r3, #27
 2110 00f6 FB18     		adds	r3, r7, r3
 2111 00f8 1B78     		ldrb	r3, [r3]
 2112 00fa 9A40     		lsls	r2, r2, r3
 2113 00fc 2B23     		movs	r3, #43
 2114 00fe FB18     		adds	r3, r7, r3
 2115 0100 1A70     		strb	r2, [r3]
 2116              	.LBE4:
 2117 0102 17E0     		b	.L41
 2118              	.L38:
 265:ssd1306.c     ****             }else if( ptr == pend ){
 2119              		.loc 1 265 0
 2120 0104 FA6A     		ldr	r2, [r7, #44]
 2121 0106 FB69     		ldr	r3, [r7, #28]
 2122 0108 9A42     		cmp	r2, r3
 2123 010a 13D1     		bne	.L41
 266:ssd1306.c     ****                 // top is always bit 0, that makes it easy
ARM GAS  C:\Users\jdrd3\AppData\Local\Temp\ccQ8iyfh.s 			page 43


 267:ssd1306.c     ****                 // bottom
 268:ssd1306.c     ****                 mask = (1 << (y2 % 8)) - 1;    
 2124              		.loc 1 268 0
 2125 010c 3B00     		movs	r3, r7
 2126 010e 0022     		movs	r2, #0
 2127 0110 9B5E     		ldrsh	r3, [r3, r2]
 2128 0112 664A     		ldr	r2, .L63+4
 2129 0114 1340     		ands	r3, r2
 2130 0116 04D5     		bpl	.L42
 2131 0118 013B     		subs	r3, r3, #1
 2132 011a 0822     		movs	r2, #8
 2133 011c 5242     		rsbs	r2, r2, #0
 2134 011e 1343     		orrs	r3, r2
 2135 0120 0133     		adds	r3, r3, #1
 2136              	.L42:
 2137 0122 1BB2     		sxth	r3, r3
 2138 0124 1A00     		movs	r2, r3
 2139 0126 0123     		movs	r3, #1
 2140 0128 9340     		lsls	r3, r3, r2
 2141 012a DAB2     		uxtb	r2, r3
 2142 012c 2B23     		movs	r3, #43
 2143 012e FB18     		adds	r3, r7, r3
 2144 0130 013A     		subs	r2, r2, #1
 2145 0132 1A70     		strb	r2, [r3]
 2146              	.L41:
 269:ssd1306.c     ****             }
 270:ssd1306.c     **** 
 271:ssd1306.c     ****             if( ptr == pstart || ptr == pend ){
 2147              		.loc 1 271 0
 2148 0134 FA6A     		ldr	r2, [r7, #44]
 2149 0136 3B6A     		ldr	r3, [r7, #32]
 2150 0138 9A42     		cmp	r2, r3
 2151 013a 03D0     		beq	.L43
 2152              		.loc 1 271 0 is_stmt 0 discriminator 1
 2153 013c FA6A     		ldr	r2, [r7, #44]
 2154 013e FB69     		ldr	r3, [r7, #28]
 2155 0140 9A42     		cmp	r2, r3
 2156 0142 2DD1     		bne	.L44
 2157              	.L43:
 272:ssd1306.c     ****                 switch( color ){
 2158              		.loc 1 272 0 is_stmt 1
 2159 0144 4023     		movs	r3, #64
 2160 0146 FB18     		adds	r3, r7, r3
 2161 0148 1B88     		ldrh	r3, [r3]
 2162 014a 012B     		cmp	r3, #1
 2163 014c 04D0     		beq	.L46
 2164 014e 022B     		cmp	r3, #2
 2165 0150 1BD0     		beq	.L47
 2166 0152 002B     		cmp	r3, #0
 2167 0154 0AD0     		beq	.L48
 273:ssd1306.c     ****                     case WHITE:     *ptr |= mask; break;
 274:ssd1306.c     ****                     case BLACK:     *ptr &= ~mask; break;
 275:ssd1306.c     ****                     case INVERSE:   *ptr ^= mask; break;
 276:ssd1306.c     ****                 };  
 2168              		.loc 1 276 0
 2169 0156 3CE0     		b	.L49
 2170              	.L46:
ARM GAS  C:\Users\jdrd3\AppData\Local\Temp\ccQ8iyfh.s 			page 44


 273:ssd1306.c     ****                     case WHITE:     *ptr |= mask; break;
 2171              		.loc 1 273 0
 2172 0158 FB6A     		ldr	r3, [r7, #44]
 2173 015a 1A78     		ldrb	r2, [r3]
 2174 015c 2B23     		movs	r3, #43
 2175 015e FB18     		adds	r3, r7, r3
 2176 0160 1B78     		ldrb	r3, [r3]
 2177 0162 1343     		orrs	r3, r2
 2178 0164 DAB2     		uxtb	r2, r3
 2179 0166 FB6A     		ldr	r3, [r7, #44]
 2180 0168 1A70     		strb	r2, [r3]
 2181 016a 18E0     		b	.L45
 2182              	.L48:
 274:ssd1306.c     ****                     case INVERSE:   *ptr ^= mask; break;
 2183              		.loc 1 274 0
 2184 016c FB6A     		ldr	r3, [r7, #44]
 2185 016e 1B78     		ldrb	r3, [r3]
 2186 0170 5BB2     		sxtb	r3, r3
 2187 0172 2B22     		movs	r2, #43
 2188 0174 BA18     		adds	r2, r7, r2
 2189 0176 1278     		ldrb	r2, [r2]
 2190 0178 52B2     		sxtb	r2, r2
 2191 017a D243     		mvns	r2, r2
 2192 017c 52B2     		sxtb	r2, r2
 2193 017e 1340     		ands	r3, r2
 2194 0180 5BB2     		sxtb	r3, r3
 2195 0182 DAB2     		uxtb	r2, r3
 2196 0184 FB6A     		ldr	r3, [r7, #44]
 2197 0186 1A70     		strb	r2, [r3]
 2198 0188 09E0     		b	.L45
 2199              	.L47:
 275:ssd1306.c     ****                 };  
 2200              		.loc 1 275 0
 2201 018a FB6A     		ldr	r3, [r7, #44]
 2202 018c 1A78     		ldrb	r2, [r3]
 2203 018e 2B23     		movs	r3, #43
 2204 0190 FB18     		adds	r3, r7, r3
 2205 0192 1B78     		ldrb	r3, [r3]
 2206 0194 5340     		eors	r3, r2
 2207 0196 DAB2     		uxtb	r2, r3
 2208 0198 FB6A     		ldr	r3, [r7, #44]
 2209 019a 1A70     		strb	r2, [r3]
 2210 019c C046     		nop
 2211              	.L45:
 2212              		.loc 1 276 0
 2213 019e 18E0     		b	.L49
 2214              	.L44:
 277:ssd1306.c     ****             }else{
 278:ssd1306.c     ****                 switch( color ){
 2215              		.loc 1 278 0
 2216 01a0 4023     		movs	r3, #64
 2217 01a2 FB18     		adds	r3, r7, r3
 2218 01a4 1B88     		ldrh	r3, [r3]
 2219 01a6 012B     		cmp	r3, #1
 2220 01a8 04D0     		beq	.L50
 2221 01aa 022B     		cmp	r3, #2
 2222 01ac 0AD0     		beq	.L51
ARM GAS  C:\Users\jdrd3\AppData\Local\Temp\ccQ8iyfh.s 			page 45


 2223 01ae 002B     		cmp	r3, #0
 2224 01b0 04D0     		beq	.L52
 2225 01b2 0EE0     		b	.L49
 2226              	.L50:
 279:ssd1306.c     ****                     case WHITE:     *ptr = 0xff; break;
 2227              		.loc 1 279 0
 2228 01b4 FB6A     		ldr	r3, [r7, #44]
 2229 01b6 FF22     		movs	r2, #255
 2230 01b8 1A70     		strb	r2, [r3]
 2231 01ba 0AE0     		b	.L49
 2232              	.L52:
 280:ssd1306.c     ****                     case BLACK:     *ptr = 0x00; break;
 2233              		.loc 1 280 0
 2234 01bc FB6A     		ldr	r3, [r7, #44]
 2235 01be 0022     		movs	r2, #0
 2236 01c0 1A70     		strb	r2, [r3]
 2237 01c2 06E0     		b	.L49
 2238              	.L51:
 281:ssd1306.c     ****                     case INVERSE:   *ptr ^= 0xff; break;
 2239              		.loc 1 281 0
 2240 01c4 FB6A     		ldr	r3, [r7, #44]
 2241 01c6 1B78     		ldrb	r3, [r3]
 2242 01c8 DB43     		mvns	r3, r3
 2243 01ca DAB2     		uxtb	r2, r3
 2244 01cc FB6A     		ldr	r3, [r7, #44]
 2245 01ce 1A70     		strb	r2, [r3]
 2246 01d0 C046     		nop
 2247              	.L49:
 282:ssd1306.c     ****                 };  
 283:ssd1306.c     ****             }
 284:ssd1306.c     ****             
 285:ssd1306.c     ****             ptr += DISPLAYWIDTH;
 2248              		.loc 1 285 0
 2249 01d2 FB6A     		ldr	r3, [r7, #44]
 2250 01d4 8033     		adds	r3, r3, #128
 2251 01d6 FB62     		str	r3, [r7, #44]
 2252              	.L37:
 2253              	.LBE3:
 254:ssd1306.c     ****             
 2254              		.loc 1 254 0
 2255 01d8 FA6A     		ldr	r2, [r7, #44]
 2256 01da FB69     		ldr	r3, [r7, #28]
 2257 01dc 9A42     		cmp	r2, r3
 2258 01de 00D8     		bhi	.LCB809
 2259 01e0 51E7     		b	.L53	@long jump
 2260              	.LCB809:
 2261              	.LBE2:
 286:ssd1306.c     ****         }
 287:ssd1306.c     ****     }else{
 288:ssd1306.c     ****         // horizontal
 289:ssd1306.c     ****         uint8_t* pstart = GDDRAM_ADDRESS(x1,y1);
 290:ssd1306.c     ****         uint8_t* pend = pstart + x2 - x1;
 291:ssd1306.c     ****         uint8_t pixmask = GDDRAM_PIXMASK(y1);    
 292:ssd1306.c     **** 
 293:ssd1306.c     ****         uint8_t* ptr = pstart;
 294:ssd1306.c     ****         while( ptr <= pend ){
 295:ssd1306.c     ****             switch( color ){
ARM GAS  C:\Users\jdrd3\AppData\Local\Temp\ccQ8iyfh.s 			page 46


 296:ssd1306.c     ****                 case WHITE:     *ptr |= pixmask; break;
 297:ssd1306.c     ****                 case BLACK:     *ptr &= ~pixmask; break;
 298:ssd1306.c     ****                 case INVERSE:   *ptr ^= pixmask; break;
 299:ssd1306.c     ****             };
 300:ssd1306.c     ****             ptr++;
 301:ssd1306.c     ****         }
 302:ssd1306.c     ****     }
 303:ssd1306.c     **** }
 2262              		.loc 1 303 0
 2263 01e2 5CE0     		b	.L62
 2264              	.L34:
 2265              	.LBB5:
 289:ssd1306.c     ****         uint8_t* pend = pstart + x2 - x1;
 2266              		.loc 1 289 0
 2267 01e4 304B     		ldr	r3, .L63
 2268 01e6 1A68     		ldr	r2, [r3]
 2269 01e8 3B1D     		adds	r3, r7, #4
 2270 01ea 0021     		movs	r1, #0
 2271 01ec 5B5E     		ldrsh	r3, [r3, r1]
 2272 01ee 002B     		cmp	r3, #0
 2273 01f0 00DA     		bge	.L55
 2274 01f2 0733     		adds	r3, r3, #7
 2275              	.L55:
 2276 01f4 DB10     		asrs	r3, r3, #3
 2277 01f6 1BB2     		sxth	r3, r3
 2278 01f8 DB01     		lsls	r3, r3, #7
 2279 01fa 1900     		movs	r1, r3
 2280 01fc BB1D     		adds	r3, r7, #6
 2281 01fe 0020     		movs	r0, #0
 2282 0200 1B5E     		ldrsh	r3, [r3, r0]
 2283 0202 CB18     		adds	r3, r1, r3
 2284 0204 D318     		adds	r3, r2, r3
 2285 0206 7B61     		str	r3, [r7, #20]
 290:ssd1306.c     ****         uint8_t pixmask = GDDRAM_PIXMASK(y1);    
 2286              		.loc 1 290 0
 2287 0208 BB1C     		adds	r3, r7, #2
 2288 020a 0022     		movs	r2, #0
 2289 020c 9A5E     		ldrsh	r2, [r3, r2]
 2290 020e BB1D     		adds	r3, r7, #6
 2291 0210 0021     		movs	r1, #0
 2292 0212 5B5E     		ldrsh	r3, [r3, r1]
 2293 0214 D31A     		subs	r3, r2, r3
 2294 0216 7A69     		ldr	r2, [r7, #20]
 2295 0218 D318     		adds	r3, r2, r3
 2296 021a 3B61     		str	r3, [r7, #16]
 291:ssd1306.c     **** 
 2297              		.loc 1 291 0
 2298 021c 3B1D     		adds	r3, r7, #4
 2299 021e 1B88     		ldrh	r3, [r3]
 2300 0220 1A00     		movs	r2, r3
 2301 0222 0723     		movs	r3, #7
 2302 0224 1340     		ands	r3, r2
 2303 0226 0122     		movs	r2, #1
 2304 0228 9A40     		lsls	r2, r2, r3
 2305 022a 0F23     		movs	r3, #15
 2306 022c FB18     		adds	r3, r7, r3
 2307 022e 1A70     		strb	r2, [r3]
ARM GAS  C:\Users\jdrd3\AppData\Local\Temp\ccQ8iyfh.s 			page 47


 293:ssd1306.c     ****         while( ptr <= pend ){
 2308              		.loc 1 293 0
 2309 0230 7B69     		ldr	r3, [r7, #20]
 2310 0232 7B62     		str	r3, [r7, #36]
 294:ssd1306.c     ****             switch( color ){
 2311              		.loc 1 294 0
 2312 0234 2FE0     		b	.L56
 2313              	.L61:
 295:ssd1306.c     ****                 case WHITE:     *ptr |= pixmask; break;
 2314              		.loc 1 295 0
 2315 0236 4023     		movs	r3, #64
 2316 0238 FB18     		adds	r3, r7, r3
 2317 023a 1B88     		ldrh	r3, [r3]
 2318 023c 012B     		cmp	r3, #1
 2319 023e 04D0     		beq	.L58
 2320 0240 022B     		cmp	r3, #2
 2321 0242 1BD0     		beq	.L59
 2322 0244 002B     		cmp	r3, #0
 2323 0246 0AD0     		beq	.L60
 2324 0248 22E0     		b	.L57
 2325              	.L58:
 296:ssd1306.c     ****                 case BLACK:     *ptr &= ~pixmask; break;
 2326              		.loc 1 296 0
 2327 024a 7B6A     		ldr	r3, [r7, #36]
 2328 024c 1A78     		ldrb	r2, [r3]
 2329 024e 0F23     		movs	r3, #15
 2330 0250 FB18     		adds	r3, r7, r3
 2331 0252 1B78     		ldrb	r3, [r3]
 2332 0254 1343     		orrs	r3, r2
 2333 0256 DAB2     		uxtb	r2, r3
 2334 0258 7B6A     		ldr	r3, [r7, #36]
 2335 025a 1A70     		strb	r2, [r3]
 2336 025c 18E0     		b	.L57
 2337              	.L60:
 297:ssd1306.c     ****                 case INVERSE:   *ptr ^= pixmask; break;
 2338              		.loc 1 297 0
 2339 025e 7B6A     		ldr	r3, [r7, #36]
 2340 0260 1B78     		ldrb	r3, [r3]
 2341 0262 5BB2     		sxtb	r3, r3
 2342 0264 0F22     		movs	r2, #15
 2343 0266 BA18     		adds	r2, r7, r2
 2344 0268 1278     		ldrb	r2, [r2]
 2345 026a 52B2     		sxtb	r2, r2
 2346 026c D243     		mvns	r2, r2
 2347 026e 52B2     		sxtb	r2, r2
 2348 0270 1340     		ands	r3, r2
 2349 0272 5BB2     		sxtb	r3, r3
 2350 0274 DAB2     		uxtb	r2, r3
 2351 0276 7B6A     		ldr	r3, [r7, #36]
 2352 0278 1A70     		strb	r2, [r3]
 2353 027a 09E0     		b	.L57
 2354              	.L59:
 298:ssd1306.c     ****             };
 2355              		.loc 1 298 0
 2356 027c 7B6A     		ldr	r3, [r7, #36]
 2357 027e 1A78     		ldrb	r2, [r3]
 2358 0280 0F23     		movs	r3, #15
ARM GAS  C:\Users\jdrd3\AppData\Local\Temp\ccQ8iyfh.s 			page 48


 2359 0282 FB18     		adds	r3, r7, r3
 2360 0284 1B78     		ldrb	r3, [r3]
 2361 0286 5340     		eors	r3, r2
 2362 0288 DAB2     		uxtb	r2, r3
 2363 028a 7B6A     		ldr	r3, [r7, #36]
 2364 028c 1A70     		strb	r2, [r3]
 2365 028e C046     		nop
 2366              	.L57:
 300:ssd1306.c     ****         }
 2367              		.loc 1 300 0
 2368 0290 7B6A     		ldr	r3, [r7, #36]
 2369 0292 0133     		adds	r3, r3, #1
 2370 0294 7B62     		str	r3, [r7, #36]
 2371              	.L56:
 294:ssd1306.c     ****             switch( color ){
 2372              		.loc 1 294 0
 2373 0296 7A6A     		ldr	r2, [r7, #36]
 2374 0298 3B69     		ldr	r3, [r7, #16]
 2375 029a 9A42     		cmp	r2, r3
 2376 029c CBD9     		bls	.L61
 2377              	.L62:
 2378              	.LBE5:
 2379              		.loc 1 303 0
 2380 029e C046     		nop
 2381 02a0 BD46     		mov	sp, r7
 2382 02a2 0CB0     		add	sp, sp, #48
 2383              		@ sp needed
 2384 02a4 B0BD     		pop	{r4, r5, r7, pc}
 2385              	.L64:
 2386 02a6 C046     		.align	2
 2387              	.L63:
 2388 02a8 04040000 		.word	_displaybuf
 2389 02ac 07000080 		.word	-2147483641
 2390              		.cfi_endproc
 2391              	.LFE40:
 2392              		.size	display_line, .-display_line
 2393              		.section	.text.display_stopscroll,"ax",%progbits
 2394              		.align	2
 2395              		.global	display_stopscroll
 2396              		.code	16
 2397              		.thumb_func
 2398              		.type	display_stopscroll, %function
 2399              	display_stopscroll:
 2400              	.LFB41:
 304:ssd1306.c     **** 
 305:ssd1306.c     **** 
 306:ssd1306.c     **** 
 307:ssd1306.c     **** void display_stopscroll(void){
 2401              		.loc 1 307 0
 2402              		.cfi_startproc
 2403              		@ args = 0, pretend = 0, frame = 8
 2404              		@ frame_needed = 1, uses_anonymous_args = 0
 2405 0000 80B5     		push	{r7, lr}
 2406              		.cfi_def_cfa_offset 8
 2407              		.cfi_offset 7, -8
 2408              		.cfi_offset 14, -4
 2409 0002 82B0     		sub	sp, sp, #8
ARM GAS  C:\Users\jdrd3\AppData\Local\Temp\ccQ8iyfh.s 			page 49


 2410              		.cfi_def_cfa_offset 16
 2411 0004 00AF     		add	r7, sp, #0
 2412              		.cfi_def_cfa_register 7
 308:ssd1306.c     **** 
 309:ssd1306.c     ****     uint8 cmdbuf[] = {
 2413              		.loc 1 309 0
 2414 0006 3B1D     		adds	r3, r7, #4
 2415 0008 0022     		movs	r2, #0
 2416 000a 1A70     		strb	r2, [r3]
 2417 000c 3B1D     		adds	r3, r7, #4
 2418 000e 2E22     		movs	r2, #46
 2419 0010 5A70     		strb	r2, [r3, #1]
 310:ssd1306.c     ****         0x00,
 311:ssd1306.c     ****         SSD1306_DEACTIVATE_SCROLL
 312:ssd1306.c     ****     };
 313:ssd1306.c     ****     display_write_buf( cmdbuf, sizeof(cmdbuf) ); 
 2420              		.loc 1 313 0
 2421 0012 3B1D     		adds	r3, r7, #4
 2422 0014 0221     		movs	r1, #2
 2423 0016 1800     		movs	r0, r3
 2424 0018 FFF7FEFF 		bl	display_write_buf
 314:ssd1306.c     **** }
 2425              		.loc 1 314 0
 2426 001c C046     		nop
 2427 001e BD46     		mov	sp, r7
 2428 0020 02B0     		add	sp, sp, #8
 2429              		@ sp needed
 2430 0022 80BD     		pop	{r7, pc}
 2431              		.cfi_endproc
 2432              	.LFE41:
 2433              		.size	display_stopscroll, .-display_stopscroll
 2434              		.section	.text.display_scroll,"ax",%progbits
 2435              		.align	2
 2436              		.global	display_scroll
 2437              		.code	16
 2438              		.thumb_func
 2439              		.type	display_scroll, %function
 2440              	display_scroll:
 2441              	.LFB42:
 315:ssd1306.c     **** 
 316:ssd1306.c     **** void display_scroll( SCROLL_AREA start, SCROLL_AREA end, SCROLL_DIR dir, SCROLL_SPEED speed ){
 2442              		.loc 1 316 0
 2443              		.cfi_startproc
 2444              		@ args = 0, pretend = 0, frame = 24
 2445              		@ frame_needed = 1, uses_anonymous_args = 0
 2446 0000 B0B5     		push	{r4, r5, r7, lr}
 2447              		.cfi_def_cfa_offset 16
 2448              		.cfi_offset 4, -16
 2449              		.cfi_offset 5, -12
 2450              		.cfi_offset 7, -8
 2451              		.cfi_offset 14, -4
 2452 0002 86B0     		sub	sp, sp, #24
 2453              		.cfi_def_cfa_offset 40
 2454 0004 00AF     		add	r7, sp, #0
 2455              		.cfi_def_cfa_register 7
 2456 0006 0500     		movs	r5, r0
 2457 0008 0C00     		movs	r4, r1
ARM GAS  C:\Users\jdrd3\AppData\Local\Temp\ccQ8iyfh.s 			page 50


 2458 000a 1000     		movs	r0, r2
 2459 000c 1900     		movs	r1, r3
 2460 000e FB1D     		adds	r3, r7, #7
 2461 0010 2A1C     		adds	r2, r5, #0
 2462 0012 1A70     		strb	r2, [r3]
 2463 0014 BB1D     		adds	r3, r7, #6
 2464 0016 221C     		adds	r2, r4, #0
 2465 0018 1A70     		strb	r2, [r3]
 2466 001a 7B1D     		adds	r3, r7, #5
 2467 001c 021C     		adds	r2, r0, #0
 2468 001e 1A70     		strb	r2, [r3]
 2469 0020 3B1D     		adds	r3, r7, #4
 2470 0022 0A1C     		adds	r2, r1, #0
 2471 0024 1A70     		strb	r2, [r3]
 317:ssd1306.c     ****    
 318:ssd1306.c     ****     uint8 cmdbuf[] = {
 2472              		.loc 1 318 0
 2473 0026 0C23     		movs	r3, #12
 2474 0028 FB18     		adds	r3, r7, r3
 2475 002a 0022     		movs	r2, #0
 2476 002c 1A70     		strb	r2, [r3]
 2477 002e 0C23     		movs	r3, #12
 2478 0030 FB18     		adds	r3, r7, r3
 2479 0032 7A1D     		adds	r2, r7, #5
 2480 0034 1278     		ldrb	r2, [r2]
 2481 0036 5A70     		strb	r2, [r3, #1]
 2482 0038 0C23     		movs	r3, #12
 2483 003a FB18     		adds	r3, r7, r3
 2484 003c 0022     		movs	r2, #0
 2485 003e 9A70     		strb	r2, [r3, #2]
 2486 0040 0C23     		movs	r3, #12
 2487 0042 FB18     		adds	r3, r7, r3
 2488 0044 FA1D     		adds	r2, r7, #7
 2489 0046 1278     		ldrb	r2, [r2]
 2490 0048 DA70     		strb	r2, [r3, #3]
 2491 004a 0C23     		movs	r3, #12
 2492 004c FB18     		adds	r3, r7, r3
 2493 004e 3A1D     		adds	r2, r7, #4
 2494 0050 1278     		ldrb	r2, [r2]
 2495 0052 1A71     		strb	r2, [r3, #4]
 2496 0054 0C23     		movs	r3, #12
 2497 0056 FB18     		adds	r3, r7, r3
 2498 0058 BA1D     		adds	r2, r7, #6
 2499 005a 1278     		ldrb	r2, [r2]
 2500 005c 5A71     		strb	r2, [r3, #5]
 2501 005e 0C23     		movs	r3, #12
 2502 0060 FB18     		adds	r3, r7, r3
 2503 0062 0022     		movs	r2, #0
 2504 0064 9A71     		strb	r2, [r3, #6]
 2505 0066 0C23     		movs	r3, #12
 2506 0068 FB18     		adds	r3, r7, r3
 2507 006a FF22     		movs	r2, #255
 2508 006c DA71     		strb	r2, [r3, #7]
 2509 006e 0C23     		movs	r3, #12
 2510 0070 FB18     		adds	r3, r7, r3
 2511 0072 2F22     		movs	r2, #47
 2512 0074 1A72     		strb	r2, [r3, #8]
ARM GAS  C:\Users\jdrd3\AppData\Local\Temp\ccQ8iyfh.s 			page 51


 319:ssd1306.c     ****         0x00,
 320:ssd1306.c     ****         dir,                    // 0x26 or 0x2a
 321:ssd1306.c     ****         0x00,                   // dummy byte
 322:ssd1306.c     ****         start,                  // start page
 323:ssd1306.c     ****         speed,                  // scroll step interval in terms of frame frequency 
 324:ssd1306.c     ****         end,                    // end page
 325:ssd1306.c     ****         0x00,                   // dummy byte
 326:ssd1306.c     ****         0xFF,                   // dummy byte
 327:ssd1306.c     ****         SSD1306_ACTIVATE_SCROLL // 0x2F
 328:ssd1306.c     ****     };
 329:ssd1306.c     ****     display_write_buf( cmdbuf, sizeof(cmdbuf) ); 
 2513              		.loc 1 329 0
 2514 0076 0C23     		movs	r3, #12
 2515 0078 FB18     		adds	r3, r7, r3
 2516 007a 0921     		movs	r1, #9
 2517 007c 1800     		movs	r0, r3
 2518 007e FFF7FEFF 		bl	display_write_buf
 330:ssd1306.c     **** }
 2519              		.loc 1 330 0
 2520 0082 C046     		nop
 2521 0084 BD46     		mov	sp, r7
 2522 0086 06B0     		add	sp, sp, #24
 2523              		@ sp needed
 2524 0088 B0BD     		pop	{r4, r5, r7, pc}
 2525              		.cfi_endproc
 2526              	.LFE42:
 2527              		.size	display_scroll, .-display_scroll
 2528              		.comm	WIDTH,2,2
 2529              		.comm	HEIGHT,2,2
 2530 008a C046     		.bss
 2531 0001 00       		.align	1
 2532              	_width:
 2533 0002 0000     		.space	2
 2534              		.align	1
 2535              	_height:
 2536 0004 0000     		.space	2
 2537              		.align	1
 2538              	cursor_x:
 2539 0006 0000     		.space	2
 2540              		.align	1
 2541              	cursor_y:
 2542 0008 0000     		.space	2
 2543              		.align	1
 2544              	textcolor:
 2545 000a 0000     		.space	2
 2546              		.align	1
 2547              	textbgcolor:
 2548 000c 0000     		.space	2
 2549              	textsize:
 2550 000e 00       		.space	1
 2551              		.comm	rotation,1,1
 2552              		.comm	wrap,1,1
 2553              		.section	.text.gfx_init,"ax",%progbits
 2554              		.align	2
 2555              		.global	gfx_init
 2556              		.code	16
 2557              		.thumb_func
ARM GAS  C:\Users\jdrd3\AppData\Local\Temp\ccQ8iyfh.s 			page 52


 2558              		.type	gfx_init, %function
 2559              	gfx_init:
 2560              	.LFB43:
 331:ssd1306.c     **** 
 332:ssd1306.c     **** 
 333:ssd1306.c     **** 
 334:ssd1306.c     **** // ============================================================
 335:ssd1306.c     **** // graphics library stuff
 336:ssd1306.c     **** 
 337:ssd1306.c     **** int16_t WIDTH, HEIGHT; // This is the 'raw' display w/h - never changes
 338:ssd1306.c     **** static int16_t _width, _height; // Display w/h as modified by current rotation
 339:ssd1306.c     **** static int16_t cursor_x, cursor_y;
 340:ssd1306.c     **** static uint16_t textcolor, textbgcolor;
 341:ssd1306.c     **** static uint8_t textsize;
 342:ssd1306.c     **** uint8_t rotation;
 343:ssd1306.c     **** uint8_t wrap; // If set, 'wrap' text at right edge of display
 344:ssd1306.c     **** 
 345:ssd1306.c     **** 
 346:ssd1306.c     **** 
 347:ssd1306.c     **** void gfx_init( int16_t width, int16_t height ){
 2561              		.loc 1 347 0
 2562              		.cfi_startproc
 2563              		@ args = 0, pretend = 0, frame = 8
 2564              		@ frame_needed = 1, uses_anonymous_args = 0
 2565 0000 80B5     		push	{r7, lr}
 2566              		.cfi_def_cfa_offset 8
 2567              		.cfi_offset 7, -8
 2568              		.cfi_offset 14, -4
 2569 0002 82B0     		sub	sp, sp, #8
 2570              		.cfi_def_cfa_offset 16
 2571 0004 00AF     		add	r7, sp, #0
 2572              		.cfi_def_cfa_register 7
 2573 0006 0200     		movs	r2, r0
 2574 0008 BB1D     		adds	r3, r7, #6
 2575 000a 1A80     		strh	r2, [r3]
 2576 000c 3B1D     		adds	r3, r7, #4
 2577 000e 0A1C     		adds	r2, r1, #0
 2578 0010 1A80     		strh	r2, [r3]
 348:ssd1306.c     ****     WIDTH = width;
 2579              		.loc 1 348 0
 2580 0012 174B     		ldr	r3, .L68
 2581 0014 BA1D     		adds	r2, r7, #6
 2582 0016 1288     		ldrh	r2, [r2]
 2583 0018 1A80     		strh	r2, [r3]
 349:ssd1306.c     ****     HEIGHT = height;
 2584              		.loc 1 349 0
 2585 001a 164B     		ldr	r3, .L68+4
 2586 001c 3A1D     		adds	r2, r7, #4
 2587 001e 1288     		ldrh	r2, [r2]
 2588 0020 1A80     		strh	r2, [r3]
 350:ssd1306.c     ****     _width = WIDTH;
 2589              		.loc 1 350 0
 2590 0022 134B     		ldr	r3, .L68
 2591 0024 0022     		movs	r2, #0
 2592 0026 9A5E     		ldrsh	r2, [r3, r2]
 2593 0028 134B     		ldr	r3, .L68+8
 2594 002a 1A80     		strh	r2, [r3]
ARM GAS  C:\Users\jdrd3\AppData\Local\Temp\ccQ8iyfh.s 			page 53


 351:ssd1306.c     ****     _height = HEIGHT;
 2595              		.loc 1 351 0
 2596 002c 114B     		ldr	r3, .L68+4
 2597 002e 0022     		movs	r2, #0
 2598 0030 9A5E     		ldrsh	r2, [r3, r2]
 2599 0032 124B     		ldr	r3, .L68+12
 2600 0034 1A80     		strh	r2, [r3]
 352:ssd1306.c     ****     
 353:ssd1306.c     ****     rotation = 0;
 2601              		.loc 1 353 0
 2602 0036 124B     		ldr	r3, .L68+16
 2603 0038 0022     		movs	r2, #0
 2604 003a 1A70     		strb	r2, [r3]
 354:ssd1306.c     ****     cursor_y = cursor_x = 0;
 2605              		.loc 1 354 0
 2606 003c 114B     		ldr	r3, .L68+20
 2607 003e 0022     		movs	r2, #0
 2608 0040 1A80     		strh	r2, [r3]
 2609 0042 104B     		ldr	r3, .L68+20
 2610 0044 0022     		movs	r2, #0
 2611 0046 9A5E     		ldrsh	r2, [r3, r2]
 2612 0048 0F4B     		ldr	r3, .L68+24
 2613 004a 1A80     		strh	r2, [r3]
 355:ssd1306.c     ****     textsize = 1;
 2614              		.loc 1 355 0
 2615 004c 0F4B     		ldr	r3, .L68+28
 2616 004e 0122     		movs	r2, #1
 2617 0050 1A70     		strb	r2, [r3]
 356:ssd1306.c     ****     textcolor = textbgcolor = 0xFFFF;
 2618              		.loc 1 356 0
 2619 0052 0F4B     		ldr	r3, .L68+32
 2620 0054 0122     		movs	r2, #1
 2621 0056 5242     		rsbs	r2, r2, #0
 2622 0058 1A80     		strh	r2, [r3]
 2623 005a 0D4B     		ldr	r3, .L68+32
 2624 005c 1A88     		ldrh	r2, [r3]
 2625 005e 0D4B     		ldr	r3, .L68+36
 2626 0060 1A80     		strh	r2, [r3]
 357:ssd1306.c     ****     wrap = 1;
 2627              		.loc 1 357 0
 2628 0062 0D4B     		ldr	r3, .L68+40
 2629 0064 0122     		movs	r2, #1
 2630 0066 1A70     		strb	r2, [r3]
 358:ssd1306.c     **** }
 2631              		.loc 1 358 0
 2632 0068 C046     		nop
 2633 006a BD46     		mov	sp, r7
 2634 006c 02B0     		add	sp, sp, #8
 2635              		@ sp needed
 2636 006e 80BD     		pop	{r7, pc}
 2637              	.L69:
 2638              		.align	2
 2639              	.L68:
 2640 0070 00000000 		.word	WIDTH
 2641 0074 00000000 		.word	HEIGHT
 2642 0078 02000000 		.word	_width
 2643 007c 04000000 		.word	_height
ARM GAS  C:\Users\jdrd3\AppData\Local\Temp\ccQ8iyfh.s 			page 54


 2644 0080 00000000 		.word	rotation
 2645 0084 06000000 		.word	cursor_x
 2646 0088 08000000 		.word	cursor_y
 2647 008c 0E000000 		.word	textsize
 2648 0090 0C000000 		.word	textbgcolor
 2649 0094 0A000000 		.word	textcolor
 2650 0098 00000000 		.word	wrap
 2651              		.cfi_endproc
 2652              	.LFE43:
 2653              		.size	gfx_init, .-gfx_init
 2654              		.section	.text.gfx_width,"ax",%progbits
 2655              		.align	2
 2656              		.global	gfx_width
 2657              		.code	16
 2658              		.thumb_func
 2659              		.type	gfx_width, %function
 2660              	gfx_width:
 2661              	.LFB44:
 359:ssd1306.c     **** 
 360:ssd1306.c     **** // Return the size of the display (per current rotation)
 361:ssd1306.c     **** int16_t gfx_width(void){
 2662              		.loc 1 361 0
 2663              		.cfi_startproc
 2664              		@ args = 0, pretend = 0, frame = 0
 2665              		@ frame_needed = 1, uses_anonymous_args = 0
 2666 0000 80B5     		push	{r7, lr}
 2667              		.cfi_def_cfa_offset 8
 2668              		.cfi_offset 7, -8
 2669              		.cfi_offset 14, -4
 2670 0002 00AF     		add	r7, sp, #0
 2671              		.cfi_def_cfa_register 7
 362:ssd1306.c     ****     return _width;
 2672              		.loc 1 362 0
 2673 0004 024B     		ldr	r3, .L72
 2674 0006 0022     		movs	r2, #0
 2675 0008 9B5E     		ldrsh	r3, [r3, r2]
 363:ssd1306.c     **** }
 2676              		.loc 1 363 0
 2677 000a 1800     		movs	r0, r3
 2678 000c BD46     		mov	sp, r7
 2679              		@ sp needed
 2680 000e 80BD     		pop	{r7, pc}
 2681              	.L73:
 2682              		.align	2
 2683              	.L72:
 2684 0010 02000000 		.word	_width
 2685              		.cfi_endproc
 2686              	.LFE44:
 2687              		.size	gfx_width, .-gfx_width
 2688              		.section	.text.gfx_height,"ax",%progbits
 2689              		.align	2
 2690              		.global	gfx_height
 2691              		.code	16
 2692              		.thumb_func
 2693              		.type	gfx_height, %function
 2694              	gfx_height:
 2695              	.LFB45:
ARM GAS  C:\Users\jdrd3\AppData\Local\Temp\ccQ8iyfh.s 			page 55


 364:ssd1306.c     **** 
 365:ssd1306.c     **** int16_t gfx_height(void){
 2696              		.loc 1 365 0
 2697              		.cfi_startproc
 2698              		@ args = 0, pretend = 0, frame = 0
 2699              		@ frame_needed = 1, uses_anonymous_args = 0
 2700 0000 80B5     		push	{r7, lr}
 2701              		.cfi_def_cfa_offset 8
 2702              		.cfi_offset 7, -8
 2703              		.cfi_offset 14, -4
 2704 0002 00AF     		add	r7, sp, #0
 2705              		.cfi_def_cfa_register 7
 366:ssd1306.c     ****     return _height;
 2706              		.loc 1 366 0
 2707 0004 024B     		ldr	r3, .L76
 2708 0006 0022     		movs	r2, #0
 2709 0008 9B5E     		ldrsh	r3, [r3, r2]
 367:ssd1306.c     **** }
 2710              		.loc 1 367 0
 2711 000a 1800     		movs	r0, r3
 2712 000c BD46     		mov	sp, r7
 2713              		@ sp needed
 2714 000e 80BD     		pop	{r7, pc}
 2715              	.L77:
 2716              		.align	2
 2717              	.L76:
 2718 0010 04000000 		.word	_height
 2719              		.cfi_endproc
 2720              	.LFE45:
 2721              		.size	gfx_height, .-gfx_height
 2722              		.section	.text.gfx_rotation,"ax",%progbits
 2723              		.align	2
 2724              		.global	gfx_rotation
 2725              		.code	16
 2726              		.thumb_func
 2727              		.type	gfx_rotation, %function
 2728              	gfx_rotation:
 2729              	.LFB46:
 368:ssd1306.c     **** 
 369:ssd1306.c     **** uint8_t gfx_rotation(void){
 2730              		.loc 1 369 0
 2731              		.cfi_startproc
 2732              		@ args = 0, pretend = 0, frame = 0
 2733              		@ frame_needed = 1, uses_anonymous_args = 0
 2734 0000 80B5     		push	{r7, lr}
 2735              		.cfi_def_cfa_offset 8
 2736              		.cfi_offset 7, -8
 2737              		.cfi_offset 14, -4
 2738 0002 00AF     		add	r7, sp, #0
 2739              		.cfi_def_cfa_register 7
 370:ssd1306.c     ****     return rotation;
 2740              		.loc 1 370 0
 2741 0004 024B     		ldr	r3, .L80
 2742 0006 1B78     		ldrb	r3, [r3]
 371:ssd1306.c     **** }
 2743              		.loc 1 371 0
 2744 0008 1800     		movs	r0, r3
ARM GAS  C:\Users\jdrd3\AppData\Local\Temp\ccQ8iyfh.s 			page 56


 2745 000a BD46     		mov	sp, r7
 2746              		@ sp needed
 2747 000c 80BD     		pop	{r7, pc}
 2748              	.L81:
 2749 000e C046     		.align	2
 2750              	.L80:
 2751 0010 00000000 		.word	rotation
 2752              		.cfi_endproc
 2753              	.LFE46:
 2754              		.size	gfx_rotation, .-gfx_rotation
 2755              		.section	.text.gfx_setCursor,"ax",%progbits
 2756              		.align	2
 2757              		.global	gfx_setCursor
 2758              		.code	16
 2759              		.thumb_func
 2760              		.type	gfx_setCursor, %function
 2761              	gfx_setCursor:
 2762              	.LFB47:
 372:ssd1306.c     **** 
 373:ssd1306.c     **** void gfx_setCursor( int16_t x, int16_t y ){
 2763              		.loc 1 373 0
 2764              		.cfi_startproc
 2765              		@ args = 0, pretend = 0, frame = 8
 2766              		@ frame_needed = 1, uses_anonymous_args = 0
 2767 0000 80B5     		push	{r7, lr}
 2768              		.cfi_def_cfa_offset 8
 2769              		.cfi_offset 7, -8
 2770              		.cfi_offset 14, -4
 2771 0002 82B0     		sub	sp, sp, #8
 2772              		.cfi_def_cfa_offset 16
 2773 0004 00AF     		add	r7, sp, #0
 2774              		.cfi_def_cfa_register 7
 2775 0006 0200     		movs	r2, r0
 2776 0008 BB1D     		adds	r3, r7, #6
 2777 000a 1A80     		strh	r2, [r3]
 2778 000c 3B1D     		adds	r3, r7, #4
 2779 000e 0A1C     		adds	r2, r1, #0
 2780 0010 1A80     		strh	r2, [r3]
 374:ssd1306.c     ****     cursor_x = x;
 2781              		.loc 1 374 0
 2782 0012 064B     		ldr	r3, .L83
 2783 0014 BA1D     		adds	r2, r7, #6
 2784 0016 1288     		ldrh	r2, [r2]
 2785 0018 1A80     		strh	r2, [r3]
 375:ssd1306.c     ****     cursor_y = y;
 2786              		.loc 1 375 0
 2787 001a 054B     		ldr	r3, .L83+4
 2788 001c 3A1D     		adds	r2, r7, #4
 2789 001e 1288     		ldrh	r2, [r2]
 2790 0020 1A80     		strh	r2, [r3]
 376:ssd1306.c     **** }
 2791              		.loc 1 376 0
 2792 0022 C046     		nop
 2793 0024 BD46     		mov	sp, r7
 2794 0026 02B0     		add	sp, sp, #8
 2795              		@ sp needed
 2796 0028 80BD     		pop	{r7, pc}
ARM GAS  C:\Users\jdrd3\AppData\Local\Temp\ccQ8iyfh.s 			page 57


 2797              	.L84:
 2798 002a C046     		.align	2
 2799              	.L83:
 2800 002c 06000000 		.word	cursor_x
 2801 0030 08000000 		.word	cursor_y
 2802              		.cfi_endproc
 2803              	.LFE47:
 2804              		.size	gfx_setCursor, .-gfx_setCursor
 2805              		.section	.text.gfx_setTextSize,"ax",%progbits
 2806              		.align	2
 2807              		.global	gfx_setTextSize
 2808              		.code	16
 2809              		.thumb_func
 2810              		.type	gfx_setTextSize, %function
 2811              	gfx_setTextSize:
 2812              	.LFB48:
 377:ssd1306.c     **** 
 378:ssd1306.c     **** void gfx_setTextSize( uint8_t size ){
 2813              		.loc 1 378 0
 2814              		.cfi_startproc
 2815              		@ args = 0, pretend = 0, frame = 8
 2816              		@ frame_needed = 1, uses_anonymous_args = 0
 2817 0000 80B5     		push	{r7, lr}
 2818              		.cfi_def_cfa_offset 8
 2819              		.cfi_offset 7, -8
 2820              		.cfi_offset 14, -4
 2821 0002 82B0     		sub	sp, sp, #8
 2822              		.cfi_def_cfa_offset 16
 2823 0004 00AF     		add	r7, sp, #0
 2824              		.cfi_def_cfa_register 7
 2825 0006 0200     		movs	r2, r0
 2826 0008 FB1D     		adds	r3, r7, #7
 2827 000a 1A70     		strb	r2, [r3]
 379:ssd1306.c     ****     textsize = (size > 0) ? size : 1;
 2828              		.loc 1 379 0
 2829 000c FB1D     		adds	r3, r7, #7
 2830 000e 1B78     		ldrb	r3, [r3]
 2831 0010 002B     		cmp	r3, #0
 2832 0012 02D0     		beq	.L86
 2833              		.loc 1 379 0 is_stmt 0 discriminator 1
 2834 0014 FB1D     		adds	r3, r7, #7
 2835 0016 1A78     		ldrb	r2, [r3]
 2836 0018 00E0     		b	.L87
 2837              	.L86:
 2838              		.loc 1 379 0 discriminator 2
 2839 001a 0122     		movs	r2, #1
 2840              	.L87:
 2841              		.loc 1 379 0 discriminator 4
 2842 001c 024B     		ldr	r3, .L88
 2843 001e 1A70     		strb	r2, [r3]
 380:ssd1306.c     **** }
 2844              		.loc 1 380 0 is_stmt 1 discriminator 4
 2845 0020 C046     		nop
 2846 0022 BD46     		mov	sp, r7
 2847 0024 02B0     		add	sp, sp, #8
 2848              		@ sp needed
 2849 0026 80BD     		pop	{r7, pc}
ARM GAS  C:\Users\jdrd3\AppData\Local\Temp\ccQ8iyfh.s 			page 58


 2850              	.L89:
 2851              		.align	2
 2852              	.L88:
 2853 0028 0E000000 		.word	textsize
 2854              		.cfi_endproc
 2855              	.LFE48:
 2856              		.size	gfx_setTextSize, .-gfx_setTextSize
 2857              		.section	.text.gfx_setTextColor,"ax",%progbits
 2858              		.align	2
 2859              		.global	gfx_setTextColor
 2860              		.code	16
 2861              		.thumb_func
 2862              		.type	gfx_setTextColor, %function
 2863              	gfx_setTextColor:
 2864              	.LFB49:
 381:ssd1306.c     **** 
 382:ssd1306.c     **** void gfx_setTextColor( uint16_t color ){
 2865              		.loc 1 382 0
 2866              		.cfi_startproc
 2867              		@ args = 0, pretend = 0, frame = 8
 2868              		@ frame_needed = 1, uses_anonymous_args = 0
 2869 0000 80B5     		push	{r7, lr}
 2870              		.cfi_def_cfa_offset 8
 2871              		.cfi_offset 7, -8
 2872              		.cfi_offset 14, -4
 2873 0002 82B0     		sub	sp, sp, #8
 2874              		.cfi_def_cfa_offset 16
 2875 0004 00AF     		add	r7, sp, #0
 2876              		.cfi_def_cfa_register 7
 2877 0006 0200     		movs	r2, r0
 2878 0008 BB1D     		adds	r3, r7, #6
 2879 000a 1A80     		strh	r2, [r3]
 383:ssd1306.c     ****     // For 'transparent' background, we'll set the bg
 384:ssd1306.c     ****     // to the same as fg instead of using a flag
 385:ssd1306.c     ****     textcolor = textbgcolor = color;
 2880              		.loc 1 385 0
 2881 000c 054B     		ldr	r3, .L91
 2882 000e BA1D     		adds	r2, r7, #6
 2883 0010 1288     		ldrh	r2, [r2]
 2884 0012 1A80     		strh	r2, [r3]
 2885 0014 034B     		ldr	r3, .L91
 2886 0016 1A88     		ldrh	r2, [r3]
 2887 0018 034B     		ldr	r3, .L91+4
 2888 001a 1A80     		strh	r2, [r3]
 386:ssd1306.c     **** }
 2889              		.loc 1 386 0
 2890 001c C046     		nop
 2891 001e BD46     		mov	sp, r7
 2892 0020 02B0     		add	sp, sp, #8
 2893              		@ sp needed
 2894 0022 80BD     		pop	{r7, pc}
 2895              	.L92:
 2896              		.align	2
 2897              	.L91:
 2898 0024 0C000000 		.word	textbgcolor
 2899 0028 0A000000 		.word	textcolor
 2900              		.cfi_endproc
ARM GAS  C:\Users\jdrd3\AppData\Local\Temp\ccQ8iyfh.s 			page 59


 2901              	.LFE49:
 2902              		.size	gfx_setTextColor, .-gfx_setTextColor
 2903              		.section	.text.gfx_setTextBg,"ax",%progbits
 2904              		.align	2
 2905              		.global	gfx_setTextBg
 2906              		.code	16
 2907              		.thumb_func
 2908              		.type	gfx_setTextBg, %function
 2909              	gfx_setTextBg:
 2910              	.LFB50:
 387:ssd1306.c     **** 
 388:ssd1306.c     **** void gfx_setTextBg( uint16_t color ){
 2911              		.loc 1 388 0
 2912              		.cfi_startproc
 2913              		@ args = 0, pretend = 0, frame = 8
 2914              		@ frame_needed = 1, uses_anonymous_args = 0
 2915 0000 80B5     		push	{r7, lr}
 2916              		.cfi_def_cfa_offset 8
 2917              		.cfi_offset 7, -8
 2918              		.cfi_offset 14, -4
 2919 0002 82B0     		sub	sp, sp, #8
 2920              		.cfi_def_cfa_offset 16
 2921 0004 00AF     		add	r7, sp, #0
 2922              		.cfi_def_cfa_register 7
 2923 0006 0200     		movs	r2, r0
 2924 0008 BB1D     		adds	r3, r7, #6
 2925 000a 1A80     		strh	r2, [r3]
 389:ssd1306.c     ****     textbgcolor = color;
 2926              		.loc 1 389 0
 2927 000c 034B     		ldr	r3, .L94
 2928 000e BA1D     		adds	r2, r7, #6
 2929 0010 1288     		ldrh	r2, [r2]
 2930 0012 1A80     		strh	r2, [r3]
 390:ssd1306.c     **** }
 2931              		.loc 1 390 0
 2932 0014 C046     		nop
 2933 0016 BD46     		mov	sp, r7
 2934 0018 02B0     		add	sp, sp, #8
 2935              		@ sp needed
 2936 001a 80BD     		pop	{r7, pc}
 2937              	.L95:
 2938              		.align	2
 2939              	.L94:
 2940 001c 0C000000 		.word	textbgcolor
 2941              		.cfi_endproc
 2942              	.LFE50:
 2943              		.size	gfx_setTextBg, .-gfx_setTextBg
 2944              		.section	.text.gfx_setTextWrap,"ax",%progbits
 2945              		.align	2
 2946              		.global	gfx_setTextWrap
 2947              		.code	16
 2948              		.thumb_func
 2949              		.type	gfx_setTextWrap, %function
 2950              	gfx_setTextWrap:
 2951              	.LFB51:
 391:ssd1306.c     **** 
 392:ssd1306.c     **** void gfx_setTextWrap( uint8 w ){
ARM GAS  C:\Users\jdrd3\AppData\Local\Temp\ccQ8iyfh.s 			page 60


 2952              		.loc 1 392 0
 2953              		.cfi_startproc
 2954              		@ args = 0, pretend = 0, frame = 8
 2955              		@ frame_needed = 1, uses_anonymous_args = 0
 2956 0000 80B5     		push	{r7, lr}
 2957              		.cfi_def_cfa_offset 8
 2958              		.cfi_offset 7, -8
 2959              		.cfi_offset 14, -4
 2960 0002 82B0     		sub	sp, sp, #8
 2961              		.cfi_def_cfa_offset 16
 2962 0004 00AF     		add	r7, sp, #0
 2963              		.cfi_def_cfa_register 7
 2964 0006 0200     		movs	r2, r0
 2965 0008 FB1D     		adds	r3, r7, #7
 2966 000a 1A70     		strb	r2, [r3]
 393:ssd1306.c     ****     wrap = w;
 2967              		.loc 1 393 0
 2968 000c 034B     		ldr	r3, .L97
 2969 000e FA1D     		adds	r2, r7, #7
 2970 0010 1278     		ldrb	r2, [r2]
 2971 0012 1A70     		strb	r2, [r3]
 394:ssd1306.c     **** }
 2972              		.loc 1 394 0
 2973 0014 C046     		nop
 2974 0016 BD46     		mov	sp, r7
 2975 0018 02B0     		add	sp, sp, #8
 2976              		@ sp needed
 2977 001a 80BD     		pop	{r7, pc}
 2978              	.L98:
 2979              		.align	2
 2980              	.L97:
 2981 001c 00000000 		.word	wrap
 2982              		.cfi_endproc
 2983              	.LFE51:
 2984              		.size	gfx_setTextWrap, .-gfx_setTextWrap
 2985              		.section	.text.gfx_setRotation,"ax",%progbits
 2986              		.align	2
 2987              		.global	gfx_setRotation
 2988              		.code	16
 2989              		.thumb_func
 2990              		.type	gfx_setRotation, %function
 2991              	gfx_setRotation:
 2992              	.LFB52:
 395:ssd1306.c     **** 
 396:ssd1306.c     **** void gfx_setRotation( uint8_t x ){
 2993              		.loc 1 396 0
 2994              		.cfi_startproc
 2995              		@ args = 0, pretend = 0, frame = 8
 2996              		@ frame_needed = 1, uses_anonymous_args = 0
 2997 0000 80B5     		push	{r7, lr}
 2998              		.cfi_def_cfa_offset 8
 2999              		.cfi_offset 7, -8
 3000              		.cfi_offset 14, -4
 3001 0002 82B0     		sub	sp, sp, #8
 3002              		.cfi_def_cfa_offset 16
 3003 0004 00AF     		add	r7, sp, #0
 3004              		.cfi_def_cfa_register 7
ARM GAS  C:\Users\jdrd3\AppData\Local\Temp\ccQ8iyfh.s 			page 61


 3005 0006 0200     		movs	r2, r0
 3006 0008 FB1D     		adds	r3, r7, #7
 3007 000a 1A70     		strb	r2, [r3]
 397:ssd1306.c     ****     
 398:ssd1306.c     ****     rotation = (x & 3);
 3008              		.loc 1 398 0
 3009 000c FB1D     		adds	r3, r7, #7
 3010 000e 1B78     		ldrb	r3, [r3]
 3011 0010 0322     		movs	r2, #3
 3012 0012 1340     		ands	r3, r2
 3013 0014 DAB2     		uxtb	r2, r3
 3014 0016 144B     		ldr	r3, .L105
 3015 0018 1A70     		strb	r2, [r3]
 399:ssd1306.c     ****     switch( rotation ){
 3016              		.loc 1 399 0
 3017 001a 134B     		ldr	r3, .L105
 3018 001c 1B78     		ldrb	r3, [r3]
 3019 001e 012B     		cmp	r3, #1
 3020 0020 13D0     		beq	.L101
 3021 0022 02DC     		bgt	.L102
 3022 0024 002B     		cmp	r3, #0
 3023 0026 05D0     		beq	.L103
 400:ssd1306.c     ****         case 0:
 401:ssd1306.c     ****         case 2:
 402:ssd1306.c     ****             _width = WIDTH;
 403:ssd1306.c     ****             _height = HEIGHT;
 404:ssd1306.c     ****             break;
 405:ssd1306.c     ****         case 1:
 406:ssd1306.c     ****         case 3:
 407:ssd1306.c     ****             _width = HEIGHT;
 408:ssd1306.c     ****             _height = WIDTH;
 409:ssd1306.c     ****         break;
 410:ssd1306.c     ****     }
 411:ssd1306.c     **** }
 3024              		.loc 1 411 0
 3025 0028 1AE0     		b	.L104
 3026              	.L102:
 399:ssd1306.c     ****     switch( rotation ){
 3027              		.loc 1 399 0
 3028 002a 022B     		cmp	r3, #2
 3029 002c 02D0     		beq	.L103
 3030 002e 032B     		cmp	r3, #3
 3031 0030 0BD0     		beq	.L101
 3032              		.loc 1 411 0
 3033 0032 15E0     		b	.L104
 3034              	.L103:
 402:ssd1306.c     ****             _height = HEIGHT;
 3035              		.loc 1 402 0
 3036 0034 0D4B     		ldr	r3, .L105+4
 3037 0036 0022     		movs	r2, #0
 3038 0038 9A5E     		ldrsh	r2, [r3, r2]
 3039 003a 0D4B     		ldr	r3, .L105+8
 3040 003c 1A80     		strh	r2, [r3]
 403:ssd1306.c     ****             break;
 3041              		.loc 1 403 0
 3042 003e 0D4B     		ldr	r3, .L105+12
 3043 0040 0022     		movs	r2, #0
ARM GAS  C:\Users\jdrd3\AppData\Local\Temp\ccQ8iyfh.s 			page 62


 3044 0042 9A5E     		ldrsh	r2, [r3, r2]
 3045 0044 0C4B     		ldr	r3, .L105+16
 3046 0046 1A80     		strh	r2, [r3]
 404:ssd1306.c     ****         case 1:
 3047              		.loc 1 404 0
 3048 0048 0AE0     		b	.L100
 3049              	.L101:
 407:ssd1306.c     ****             _height = WIDTH;
 3050              		.loc 1 407 0
 3051 004a 0A4B     		ldr	r3, .L105+12
 3052 004c 0022     		movs	r2, #0
 3053 004e 9A5E     		ldrsh	r2, [r3, r2]
 3054 0050 074B     		ldr	r3, .L105+8
 3055 0052 1A80     		strh	r2, [r3]
 408:ssd1306.c     ****         break;
 3056              		.loc 1 408 0
 3057 0054 054B     		ldr	r3, .L105+4
 3058 0056 0022     		movs	r2, #0
 3059 0058 9A5E     		ldrsh	r2, [r3, r2]
 3060 005a 074B     		ldr	r3, .L105+16
 3061 005c 1A80     		strh	r2, [r3]
 409:ssd1306.c     ****     }
 3062              		.loc 1 409 0
 3063 005e C046     		nop
 3064              	.L100:
 3065              	.L104:
 3066              		.loc 1 411 0
 3067 0060 C046     		nop
 3068 0062 BD46     		mov	sp, r7
 3069 0064 02B0     		add	sp, sp, #8
 3070              		@ sp needed
 3071 0066 80BD     		pop	{r7, pc}
 3072              	.L106:
 3073              		.align	2
 3074              	.L105:
 3075 0068 00000000 		.word	rotation
 3076 006c 00000000 		.word	WIDTH
 3077 0070 02000000 		.word	_width
 3078 0074 00000000 		.word	HEIGHT
 3079 0078 04000000 		.word	_height
 3080              		.cfi_endproc
 3081              	.LFE52:
 3082              		.size	gfx_setRotation, .-gfx_setRotation
 3083              		.section	.text.gfx_rotation_adjust,"ax",%progbits
 3084              		.align	2
 3085              		.code	16
 3086              		.thumb_func
 3087              		.type	gfx_rotation_adjust, %function
 3088              	gfx_rotation_adjust:
 3089              	.LFB53:
 412:ssd1306.c     **** 
 413:ssd1306.c     **** static void gfx_rotation_adjust( int16_t* px, int16_t* py ){
 3090              		.loc 1 413 0
 3091              		.cfi_startproc
 3092              		@ args = 0, pretend = 0, frame = 16
 3093              		@ frame_needed = 1, uses_anonymous_args = 0
 3094 0000 80B5     		push	{r7, lr}
ARM GAS  C:\Users\jdrd3\AppData\Local\Temp\ccQ8iyfh.s 			page 63


 3095              		.cfi_def_cfa_offset 8
 3096              		.cfi_offset 7, -8
 3097              		.cfi_offset 14, -4
 3098 0002 84B0     		sub	sp, sp, #16
 3099              		.cfi_def_cfa_offset 24
 3100 0004 00AF     		add	r7, sp, #0
 3101              		.cfi_def_cfa_register 7
 3102 0006 7860     		str	r0, [r7, #4]
 3103 0008 3960     		str	r1, [r7]
 414:ssd1306.c     **** 
 415:ssd1306.c     ****     int16_t y0 = *py;
 3104              		.loc 1 415 0
 3105 000a 0E23     		movs	r3, #14
 3106 000c FB18     		adds	r3, r7, r3
 3107 000e 3A68     		ldr	r2, [r7]
 3108 0010 1288     		ldrh	r2, [r2]
 3109 0012 1A80     		strh	r2, [r3]
 416:ssd1306.c     ****     
 417:ssd1306.c     ****     switch( rotation ){
 3110              		.loc 1 417 0
 3111 0014 2A4B     		ldr	r3, .L113
 3112 0016 1B78     		ldrb	r3, [r3]
 3113 0018 022B     		cmp	r3, #2
 3114 001a 18D0     		beq	.L109
 3115 001c 032B     		cmp	r3, #3
 3116 001e 35D0     		beq	.L110
 3117 0020 012B     		cmp	r3, #1
 3118 0022 00D0     		beq	.L111
 418:ssd1306.c     ****         case 1:
 419:ssd1306.c     ****             *py = *px;
 420:ssd1306.c     ****             *px = WIDTH - y0 - 1;
 421:ssd1306.c     ****             break;
 422:ssd1306.c     ****         case 2:
 423:ssd1306.c     ****             *px = WIDTH - *px - 1;
 424:ssd1306.c     ****             *py = HEIGHT - *py - 1;
 425:ssd1306.c     ****             break;
 426:ssd1306.c     ****         case 3:
 427:ssd1306.c     ****             *py = HEIGHT - *px - 1;
 428:ssd1306.c     ****             *px = y0;
 429:ssd1306.c     ****             break;
 430:ssd1306.c     ****     }
 431:ssd1306.c     **** }
 3119              		.loc 1 431 0
 3120 0024 47E0     		b	.L112
 3121              	.L111:
 419:ssd1306.c     ****             *px = WIDTH - y0 - 1;
 3122              		.loc 1 419 0
 3123 0026 7B68     		ldr	r3, [r7, #4]
 3124 0028 0022     		movs	r2, #0
 3125 002a 9A5E     		ldrsh	r2, [r3, r2]
 3126 002c 3B68     		ldr	r3, [r7]
 3127 002e 1A80     		strh	r2, [r3]
 420:ssd1306.c     ****             break;
 3128              		.loc 1 420 0
 3129 0030 244B     		ldr	r3, .L113+4
 3130 0032 0022     		movs	r2, #0
 3131 0034 9B5E     		ldrsh	r3, [r3, r2]
ARM GAS  C:\Users\jdrd3\AppData\Local\Temp\ccQ8iyfh.s 			page 64


 3132 0036 9AB2     		uxth	r2, r3
 3133 0038 0E23     		movs	r3, #14
 3134 003a FB18     		adds	r3, r7, r3
 3135 003c 1B88     		ldrh	r3, [r3]
 3136 003e D31A     		subs	r3, r2, r3
 3137 0040 9BB2     		uxth	r3, r3
 3138 0042 013B     		subs	r3, r3, #1
 3139 0044 9BB2     		uxth	r3, r3
 3140 0046 1AB2     		sxth	r2, r3
 3141 0048 7B68     		ldr	r3, [r7, #4]
 3142 004a 1A80     		strh	r2, [r3]
 421:ssd1306.c     ****         case 2:
 3143              		.loc 1 421 0
 3144 004c 33E0     		b	.L108
 3145              	.L109:
 423:ssd1306.c     ****             *py = HEIGHT - *py - 1;
 3146              		.loc 1 423 0
 3147 004e 1D4B     		ldr	r3, .L113+4
 3148 0050 0022     		movs	r2, #0
 3149 0052 9B5E     		ldrsh	r3, [r3, r2]
 3150 0054 9AB2     		uxth	r2, r3
 3151 0056 7B68     		ldr	r3, [r7, #4]
 3152 0058 0021     		movs	r1, #0
 3153 005a 5B5E     		ldrsh	r3, [r3, r1]
 3154 005c 9BB2     		uxth	r3, r3
 3155 005e D31A     		subs	r3, r2, r3
 3156 0060 9BB2     		uxth	r3, r3
 3157 0062 013B     		subs	r3, r3, #1
 3158 0064 9BB2     		uxth	r3, r3
 3159 0066 1AB2     		sxth	r2, r3
 3160 0068 7B68     		ldr	r3, [r7, #4]
 3161 006a 1A80     		strh	r2, [r3]
 424:ssd1306.c     ****             break;
 3162              		.loc 1 424 0
 3163 006c 164B     		ldr	r3, .L113+8
 3164 006e 0022     		movs	r2, #0
 3165 0070 9B5E     		ldrsh	r3, [r3, r2]
 3166 0072 9AB2     		uxth	r2, r3
 3167 0074 3B68     		ldr	r3, [r7]
 3168 0076 0021     		movs	r1, #0
 3169 0078 5B5E     		ldrsh	r3, [r3, r1]
 3170 007a 9BB2     		uxth	r3, r3
 3171 007c D31A     		subs	r3, r2, r3
 3172 007e 9BB2     		uxth	r3, r3
 3173 0080 013B     		subs	r3, r3, #1
 3174 0082 9BB2     		uxth	r3, r3
 3175 0084 1AB2     		sxth	r2, r3
 3176 0086 3B68     		ldr	r3, [r7]
 3177 0088 1A80     		strh	r2, [r3]
 425:ssd1306.c     ****         case 3:
 3178              		.loc 1 425 0
 3179 008a 14E0     		b	.L108
 3180              	.L110:
 427:ssd1306.c     ****             *px = y0;
 3181              		.loc 1 427 0
 3182 008c 0E4B     		ldr	r3, .L113+8
 3183 008e 0022     		movs	r2, #0
ARM GAS  C:\Users\jdrd3\AppData\Local\Temp\ccQ8iyfh.s 			page 65


 3184 0090 9B5E     		ldrsh	r3, [r3, r2]
 3185 0092 9AB2     		uxth	r2, r3
 3186 0094 7B68     		ldr	r3, [r7, #4]
 3187 0096 0021     		movs	r1, #0
 3188 0098 5B5E     		ldrsh	r3, [r3, r1]
 3189 009a 9BB2     		uxth	r3, r3
 3190 009c D31A     		subs	r3, r2, r3
 3191 009e 9BB2     		uxth	r3, r3
 3192 00a0 013B     		subs	r3, r3, #1
 3193 00a2 9BB2     		uxth	r3, r3
 3194 00a4 1AB2     		sxth	r2, r3
 3195 00a6 3B68     		ldr	r3, [r7]
 3196 00a8 1A80     		strh	r2, [r3]
 428:ssd1306.c     ****             break;
 3197              		.loc 1 428 0
 3198 00aa 7B68     		ldr	r3, [r7, #4]
 3199 00ac 0E22     		movs	r2, #14
 3200 00ae BA18     		adds	r2, r7, r2
 3201 00b0 1288     		ldrh	r2, [r2]
 3202 00b2 1A80     		strh	r2, [r3]
 429:ssd1306.c     ****     }
 3203              		.loc 1 429 0
 3204 00b4 C046     		nop
 3205              	.L108:
 3206              	.L112:
 3207              		.loc 1 431 0
 3208 00b6 C046     		nop
 3209 00b8 BD46     		mov	sp, r7
 3210 00ba 04B0     		add	sp, sp, #16
 3211              		@ sp needed
 3212 00bc 80BD     		pop	{r7, pc}
 3213              	.L114:
 3214 00be C046     		.align	2
 3215              	.L113:
 3216 00c0 00000000 		.word	rotation
 3217 00c4 00000000 		.word	WIDTH
 3218 00c8 00000000 		.word	HEIGHT
 3219              		.cfi_endproc
 3220              	.LFE53:
 3221              		.size	gfx_rotation_adjust, .-gfx_rotation_adjust
 3222              		.section	.text.gfx_drawPixel,"ax",%progbits
 3223              		.align	2
 3224              		.global	gfx_drawPixel
 3225              		.code	16
 3226              		.thumb_func
 3227              		.type	gfx_drawPixel, %function
 3228              	gfx_drawPixel:
 3229              	.LFB54:
 432:ssd1306.c     **** 
 433:ssd1306.c     **** void gfx_drawPixel( int16_t x, int16_t y, uint16_t color ){
 3230              		.loc 1 433 0
 3231              		.cfi_startproc
 3232              		@ args = 0, pretend = 0, frame = 8
 3233              		@ frame_needed = 1, uses_anonymous_args = 0
 3234 0000 90B5     		push	{r4, r7, lr}
 3235              		.cfi_def_cfa_offset 12
 3236              		.cfi_offset 4, -12
ARM GAS  C:\Users\jdrd3\AppData\Local\Temp\ccQ8iyfh.s 			page 66


 3237              		.cfi_offset 7, -8
 3238              		.cfi_offset 14, -4
 3239 0002 83B0     		sub	sp, sp, #12
 3240              		.cfi_def_cfa_offset 24
 3241 0004 00AF     		add	r7, sp, #0
 3242              		.cfi_def_cfa_register 7
 3243 0006 0400     		movs	r4, r0
 3244 0008 0800     		movs	r0, r1
 3245 000a 1100     		movs	r1, r2
 3246 000c BB1D     		adds	r3, r7, #6
 3247 000e 221C     		adds	r2, r4, #0
 3248 0010 1A80     		strh	r2, [r3]
 3249 0012 3B1D     		adds	r3, r7, #4
 3250 0014 021C     		adds	r2, r0, #0
 3251 0016 1A80     		strh	r2, [r3]
 3252 0018 BB1C     		adds	r3, r7, #2
 3253 001a 0A1C     		adds	r2, r1, #0
 3254 001c 1A80     		strh	r2, [r3]
 434:ssd1306.c     ****     
 435:ssd1306.c     ****     if( (x < 0) || (x >= _width) || (y < 0) || (y >= _height) )
 3255              		.loc 1 435 0
 3256 001e BB1D     		adds	r3, r7, #6
 3257 0020 0022     		movs	r2, #0
 3258 0022 9B5E     		ldrsh	r3, [r3, r2]
 3259 0024 002B     		cmp	r3, #0
 3260 0026 26DB     		blt	.L119
 3261              		.loc 1 435 0 is_stmt 0 discriminator 1
 3262 0028 BB1D     		adds	r3, r7, #6
 3263 002a 0022     		movs	r2, #0
 3264 002c 9A5E     		ldrsh	r2, [r3, r2]
 3265 002e 144B     		ldr	r3, .L120
 3266 0030 0021     		movs	r1, #0
 3267 0032 5B5E     		ldrsh	r3, [r3, r1]
 3268 0034 9A42     		cmp	r2, r3
 3269 0036 1EDA     		bge	.L119
 3270              		.loc 1 435 0 discriminator 2
 3271 0038 3B1D     		adds	r3, r7, #4
 3272 003a 0022     		movs	r2, #0
 3273 003c 9B5E     		ldrsh	r3, [r3, r2]
 3274 003e 002B     		cmp	r3, #0
 3275 0040 19DB     		blt	.L119
 3276              		.loc 1 435 0 discriminator 3
 3277 0042 3B1D     		adds	r3, r7, #4
 3278 0044 0022     		movs	r2, #0
 3279 0046 9A5E     		ldrsh	r2, [r3, r2]
 3280 0048 0E4B     		ldr	r3, .L120+4
 3281 004a 0021     		movs	r1, #0
 3282 004c 5B5E     		ldrsh	r3, [r3, r1]
 3283 004e 9A42     		cmp	r2, r3
 3284 0050 11DA     		bge	.L119
 436:ssd1306.c     ****         return;
 437:ssd1306.c     ****     
 438:ssd1306.c     ****     gfx_rotation_adjust( &x, &y );
 3285              		.loc 1 438 0 is_stmt 1
 3286 0052 3A1D     		adds	r2, r7, #4
 3287 0054 BB1D     		adds	r3, r7, #6
 3288 0056 1100     		movs	r1, r2
ARM GAS  C:\Users\jdrd3\AppData\Local\Temp\ccQ8iyfh.s 			page 67


 3289 0058 1800     		movs	r0, r3
 3290 005a FFF7FEFF 		bl	gfx_rotation_adjust
 439:ssd1306.c     **** 
 440:ssd1306.c     ****     display_setPixel(x,y,color);
 3291              		.loc 1 440 0
 3292 005e BB1D     		adds	r3, r7, #6
 3293 0060 0020     		movs	r0, #0
 3294 0062 185E     		ldrsh	r0, [r3, r0]
 3295 0064 3B1D     		adds	r3, r7, #4
 3296 0066 0021     		movs	r1, #0
 3297 0068 595E     		ldrsh	r1, [r3, r1]
 3298 006a BB1C     		adds	r3, r7, #2
 3299 006c 1B88     		ldrh	r3, [r3]
 3300 006e 1A00     		movs	r2, r3
 3301 0070 FFF7FEFF 		bl	display_setPixel
 3302 0074 00E0     		b	.L115
 3303              	.L119:
 436:ssd1306.c     ****         return;
 3304              		.loc 1 436 0
 3305 0076 C046     		nop
 3306              	.L115:
 441:ssd1306.c     **** }
 3307              		.loc 1 441 0
 3308 0078 BD46     		mov	sp, r7
 3309 007a 03B0     		add	sp, sp, #12
 3310              		@ sp needed
 3311 007c 90BD     		pop	{r4, r7, pc}
 3312              	.L121:
 3313 007e C046     		.align	2
 3314              	.L120:
 3315 0080 02000000 		.word	_width
 3316 0084 04000000 		.word	_height
 3317              		.cfi_endproc
 3318              	.LFE54:
 3319              		.size	gfx_drawPixel, .-gfx_drawPixel
 3320              		.section	.text.gfx_hvLine,"ax",%progbits
 3321              		.align	2
 3322              		.code	16
 3323              		.thumb_func
 3324              		.type	gfx_hvLine, %function
 3325              	gfx_hvLine:
 3326              	.LFB55:
 442:ssd1306.c     **** 
 443:ssd1306.c     **** // helper function for gfx_drawLine, handles special cases of horizontal and vertical lines
 444:ssd1306.c     **** static void gfx_hvLine( int16_t x1, int16_t y1, int16_t x2, int16_t y2, uint16_t color ){
 3327              		.loc 1 444 0
 3328              		.cfi_startproc
 3329              		@ args = 4, pretend = 0, frame = 16
 3330              		@ frame_needed = 1, uses_anonymous_args = 0
 3331 0000 B0B5     		push	{r4, r5, r7, lr}
 3332              		.cfi_def_cfa_offset 16
 3333              		.cfi_offset 4, -16
 3334              		.cfi_offset 5, -12
 3335              		.cfi_offset 7, -8
 3336              		.cfi_offset 14, -4
 3337 0002 86B0     		sub	sp, sp, #24
 3338              		.cfi_def_cfa_offset 40
ARM GAS  C:\Users\jdrd3\AppData\Local\Temp\ccQ8iyfh.s 			page 68


 3339 0004 02AF     		add	r7, sp, #8
 3340              		.cfi_def_cfa 7, 32
 3341 0006 0500     		movs	r5, r0
 3342 0008 0C00     		movs	r4, r1
 3343 000a 1000     		movs	r0, r2
 3344 000c 1900     		movs	r1, r3
 3345 000e BB1D     		adds	r3, r7, #6
 3346 0010 2A1C     		adds	r2, r5, #0
 3347 0012 1A80     		strh	r2, [r3]
 3348 0014 3B1D     		adds	r3, r7, #4
 3349 0016 221C     		adds	r2, r4, #0
 3350 0018 1A80     		strh	r2, [r3]
 3351 001a BB1C     		adds	r3, r7, #2
 3352 001c 021C     		adds	r2, r0, #0
 3353 001e 1A80     		strh	r2, [r3]
 3354 0020 3B00     		movs	r3, r7
 3355 0022 0A1C     		adds	r2, r1, #0
 3356 0024 1A80     		strh	r2, [r3]
 445:ssd1306.c     ****     
 446:ssd1306.c     ****     if( x1 != x2 && y1 != y2 ){
 3357              		.loc 1 446 0
 3358 0026 BB1D     		adds	r3, r7, #6
 3359 0028 0022     		movs	r2, #0
 3360 002a 9A5E     		ldrsh	r2, [r3, r2]
 3361 002c BB1C     		adds	r3, r7, #2
 3362 002e 0021     		movs	r1, #0
 3363 0030 5B5E     		ldrsh	r3, [r3, r1]
 3364 0032 9A42     		cmp	r2, r3
 3365 0034 08D0     		beq	.L123
 3366              		.loc 1 446 0 is_stmt 0 discriminator 1
 3367 0036 3B1D     		adds	r3, r7, #4
 3368 0038 0022     		movs	r2, #0
 3369 003a 9A5E     		ldrsh	r2, [r3, r2]
 3370 003c 3B00     		movs	r3, r7
 3371 003e 0021     		movs	r1, #0
 3372 0040 5B5E     		ldrsh	r3, [r3, r1]
 3373 0042 9A42     		cmp	r2, r3
 3374 0044 00D0     		beq	.LCB1772
 3375 0046 DEE0     		b	.L138	@long jump
 3376              	.LCB1772:
 3377              	.L123:
 447:ssd1306.c     ****         // neither vertical nor horizontal
 448:ssd1306.c     ****         return;
 449:ssd1306.c     ****     }    
 450:ssd1306.c     ****     
 451:ssd1306.c     ****     // bounds check
 452:ssd1306.c     ****     if( rotation == 1 || rotation == 3 ){
 3378              		.loc 1 452 0 is_stmt 1
 3379 0048 754B     		ldr	r3, .L144
 3380 004a 1B78     		ldrb	r3, [r3]
 3381 004c 012B     		cmp	r3, #1
 3382 004e 03D0     		beq	.L125
 3383              		.loc 1 452 0 is_stmt 0 discriminator 1
 3384 0050 734B     		ldr	r3, .L144
 3385 0052 1B78     		ldrb	r3, [r3]
 3386 0054 032B     		cmp	r3, #3
 3387 0056 3BD1     		bne	.L126
ARM GAS  C:\Users\jdrd3\AppData\Local\Temp\ccQ8iyfh.s 			page 69


 3388              	.L125:
 453:ssd1306.c     ****         if( x1 < 0 || x1 >= HEIGHT || x2 < 0 || x2 >= HEIGHT )
 3389              		.loc 1 453 0 is_stmt 1
 3390 0058 BB1D     		adds	r3, r7, #6
 3391 005a 0022     		movs	r2, #0
 3392 005c 9B5E     		ldrsh	r3, [r3, r2]
 3393 005e 002B     		cmp	r3, #0
 3394 0060 00DA     		bge	.LCB1786
 3395 0062 D2E0     		b	.L139	@long jump
 3396              	.LCB1786:
 3397              		.loc 1 453 0 is_stmt 0 discriminator 1
 3398 0064 BB1D     		adds	r3, r7, #6
 3399 0066 0022     		movs	r2, #0
 3400 0068 9A5E     		ldrsh	r2, [r3, r2]
 3401 006a 6E4B     		ldr	r3, .L144+4
 3402 006c 0021     		movs	r1, #0
 3403 006e 5B5E     		ldrsh	r3, [r3, r1]
 3404 0070 9A42     		cmp	r2, r3
 3405 0072 00DB     		blt	.LCB1792
 3406 0074 C9E0     		b	.L139	@long jump
 3407              	.LCB1792:
 3408              		.loc 1 453 0 discriminator 2
 3409 0076 BB1C     		adds	r3, r7, #2
 3410 0078 0022     		movs	r2, #0
 3411 007a 9B5E     		ldrsh	r3, [r3, r2]
 3412 007c 002B     		cmp	r3, #0
 3413 007e 00DA     		bge	.LCB1796
 3414 0080 C3E0     		b	.L139	@long jump
 3415              	.LCB1796:
 3416              		.loc 1 453 0 discriminator 3
 3417 0082 BB1C     		adds	r3, r7, #2
 3418 0084 0022     		movs	r2, #0
 3419 0086 9A5E     		ldrsh	r2, [r3, r2]
 3420 0088 664B     		ldr	r3, .L144+4
 3421 008a 0021     		movs	r1, #0
 3422 008c 5B5E     		ldrsh	r3, [r3, r1]
 3423 008e 9A42     		cmp	r2, r3
 3424 0090 00DB     		blt	.LCB1802
 3425 0092 BAE0     		b	.L139	@long jump
 3426              	.LCB1802:
 454:ssd1306.c     ****             return;
 455:ssd1306.c     ****         if( y1 < 0 || y1 >= WIDTH || y2 < 0 || y2 >= WIDTH )
 3427              		.loc 1 455 0 is_stmt 1
 3428 0094 3B1D     		adds	r3, r7, #4
 3429 0096 0022     		movs	r2, #0
 3430 0098 9B5E     		ldrsh	r3, [r3, r2]
 3431 009a 002B     		cmp	r3, #0
 3432 009c 00DA     		bge	.LCB1806
 3433 009e B6E0     		b	.L140	@long jump
 3434              	.LCB1806:
 3435              		.loc 1 455 0 is_stmt 0 discriminator 1
 3436 00a0 3B1D     		adds	r3, r7, #4
 3437 00a2 0022     		movs	r2, #0
 3438 00a4 9A5E     		ldrsh	r2, [r3, r2]
 3439 00a6 604B     		ldr	r3, .L144+8
 3440 00a8 0021     		movs	r1, #0
 3441 00aa 5B5E     		ldrsh	r3, [r3, r1]
ARM GAS  C:\Users\jdrd3\AppData\Local\Temp\ccQ8iyfh.s 			page 70


 3442 00ac 9A42     		cmp	r2, r3
 3443 00ae 00DB     		blt	.LCB1812
 3444 00b0 ADE0     		b	.L140	@long jump
 3445              	.LCB1812:
 3446              		.loc 1 455 0 discriminator 2
 3447 00b2 3B00     		movs	r3, r7
 3448 00b4 0022     		movs	r2, #0
 3449 00b6 9B5E     		ldrsh	r3, [r3, r2]
 3450 00b8 002B     		cmp	r3, #0
 3451 00ba 00DA     		bge	.LCB1816
 3452 00bc A7E0     		b	.L140	@long jump
 3453              	.LCB1816:
 3454              		.loc 1 455 0 discriminator 3
 3455 00be 3B00     		movs	r3, r7
 3456 00c0 0022     		movs	r2, #0
 3457 00c2 9A5E     		ldrsh	r2, [r3, r2]
 3458 00c4 584B     		ldr	r3, .L144+8
 3459 00c6 0021     		movs	r1, #0
 3460 00c8 5B5E     		ldrsh	r3, [r3, r1]
 3461 00ca 9A42     		cmp	r2, r3
 3462 00cc 3CDB     		blt	.L141
 456:ssd1306.c     ****             return;
 3463              		.loc 1 456 0 is_stmt 1
 3464 00ce 9EE0     		b	.L140
 3465              	.L126:
 457:ssd1306.c     ****     }else{
 458:ssd1306.c     ****         if( y1 < 0 || y1 >= HEIGHT || y2 < 0 || y2 >= HEIGHT )
 3466              		.loc 1 458 0
 3467 00d0 3B1D     		adds	r3, r7, #4
 3468 00d2 0022     		movs	r2, #0
 3469 00d4 9B5E     		ldrsh	r3, [r3, r2]
 3470 00d6 002B     		cmp	r3, #0
 3471 00d8 00DA     		bge	.LCB1830
 3472 00da 9AE0     		b	.L142	@long jump
 3473              	.LCB1830:
 3474              		.loc 1 458 0 is_stmt 0 discriminator 1
 3475 00dc 3B1D     		adds	r3, r7, #4
 3476 00de 0022     		movs	r2, #0
 3477 00e0 9A5E     		ldrsh	r2, [r3, r2]
 3478 00e2 504B     		ldr	r3, .L144+4
 3479 00e4 0021     		movs	r1, #0
 3480 00e6 5B5E     		ldrsh	r3, [r3, r1]
 3481 00e8 9A42     		cmp	r2, r3
 3482 00ea 00DB     		blt	.LCB1836
 3483 00ec 91E0     		b	.L142	@long jump
 3484              	.LCB1836:
 3485              		.loc 1 458 0 discriminator 2
 3486 00ee 3B00     		movs	r3, r7
 3487 00f0 0022     		movs	r2, #0
 3488 00f2 9B5E     		ldrsh	r3, [r3, r2]
 3489 00f4 002B     		cmp	r3, #0
 3490 00f6 00DA     		bge	.LCB1840
 3491 00f8 8BE0     		b	.L142	@long jump
 3492              	.LCB1840:
 3493              		.loc 1 458 0 discriminator 3
 3494 00fa 3B00     		movs	r3, r7
 3495 00fc 0022     		movs	r2, #0
ARM GAS  C:\Users\jdrd3\AppData\Local\Temp\ccQ8iyfh.s 			page 71


 3496 00fe 9A5E     		ldrsh	r2, [r3, r2]
 3497 0100 484B     		ldr	r3, .L144+4
 3498 0102 0021     		movs	r1, #0
 3499 0104 5B5E     		ldrsh	r3, [r3, r1]
 3500 0106 9A42     		cmp	r2, r3
 3501 0108 00DB     		blt	.LCB1846
 3502 010a 82E0     		b	.L142	@long jump
 3503              	.LCB1846:
 459:ssd1306.c     ****             return;
 460:ssd1306.c     ****         if( x1 < 0 || x1 >= WIDTH || x2 < 0 || x2 >= WIDTH )
 3504              		.loc 1 460 0 is_stmt 1
 3505 010c BB1D     		adds	r3, r7, #6
 3506 010e 0022     		movs	r2, #0
 3507 0110 9B5E     		ldrsh	r3, [r3, r2]
 3508 0112 002B     		cmp	r3, #0
 3509 0114 00DA     		bge	.LCB1850
 3510 0116 7EE0     		b	.L143	@long jump
 3511              	.LCB1850:
 3512              		.loc 1 460 0 is_stmt 0 discriminator 1
 3513 0118 BB1D     		adds	r3, r7, #6
 3514 011a 0022     		movs	r2, #0
 3515 011c 9A5E     		ldrsh	r2, [r3, r2]
 3516 011e 424B     		ldr	r3, .L144+8
 3517 0120 0021     		movs	r1, #0
 3518 0122 5B5E     		ldrsh	r3, [r3, r1]
 3519 0124 9A42     		cmp	r2, r3
 3520 0126 00DB     		blt	.LCB1856
 3521 0128 75E0     		b	.L143	@long jump
 3522              	.LCB1856:
 3523              		.loc 1 460 0 discriminator 2
 3524 012a BB1C     		adds	r3, r7, #2
 3525 012c 0022     		movs	r2, #0
 3526 012e 9B5E     		ldrsh	r3, [r3, r2]
 3527 0130 002B     		cmp	r3, #0
 3528 0132 00DA     		bge	.LCB1860
 3529 0134 6FE0     		b	.L143	@long jump
 3530              	.LCB1860:
 3531              		.loc 1 460 0 discriminator 3
 3532 0136 BB1C     		adds	r3, r7, #2
 3533 0138 0022     		movs	r2, #0
 3534 013a 9A5E     		ldrsh	r2, [r3, r2]
 3535 013c 3A4B     		ldr	r3, .L144+8
 3536 013e 0021     		movs	r1, #0
 3537 0140 5B5E     		ldrsh	r3, [r3, r1]
 3538 0142 9A42     		cmp	r2, r3
 3539 0144 67DA     		bge	.L143
 3540 0146 00E0     		b	.L131
 3541              	.L141:
 455:ssd1306.c     ****             return;
 3542              		.loc 1 455 0 is_stmt 1
 3543 0148 C046     		nop
 3544              	.L131:
 461:ssd1306.c     ****             return;
 462:ssd1306.c     ****     }
 463:ssd1306.c     ****     
 464:ssd1306.c     ****     gfx_rotation_adjust( &x1, &y1 );
 3545              		.loc 1 464 0
ARM GAS  C:\Users\jdrd3\AppData\Local\Temp\ccQ8iyfh.s 			page 72


 3546 014a 3A1D     		adds	r2, r7, #4
 3547 014c BB1D     		adds	r3, r7, #6
 3548 014e 1100     		movs	r1, r2
 3549 0150 1800     		movs	r0, r3
 3550 0152 FFF7FEFF 		bl	gfx_rotation_adjust
 465:ssd1306.c     ****     gfx_rotation_adjust( &x2, &y2 );
 3551              		.loc 1 465 0
 3552 0156 3A00     		movs	r2, r7
 3553 0158 BB1C     		adds	r3, r7, #2
 3554 015a 1100     		movs	r1, r2
 3555 015c 1800     		movs	r0, r3
 3556 015e FFF7FEFF 		bl	gfx_rotation_adjust
 466:ssd1306.c     ****     
 467:ssd1306.c     ****     // ensure coords are from left to right and top to bottom
 468:ssd1306.c     ****     if( (x1 == x2 && y2 < y1) || (y1 == y2 && x2 < x1) ){
 3557              		.loc 1 468 0
 3558 0162 BB1D     		adds	r3, r7, #6
 3559 0164 0022     		movs	r2, #0
 3560 0166 9A5E     		ldrsh	r2, [r3, r2]
 3561 0168 BB1C     		adds	r3, r7, #2
 3562 016a 0021     		movs	r1, #0
 3563 016c 5B5E     		ldrsh	r3, [r3, r1]
 3564 016e 9A42     		cmp	r2, r3
 3565 0170 07D1     		bne	.L135
 3566              		.loc 1 468 0 is_stmt 0 discriminator 1
 3567 0172 3B00     		movs	r3, r7
 3568 0174 0022     		movs	r2, #0
 3569 0176 9A5E     		ldrsh	r2, [r3, r2]
 3570 0178 3B1D     		adds	r3, r7, #4
 3571 017a 0021     		movs	r1, #0
 3572 017c 5B5E     		ldrsh	r3, [r3, r1]
 3573 017e 9A42     		cmp	r2, r3
 3574 0180 0FDB     		blt	.L136
 3575              	.L135:
 3576              		.loc 1 468 0 discriminator 3
 3577 0182 3B1D     		adds	r3, r7, #4
 3578 0184 0022     		movs	r2, #0
 3579 0186 9A5E     		ldrsh	r2, [r3, r2]
 3580 0188 3B00     		movs	r3, r7
 3581 018a 0021     		movs	r1, #0
 3582 018c 5B5E     		ldrsh	r3, [r3, r1]
 3583 018e 9A42     		cmp	r2, r3
 3584 0190 25D1     		bne	.L137
 3585              		.loc 1 468 0 discriminator 4
 3586 0192 BB1C     		adds	r3, r7, #2
 3587 0194 0022     		movs	r2, #0
 3588 0196 9A5E     		ldrsh	r2, [r3, r2]
 3589 0198 BB1D     		adds	r3, r7, #6
 3590 019a 0021     		movs	r1, #0
 3591 019c 5B5E     		ldrsh	r3, [r3, r1]
 3592 019e 9A42     		cmp	r2, r3
 3593 01a0 1DDA     		bge	.L137
 3594              	.L136:
 3595              	.LBB6:
 469:ssd1306.c     ****         // swap as needed
 470:ssd1306.c     ****         int16_t t = x1; x1 = x2; x2 = t;
 3596              		.loc 1 470 0 is_stmt 1
ARM GAS  C:\Users\jdrd3\AppData\Local\Temp\ccQ8iyfh.s 			page 73


 3597 01a2 0E23     		movs	r3, #14
 3598 01a4 FB18     		adds	r3, r7, r3
 3599 01a6 BA1D     		adds	r2, r7, #6
 3600 01a8 1288     		ldrh	r2, [r2]
 3601 01aa 1A80     		strh	r2, [r3]
 3602 01ac BB1C     		adds	r3, r7, #2
 3603 01ae 0022     		movs	r2, #0
 3604 01b0 9A5E     		ldrsh	r2, [r3, r2]
 3605 01b2 BB1D     		adds	r3, r7, #6
 3606 01b4 1A80     		strh	r2, [r3]
 3607 01b6 BB1C     		adds	r3, r7, #2
 3608 01b8 0E22     		movs	r2, #14
 3609 01ba BA18     		adds	r2, r7, r2
 3610 01bc 1288     		ldrh	r2, [r2]
 3611 01be 1A80     		strh	r2, [r3]
 471:ssd1306.c     ****         t = y1; y1 = y2; y2 = t;
 3612              		.loc 1 471 0
 3613 01c0 0E23     		movs	r3, #14
 3614 01c2 FB18     		adds	r3, r7, r3
 3615 01c4 3A1D     		adds	r2, r7, #4
 3616 01c6 1288     		ldrh	r2, [r2]
 3617 01c8 1A80     		strh	r2, [r3]
 3618 01ca 3B00     		movs	r3, r7
 3619 01cc 0022     		movs	r2, #0
 3620 01ce 9A5E     		ldrsh	r2, [r3, r2]
 3621 01d0 3B1D     		adds	r3, r7, #4
 3622 01d2 1A80     		strh	r2, [r3]
 3623 01d4 3B00     		movs	r3, r7
 3624 01d6 0E22     		movs	r2, #14
 3625 01d8 BA18     		adds	r2, r7, r2
 3626 01da 1288     		ldrh	r2, [r2]
 3627 01dc 1A80     		strh	r2, [r3]
 3628              	.L137:
 3629              	.LBE6:
 472:ssd1306.c     ****     }
 473:ssd1306.c     ****     
 474:ssd1306.c     ****     display_line( x1, y1, x2, y2, color );
 3630              		.loc 1 474 0
 3631 01de BB1D     		adds	r3, r7, #6
 3632 01e0 0020     		movs	r0, #0
 3633 01e2 185E     		ldrsh	r0, [r3, r0]
 3634 01e4 3B1D     		adds	r3, r7, #4
 3635 01e6 0021     		movs	r1, #0
 3636 01e8 595E     		ldrsh	r1, [r3, r1]
 3637 01ea BB1C     		adds	r3, r7, #2
 3638 01ec 0022     		movs	r2, #0
 3639 01ee 9A5E     		ldrsh	r2, [r3, r2]
 3640 01f0 3B00     		movs	r3, r7
 3641 01f2 0024     		movs	r4, #0
 3642 01f4 1C5F     		ldrsh	r4, [r3, r4]
 3643 01f6 2023     		movs	r3, #32
 3644 01f8 FB18     		adds	r3, r7, r3
 3645 01fa 1B88     		ldrh	r3, [r3]
 3646 01fc 0093     		str	r3, [sp]
 3647 01fe 2300     		movs	r3, r4
 3648 0200 FFF7FEFF 		bl	display_line
 3649 0204 08E0     		b	.L122
ARM GAS  C:\Users\jdrd3\AppData\Local\Temp\ccQ8iyfh.s 			page 74


 3650              	.L138:
 448:ssd1306.c     ****     }    
 3651              		.loc 1 448 0
 3652 0206 C046     		nop
 3653 0208 06E0     		b	.L122
 3654              	.L139:
 454:ssd1306.c     ****         if( y1 < 0 || y1 >= WIDTH || y2 < 0 || y2 >= WIDTH )
 3655              		.loc 1 454 0
 3656 020a C046     		nop
 3657 020c 04E0     		b	.L122
 3658              	.L140:
 456:ssd1306.c     ****     }else{
 3659              		.loc 1 456 0
 3660 020e C046     		nop
 3661 0210 02E0     		b	.L122
 3662              	.L142:
 459:ssd1306.c     ****         if( x1 < 0 || x1 >= WIDTH || x2 < 0 || x2 >= WIDTH )
 3663              		.loc 1 459 0
 3664 0212 C046     		nop
 3665 0214 00E0     		b	.L122
 3666              	.L143:
 461:ssd1306.c     ****     }
 3667              		.loc 1 461 0
 3668 0216 C046     		nop
 3669              	.L122:
 475:ssd1306.c     **** }
 3670              		.loc 1 475 0
 3671 0218 BD46     		mov	sp, r7
 3672 021a 04B0     		add	sp, sp, #16
 3673              		@ sp needed
 3674 021c B0BD     		pop	{r4, r5, r7, pc}
 3675              	.L145:
 3676 021e C046     		.align	2
 3677              	.L144:
 3678 0220 00000000 		.word	rotation
 3679 0224 00000000 		.word	HEIGHT
 3680 0228 00000000 		.word	WIDTH
 3681              		.cfi_endproc
 3682              	.LFE55:
 3683              		.size	gfx_hvLine, .-gfx_hvLine
 3684              		.section	.text.gfx_drawLine,"ax",%progbits
 3685              		.align	2
 3686              		.global	gfx_drawLine
 3687              		.code	16
 3688              		.thumb_func
 3689              		.type	gfx_drawLine, %function
 3690              	gfx_drawLine:
 3691              	.LFB56:
 476:ssd1306.c     **** 
 477:ssd1306.c     **** // always use this function for line drawing
 478:ssd1306.c     **** void gfx_drawLine( int16_t x0, int16_t y0, int16_t x1, int16_t y1, uint16_t color ){
 3692              		.loc 1 478 0
 3693              		.cfi_startproc
 3694              		@ args = 4, pretend = 0, frame = 24
 3695              		@ frame_needed = 1, uses_anonymous_args = 0
 3696 0000 B0B5     		push	{r4, r5, r7, lr}
 3697              		.cfi_def_cfa_offset 16
ARM GAS  C:\Users\jdrd3\AppData\Local\Temp\ccQ8iyfh.s 			page 75


 3698              		.cfi_offset 4, -16
 3699              		.cfi_offset 5, -12
 3700              		.cfi_offset 7, -8
 3701              		.cfi_offset 14, -4
 3702 0002 88B0     		sub	sp, sp, #32
 3703              		.cfi_def_cfa_offset 48
 3704 0004 02AF     		add	r7, sp, #8
 3705              		.cfi_def_cfa 7, 40
 3706 0006 0500     		movs	r5, r0
 3707 0008 0C00     		movs	r4, r1
 3708 000a 1000     		movs	r0, r2
 3709 000c 1900     		movs	r1, r3
 3710 000e BB1D     		adds	r3, r7, #6
 3711 0010 2A1C     		adds	r2, r5, #0
 3712 0012 1A80     		strh	r2, [r3]
 3713 0014 3B1D     		adds	r3, r7, #4
 3714 0016 221C     		adds	r2, r4, #0
 3715 0018 1A80     		strh	r2, [r3]
 3716 001a BB1C     		adds	r3, r7, #2
 3717 001c 021C     		adds	r2, r0, #0
 3718 001e 1A80     		strh	r2, [r3]
 3719 0020 3B00     		movs	r3, r7
 3720 0022 0A1C     		adds	r2, r1, #0
 3721 0024 1A80     		strh	r2, [r3]
 479:ssd1306.c     ****  
 480:ssd1306.c     ****     if( x0 == x1 || y0 == y1 ){
 3722              		.loc 1 480 0
 3723 0026 BA1D     		adds	r2, r7, #6
 3724 0028 BB1C     		adds	r3, r7, #2
 3725 002a 0021     		movs	r1, #0
 3726 002c 525E     		ldrsh	r2, [r2, r1]
 3727 002e 0021     		movs	r1, #0
 3728 0030 5B5E     		ldrsh	r3, [r3, r1]
 3729 0032 9A42     		cmp	r2, r3
 3730 0034 07D0     		beq	.L147
 3731              		.loc 1 480 0 is_stmt 0 discriminator 1
 3732 0036 3A1D     		adds	r2, r7, #4
 3733 0038 3B00     		movs	r3, r7
 3734 003a 0021     		movs	r1, #0
 3735 003c 525E     		ldrsh	r2, [r2, r1]
 3736 003e 0021     		movs	r1, #0
 3737 0040 5B5E     		ldrsh	r3, [r3, r1]
 3738 0042 9A42     		cmp	r2, r3
 3739 0044 13D1     		bne	.L148
 3740              	.L147:
 481:ssd1306.c     ****         // vertical and horizontal lines can be drawn faster
 482:ssd1306.c     ****         gfx_hvLine( x0, y0, x1, y1, color );
 3741              		.loc 1 482 0 is_stmt 1
 3742 0046 3B00     		movs	r3, r7
 3743 0048 0024     		movs	r4, #0
 3744 004a 1C5F     		ldrsh	r4, [r3, r4]
 3745 004c BB1C     		adds	r3, r7, #2
 3746 004e 0022     		movs	r2, #0
 3747 0050 9A5E     		ldrsh	r2, [r3, r2]
 3748 0052 3B1D     		adds	r3, r7, #4
 3749 0054 0021     		movs	r1, #0
 3750 0056 595E     		ldrsh	r1, [r3, r1]
ARM GAS  C:\Users\jdrd3\AppData\Local\Temp\ccQ8iyfh.s 			page 76


 3751 0058 BB1D     		adds	r3, r7, #6
 3752 005a 0020     		movs	r0, #0
 3753 005c 185E     		ldrsh	r0, [r3, r0]
 3754 005e 2823     		movs	r3, #40
 3755 0060 FB18     		adds	r3, r7, r3
 3756 0062 1B88     		ldrh	r3, [r3]
 3757 0064 0093     		str	r3, [sp]
 3758 0066 2300     		movs	r3, r4
 3759 0068 FFF7FEFF 		bl	gfx_hvLine
 483:ssd1306.c     ****         return;
 3760              		.loc 1 483 0
 3761 006c EAE0     		b	.L146
 3762              	.L148:
 484:ssd1306.c     ****     }
 485:ssd1306.c     ****     
 486:ssd1306.c     ****     int16_t t;
 487:ssd1306.c     ****     
 488:ssd1306.c     ****     int16_t steep = abs(y1 - y0) > abs(x1 - x0);
 3763              		.loc 1 488 0
 3764 006e 3B00     		movs	r3, r7
 3765 0070 0022     		movs	r2, #0
 3766 0072 9A5E     		ldrsh	r2, [r3, r2]
 3767 0074 3B1D     		adds	r3, r7, #4
 3768 0076 0021     		movs	r1, #0
 3769 0078 5B5E     		ldrsh	r3, [r3, r1]
 3770 007a D31A     		subs	r3, r2, r3
 3771 007c D917     		asrs	r1, r3, #31
 3772 007e 5A18     		adds	r2, r3, r1
 3773 0080 4A40     		eors	r2, r1
 3774 0082 BB1C     		adds	r3, r7, #2
 3775 0084 0021     		movs	r1, #0
 3776 0086 595E     		ldrsh	r1, [r3, r1]
 3777 0088 BB1D     		adds	r3, r7, #6
 3778 008a 0020     		movs	r0, #0
 3779 008c 1B5E     		ldrsh	r3, [r3, r0]
 3780 008e CB1A     		subs	r3, r1, r3
 3781 0090 D917     		asrs	r1, r3, #31
 3782 0092 5B18     		adds	r3, r3, r1
 3783 0094 4B40     		eors	r3, r1
 3784 0096 0121     		movs	r1, #1
 3785 0098 9A42     		cmp	r2, r3
 3786 009a 01DC     		bgt	.L150
 3787 009c 0023     		movs	r3, #0
 3788 009e 191C     		adds	r1, r3, #0
 3789              	.L150:
 3790 00a0 CAB2     		uxtb	r2, r1
 3791 00a2 1223     		movs	r3, #18
 3792 00a4 FB18     		adds	r3, r7, r3
 3793 00a6 1A80     		strh	r2, [r3]
 489:ssd1306.c     ****     if( steep ){
 3794              		.loc 1 489 0
 3795 00a8 1223     		movs	r3, #18
 3796 00aa FB18     		adds	r3, r7, r3
 3797 00ac 0022     		movs	r2, #0
 3798 00ae 9B5E     		ldrsh	r3, [r3, r2]
 3799 00b0 002B     		cmp	r3, #0
 3800 00b2 1BD0     		beq	.L151
ARM GAS  C:\Users\jdrd3\AppData\Local\Temp\ccQ8iyfh.s 			page 77


 490:ssd1306.c     ****         t = x0; x0 = y0; y0 = t;
 3801              		.loc 1 490 0
 3802 00b4 1023     		movs	r3, #16
 3803 00b6 FB18     		adds	r3, r7, r3
 3804 00b8 BA1D     		adds	r2, r7, #6
 3805 00ba 1288     		ldrh	r2, [r2]
 3806 00bc 1A80     		strh	r2, [r3]
 3807 00be BB1D     		adds	r3, r7, #6
 3808 00c0 3A1D     		adds	r2, r7, #4
 3809 00c2 1288     		ldrh	r2, [r2]
 3810 00c4 1A80     		strh	r2, [r3]
 3811 00c6 3B1D     		adds	r3, r7, #4
 3812 00c8 1022     		movs	r2, #16
 3813 00ca BA18     		adds	r2, r7, r2
 3814 00cc 1288     		ldrh	r2, [r2]
 3815 00ce 1A80     		strh	r2, [r3]
 491:ssd1306.c     ****         t = x1; x1 = y1; y1 = t;
 3816              		.loc 1 491 0
 3817 00d0 1023     		movs	r3, #16
 3818 00d2 FB18     		adds	r3, r7, r3
 3819 00d4 BA1C     		adds	r2, r7, #2
 3820 00d6 1288     		ldrh	r2, [r2]
 3821 00d8 1A80     		strh	r2, [r3]
 3822 00da BB1C     		adds	r3, r7, #2
 3823 00dc 3A00     		movs	r2, r7
 3824 00de 1288     		ldrh	r2, [r2]
 3825 00e0 1A80     		strh	r2, [r3]
 3826 00e2 3B00     		movs	r3, r7
 3827 00e4 1022     		movs	r2, #16
 3828 00e6 BA18     		adds	r2, r7, r2
 3829 00e8 1288     		ldrh	r2, [r2]
 3830 00ea 1A80     		strh	r2, [r3]
 3831              	.L151:
 492:ssd1306.c     ****     }
 493:ssd1306.c     ****     if( x0 > x1 ){
 3832              		.loc 1 493 0
 3833 00ec BA1D     		adds	r2, r7, #6
 3834 00ee BB1C     		adds	r3, r7, #2
 3835 00f0 0021     		movs	r1, #0
 3836 00f2 525E     		ldrsh	r2, [r2, r1]
 3837 00f4 0021     		movs	r1, #0
 3838 00f6 5B5E     		ldrsh	r3, [r3, r1]
 3839 00f8 9A42     		cmp	r2, r3
 3840 00fa 1BDD     		ble	.L152
 494:ssd1306.c     ****         t = x0; x0 = x1; x1 = t;
 3841              		.loc 1 494 0
 3842 00fc 1023     		movs	r3, #16
 3843 00fe FB18     		adds	r3, r7, r3
 3844 0100 BA1D     		adds	r2, r7, #6
 3845 0102 1288     		ldrh	r2, [r2]
 3846 0104 1A80     		strh	r2, [r3]
 3847 0106 BB1D     		adds	r3, r7, #6
 3848 0108 BA1C     		adds	r2, r7, #2
 3849 010a 1288     		ldrh	r2, [r2]
 3850 010c 1A80     		strh	r2, [r3]
 3851 010e BB1C     		adds	r3, r7, #2
 3852 0110 1022     		movs	r2, #16
ARM GAS  C:\Users\jdrd3\AppData\Local\Temp\ccQ8iyfh.s 			page 78


 3853 0112 BA18     		adds	r2, r7, r2
 3854 0114 1288     		ldrh	r2, [r2]
 3855 0116 1A80     		strh	r2, [r3]
 495:ssd1306.c     ****         t = y0; y0 = y1; y1 = t;
 3856              		.loc 1 495 0
 3857 0118 1023     		movs	r3, #16
 3858 011a FB18     		adds	r3, r7, r3
 3859 011c 3A1D     		adds	r2, r7, #4
 3860 011e 1288     		ldrh	r2, [r2]
 3861 0120 1A80     		strh	r2, [r3]
 3862 0122 3B1D     		adds	r3, r7, #4
 3863 0124 3A00     		movs	r2, r7
 3864 0126 1288     		ldrh	r2, [r2]
 3865 0128 1A80     		strh	r2, [r3]
 3866 012a 3B00     		movs	r3, r7
 3867 012c 1022     		movs	r2, #16
 3868 012e BA18     		adds	r2, r7, r2
 3869 0130 1288     		ldrh	r2, [r2]
 3870 0132 1A80     		strh	r2, [r3]
 3871              	.L152:
 496:ssd1306.c     ****     }
 497:ssd1306.c     ****     int16_t dx, dy;
 498:ssd1306.c     ****     dx = x1 - x0;
 3872              		.loc 1 498 0
 3873 0134 BB1C     		adds	r3, r7, #2
 3874 0136 1A88     		ldrh	r2, [r3]
 3875 0138 BB1D     		adds	r3, r7, #6
 3876 013a 1B88     		ldrh	r3, [r3]
 3877 013c D31A     		subs	r3, r2, r3
 3878 013e 9AB2     		uxth	r2, r3
 3879 0140 0E23     		movs	r3, #14
 3880 0142 FB18     		adds	r3, r7, r3
 3881 0144 1A80     		strh	r2, [r3]
 499:ssd1306.c     ****     dy = abs(y1 - y0);
 3882              		.loc 1 499 0
 3883 0146 3B00     		movs	r3, r7
 3884 0148 0022     		movs	r2, #0
 3885 014a 9A5E     		ldrsh	r2, [r3, r2]
 3886 014c 3B1D     		adds	r3, r7, #4
 3887 014e 0021     		movs	r1, #0
 3888 0150 5B5E     		ldrsh	r3, [r3, r1]
 3889 0152 D31A     		subs	r3, r2, r3
 3890 0154 D917     		asrs	r1, r3, #31
 3891 0156 5A18     		adds	r2, r3, r1
 3892 0158 4A40     		eors	r2, r1
 3893 015a 0C23     		movs	r3, #12
 3894 015c FB18     		adds	r3, r7, r3
 3895 015e 1A80     		strh	r2, [r3]
 500:ssd1306.c     ****     int16_t err = dx / 2;
 3896              		.loc 1 500 0
 3897 0160 1623     		movs	r3, #22
 3898 0162 FA18     		adds	r2, r7, r3
 3899 0164 0E23     		movs	r3, #14
 3900 0166 FB18     		adds	r3, r7, r3
 3901 0168 0021     		movs	r1, #0
 3902 016a 5B5E     		ldrsh	r3, [r3, r1]
 3903 016c 002B     		cmp	r3, #0
ARM GAS  C:\Users\jdrd3\AppData\Local\Temp\ccQ8iyfh.s 			page 79


 3904 016e 00DA     		bge	.L153
 3905 0170 0133     		adds	r3, r3, #1
 3906              	.L153:
 3907 0172 5B10     		asrs	r3, r3, #1
 3908 0174 1380     		strh	r3, [r2]
 501:ssd1306.c     ****     int16_t ystep;
 502:ssd1306.c     ****     if( y0 < y1 ){
 3909              		.loc 1 502 0
 3910 0176 3A1D     		adds	r2, r7, #4
 3911 0178 3B00     		movs	r3, r7
 3912 017a 0021     		movs	r1, #0
 3913 017c 525E     		ldrsh	r2, [r2, r1]
 3914 017e 0021     		movs	r1, #0
 3915 0180 5B5E     		ldrsh	r3, [r3, r1]
 3916 0182 9A42     		cmp	r2, r3
 3917 0184 04DA     		bge	.L154
 503:ssd1306.c     ****         ystep = 1;
 3918              		.loc 1 503 0
 3919 0186 1423     		movs	r3, #20
 3920 0188 FB18     		adds	r3, r7, r3
 3921 018a 0122     		movs	r2, #1
 3922 018c 1A80     		strh	r2, [r3]
 3923 018e 51E0     		b	.L156
 3924              	.L154:
 504:ssd1306.c     ****     }else{
 505:ssd1306.c     ****         ystep = -1;
 3925              		.loc 1 505 0
 3926 0190 1423     		movs	r3, #20
 3927 0192 FB18     		adds	r3, r7, r3
 3928 0194 0122     		movs	r2, #1
 3929 0196 5242     		rsbs	r2, r2, #0
 3930 0198 1A80     		strh	r2, [r3]
 506:ssd1306.c     ****     }
 507:ssd1306.c     ****     for( ; x0<=x1; x0++ ){
 3931              		.loc 1 507 0
 3932 019a 4BE0     		b	.L156
 3933              	.L160:
 508:ssd1306.c     ****         if( steep ){
 3934              		.loc 1 508 0
 3935 019c 1223     		movs	r3, #18
 3936 019e FB18     		adds	r3, r7, r3
 3937 01a0 0022     		movs	r2, #0
 3938 01a2 9B5E     		ldrsh	r3, [r3, r2]
 3939 01a4 002B     		cmp	r3, #0
 3940 01a6 0CD0     		beq	.L157
 509:ssd1306.c     ****             gfx_drawPixel( y0, x0, color );
 3941              		.loc 1 509 0
 3942 01a8 2823     		movs	r3, #40
 3943 01aa FB18     		adds	r3, r7, r3
 3944 01ac 1A88     		ldrh	r2, [r3]
 3945 01ae BB1D     		adds	r3, r7, #6
 3946 01b0 0021     		movs	r1, #0
 3947 01b2 595E     		ldrsh	r1, [r3, r1]
 3948 01b4 3B1D     		adds	r3, r7, #4
 3949 01b6 0020     		movs	r0, #0
 3950 01b8 1B5E     		ldrsh	r3, [r3, r0]
 3951 01ba 1800     		movs	r0, r3
ARM GAS  C:\Users\jdrd3\AppData\Local\Temp\ccQ8iyfh.s 			page 80


 3952 01bc FFF7FEFF 		bl	gfx_drawPixel
 3953 01c0 0BE0     		b	.L158
 3954              	.L157:
 510:ssd1306.c     ****         }else{
 511:ssd1306.c     ****             gfx_drawPixel( x0, y0, color );
 3955              		.loc 1 511 0
 3956 01c2 2823     		movs	r3, #40
 3957 01c4 FB18     		adds	r3, r7, r3
 3958 01c6 1A88     		ldrh	r2, [r3]
 3959 01c8 3B1D     		adds	r3, r7, #4
 3960 01ca 0021     		movs	r1, #0
 3961 01cc 595E     		ldrsh	r1, [r3, r1]
 3962 01ce BB1D     		adds	r3, r7, #6
 3963 01d0 0020     		movs	r0, #0
 3964 01d2 1B5E     		ldrsh	r3, [r3, r0]
 3965 01d4 1800     		movs	r0, r3
 3966 01d6 FFF7FEFF 		bl	gfx_drawPixel
 3967              	.L158:
 512:ssd1306.c     ****         }
 513:ssd1306.c     ****         err -= dy;
 3968              		.loc 1 513 0
 3969 01da 1623     		movs	r3, #22
 3970 01dc FB18     		adds	r3, r7, r3
 3971 01de 1A88     		ldrh	r2, [r3]
 3972 01e0 0C23     		movs	r3, #12
 3973 01e2 FB18     		adds	r3, r7, r3
 3974 01e4 1B88     		ldrh	r3, [r3]
 3975 01e6 D31A     		subs	r3, r2, r3
 3976 01e8 9AB2     		uxth	r2, r3
 3977 01ea 1623     		movs	r3, #22
 3978 01ec FB18     		adds	r3, r7, r3
 3979 01ee 1A80     		strh	r2, [r3]
 514:ssd1306.c     ****         if( err < 0 ){
 3980              		.loc 1 514 0
 3981 01f0 1623     		movs	r3, #22
 3982 01f2 FB18     		adds	r3, r7, r3
 3983 01f4 0022     		movs	r2, #0
 3984 01f6 9B5E     		ldrsh	r3, [r3, r2]
 3985 01f8 002B     		cmp	r3, #0
 3986 01fa 13DA     		bge	.L159
 515:ssd1306.c     ****             y0 += ystep;
 3987              		.loc 1 515 0
 3988 01fc 3B1D     		adds	r3, r7, #4
 3989 01fe 1A88     		ldrh	r2, [r3]
 3990 0200 1423     		movs	r3, #20
 3991 0202 FB18     		adds	r3, r7, r3
 3992 0204 1B88     		ldrh	r3, [r3]
 3993 0206 D318     		adds	r3, r2, r3
 3994 0208 9AB2     		uxth	r2, r3
 3995 020a 3B1D     		adds	r3, r7, #4
 3996 020c 1A80     		strh	r2, [r3]
 516:ssd1306.c     ****             err += dx;
 3997              		.loc 1 516 0
 3998 020e 1623     		movs	r3, #22
 3999 0210 FB18     		adds	r3, r7, r3
 4000 0212 1A88     		ldrh	r2, [r3]
 4001 0214 0E23     		movs	r3, #14
ARM GAS  C:\Users\jdrd3\AppData\Local\Temp\ccQ8iyfh.s 			page 81


 4002 0216 FB18     		adds	r3, r7, r3
 4003 0218 1B88     		ldrh	r3, [r3]
 4004 021a D318     		adds	r3, r2, r3
 4005 021c 9AB2     		uxth	r2, r3
 4006 021e 1623     		movs	r3, #22
 4007 0220 FB18     		adds	r3, r7, r3
 4008 0222 1A80     		strh	r2, [r3]
 4009              	.L159:
 507:ssd1306.c     ****         if( steep ){
 4010              		.loc 1 507 0
 4011 0224 BB1D     		adds	r3, r7, #6
 4012 0226 0022     		movs	r2, #0
 4013 0228 9B5E     		ldrsh	r3, [r3, r2]
 4014 022a 9BB2     		uxth	r3, r3
 4015 022c 0133     		adds	r3, r3, #1
 4016 022e 9AB2     		uxth	r2, r3
 4017 0230 BB1D     		adds	r3, r7, #6
 4018 0232 1A80     		strh	r2, [r3]
 4019              	.L156:
 507:ssd1306.c     ****         if( steep ){
 4020              		.loc 1 507 0 is_stmt 0 discriminator 1
 4021 0234 BA1D     		adds	r2, r7, #6
 4022 0236 BB1C     		adds	r3, r7, #2
 4023 0238 0021     		movs	r1, #0
 4024 023a 525E     		ldrsh	r2, [r2, r1]
 4025 023c 0021     		movs	r1, #0
 4026 023e 5B5E     		ldrsh	r3, [r3, r1]
 4027 0240 9A42     		cmp	r2, r3
 4028 0242 ABDD     		ble	.L160
 4029              	.L146:
 517:ssd1306.c     ****         }
 518:ssd1306.c     ****     }
 519:ssd1306.c     **** }
 4030              		.loc 1 519 0 is_stmt 1
 4031 0244 BD46     		mov	sp, r7
 4032 0246 06B0     		add	sp, sp, #24
 4033              		@ sp needed
 4034 0248 B0BD     		pop	{r4, r5, r7, pc}
 4035              		.cfi_endproc
 4036              	.LFE56:
 4037              		.size	gfx_drawLine, .-gfx_drawLine
 4038 024a C046     		.section	.text.gfx_drawRect,"ax",%progbits
 4039              		.align	2
 4040              		.global	gfx_drawRect
 4041              		.code	16
 4042              		.thumb_func
 4043              		.type	gfx_drawRect, %function
 4044              	gfx_drawRect:
 4045              	.LFB57:
 520:ssd1306.c     **** 
 521:ssd1306.c     **** void gfx_drawRect( int16_t x, int16_t y, int16_t w, int16_t h, uint16_t color ){
 4046              		.loc 1 521 0
 4047              		.cfi_startproc
 4048              		@ args = 4, pretend = 0, frame = 8
 4049              		@ frame_needed = 1, uses_anonymous_args = 0
 4050 0000 B0B5     		push	{r4, r5, r7, lr}
 4051              		.cfi_def_cfa_offset 16
ARM GAS  C:\Users\jdrd3\AppData\Local\Temp\ccQ8iyfh.s 			page 82


 4052              		.cfi_offset 4, -16
 4053              		.cfi_offset 5, -12
 4054              		.cfi_offset 7, -8
 4055              		.cfi_offset 14, -4
 4056 0002 84B0     		sub	sp, sp, #16
 4057              		.cfi_def_cfa_offset 32
 4058 0004 02AF     		add	r7, sp, #8
 4059              		.cfi_def_cfa 7, 24
 4060 0006 0500     		movs	r5, r0
 4061 0008 0C00     		movs	r4, r1
 4062 000a 1000     		movs	r0, r2
 4063 000c 1900     		movs	r1, r3
 4064 000e BB1D     		adds	r3, r7, #6
 4065 0010 2A1C     		adds	r2, r5, #0
 4066 0012 1A80     		strh	r2, [r3]
 4067 0014 3B1D     		adds	r3, r7, #4
 4068 0016 221C     		adds	r2, r4, #0
 4069 0018 1A80     		strh	r2, [r3]
 4070 001a BB1C     		adds	r3, r7, #2
 4071 001c 021C     		adds	r2, r0, #0
 4072 001e 1A80     		strh	r2, [r3]
 4073 0020 3B00     		movs	r3, r7
 4074 0022 0A1C     		adds	r2, r1, #0
 4075 0024 1A80     		strh	r2, [r3]
 522:ssd1306.c     ****     
 523:ssd1306.c     ****     gfx_drawLine( x, y, x+w-1, y, color );
 4076              		.loc 1 523 0
 4077 0026 BB1D     		adds	r3, r7, #6
 4078 0028 1A88     		ldrh	r2, [r3]
 4079 002a BB1C     		adds	r3, r7, #2
 4080 002c 1B88     		ldrh	r3, [r3]
 4081 002e D318     		adds	r3, r2, r3
 4082 0030 9BB2     		uxth	r3, r3
 4083 0032 013B     		subs	r3, r3, #1
 4084 0034 9BB2     		uxth	r3, r3
 4085 0036 1AB2     		sxth	r2, r3
 4086 0038 3B1D     		adds	r3, r7, #4
 4087 003a 0024     		movs	r4, #0
 4088 003c 1C5F     		ldrsh	r4, [r3, r4]
 4089 003e 3B1D     		adds	r3, r7, #4
 4090 0040 0021     		movs	r1, #0
 4091 0042 595E     		ldrsh	r1, [r3, r1]
 4092 0044 BB1D     		adds	r3, r7, #6
 4093 0046 0020     		movs	r0, #0
 4094 0048 185E     		ldrsh	r0, [r3, r0]
 4095 004a 1823     		movs	r3, #24
 4096 004c FB18     		adds	r3, r7, r3
 4097 004e 1B88     		ldrh	r3, [r3]
 4098 0050 0093     		str	r3, [sp]
 4099 0052 2300     		movs	r3, r4
 4100 0054 FFF7FEFF 		bl	gfx_drawLine
 524:ssd1306.c     ****     gfx_drawLine( x, y+h-1, x+w-1, y+h-1, color );
 4101              		.loc 1 524 0
 4102 0058 3B1D     		adds	r3, r7, #4
 4103 005a 1A88     		ldrh	r2, [r3]
 4104 005c 3B00     		movs	r3, r7
 4105 005e 1B88     		ldrh	r3, [r3]
ARM GAS  C:\Users\jdrd3\AppData\Local\Temp\ccQ8iyfh.s 			page 83


 4106 0060 D318     		adds	r3, r2, r3
 4107 0062 9BB2     		uxth	r3, r3
 4108 0064 013B     		subs	r3, r3, #1
 4109 0066 9BB2     		uxth	r3, r3
 4110 0068 19B2     		sxth	r1, r3
 4111 006a BB1D     		adds	r3, r7, #6
 4112 006c 1A88     		ldrh	r2, [r3]
 4113 006e BB1C     		adds	r3, r7, #2
 4114 0070 1B88     		ldrh	r3, [r3]
 4115 0072 D318     		adds	r3, r2, r3
 4116 0074 9BB2     		uxth	r3, r3
 4117 0076 013B     		subs	r3, r3, #1
 4118 0078 9BB2     		uxth	r3, r3
 4119 007a 1CB2     		sxth	r4, r3
 4120 007c 3B1D     		adds	r3, r7, #4
 4121 007e 1A88     		ldrh	r2, [r3]
 4122 0080 3B00     		movs	r3, r7
 4123 0082 1B88     		ldrh	r3, [r3]
 4124 0084 D318     		adds	r3, r2, r3
 4125 0086 9BB2     		uxth	r3, r3
 4126 0088 013B     		subs	r3, r3, #1
 4127 008a 9BB2     		uxth	r3, r3
 4128 008c 1AB2     		sxth	r2, r3
 4129 008e BB1D     		adds	r3, r7, #6
 4130 0090 0020     		movs	r0, #0
 4131 0092 185E     		ldrsh	r0, [r3, r0]
 4132 0094 1823     		movs	r3, #24
 4133 0096 FB18     		adds	r3, r7, r3
 4134 0098 1B88     		ldrh	r3, [r3]
 4135 009a 0093     		str	r3, [sp]
 4136 009c 1300     		movs	r3, r2
 4137 009e 2200     		movs	r2, r4
 4138 00a0 FFF7FEFF 		bl	gfx_drawLine
 525:ssd1306.c     ****     gfx_drawLine( x, y, x, y+h-1, color );
 4139              		.loc 1 525 0
 4140 00a4 3B1D     		adds	r3, r7, #4
 4141 00a6 1A88     		ldrh	r2, [r3]
 4142 00a8 3B00     		movs	r3, r7
 4143 00aa 1B88     		ldrh	r3, [r3]
 4144 00ac D318     		adds	r3, r2, r3
 4145 00ae 9BB2     		uxth	r3, r3
 4146 00b0 013B     		subs	r3, r3, #1
 4147 00b2 9BB2     		uxth	r3, r3
 4148 00b4 1CB2     		sxth	r4, r3
 4149 00b6 BB1D     		adds	r3, r7, #6
 4150 00b8 0022     		movs	r2, #0
 4151 00ba 9A5E     		ldrsh	r2, [r3, r2]
 4152 00bc 3B1D     		adds	r3, r7, #4
 4153 00be 0021     		movs	r1, #0
 4154 00c0 595E     		ldrsh	r1, [r3, r1]
 4155 00c2 BB1D     		adds	r3, r7, #6
 4156 00c4 0020     		movs	r0, #0
 4157 00c6 185E     		ldrsh	r0, [r3, r0]
 4158 00c8 1823     		movs	r3, #24
 4159 00ca FB18     		adds	r3, r7, r3
 4160 00cc 1B88     		ldrh	r3, [r3]
 4161 00ce 0093     		str	r3, [sp]
ARM GAS  C:\Users\jdrd3\AppData\Local\Temp\ccQ8iyfh.s 			page 84


 4162 00d0 2300     		movs	r3, r4
 4163 00d2 FFF7FEFF 		bl	gfx_drawLine
 526:ssd1306.c     ****     gfx_drawLine( x+w-1, y, x+w-1, y+h-1, color );
 4164              		.loc 1 526 0
 4165 00d6 BB1D     		adds	r3, r7, #6
 4166 00d8 1A88     		ldrh	r2, [r3]
 4167 00da BB1C     		adds	r3, r7, #2
 4168 00dc 1B88     		ldrh	r3, [r3]
 4169 00de D318     		adds	r3, r2, r3
 4170 00e0 9BB2     		uxth	r3, r3
 4171 00e2 013B     		subs	r3, r3, #1
 4172 00e4 9BB2     		uxth	r3, r3
 4173 00e6 18B2     		sxth	r0, r3
 4174 00e8 BB1D     		adds	r3, r7, #6
 4175 00ea 1A88     		ldrh	r2, [r3]
 4176 00ec BB1C     		adds	r3, r7, #2
 4177 00ee 1B88     		ldrh	r3, [r3]
 4178 00f0 D318     		adds	r3, r2, r3
 4179 00f2 9BB2     		uxth	r3, r3
 4180 00f4 013B     		subs	r3, r3, #1
 4181 00f6 9BB2     		uxth	r3, r3
 4182 00f8 1CB2     		sxth	r4, r3
 4183 00fa 3B1D     		adds	r3, r7, #4
 4184 00fc 1A88     		ldrh	r2, [r3]
 4185 00fe 3B00     		movs	r3, r7
 4186 0100 1B88     		ldrh	r3, [r3]
 4187 0102 D318     		adds	r3, r2, r3
 4188 0104 9BB2     		uxth	r3, r3
 4189 0106 013B     		subs	r3, r3, #1
 4190 0108 9BB2     		uxth	r3, r3
 4191 010a 1AB2     		sxth	r2, r3
 4192 010c 3B1D     		adds	r3, r7, #4
 4193 010e 0021     		movs	r1, #0
 4194 0110 595E     		ldrsh	r1, [r3, r1]
 4195 0112 1823     		movs	r3, #24
 4196 0114 FB18     		adds	r3, r7, r3
 4197 0116 1B88     		ldrh	r3, [r3]
 4198 0118 0093     		str	r3, [sp]
 4199 011a 1300     		movs	r3, r2
 4200 011c 2200     		movs	r2, r4
 4201 011e FFF7FEFF 		bl	gfx_drawLine
 527:ssd1306.c     **** }
 4202              		.loc 1 527 0
 4203 0122 C046     		nop
 4204 0124 BD46     		mov	sp, r7
 4205 0126 02B0     		add	sp, sp, #8
 4206              		@ sp needed
 4207 0128 B0BD     		pop	{r4, r5, r7, pc}
 4208              		.cfi_endproc
 4209              	.LFE57:
 4210              		.size	gfx_drawRect, .-gfx_drawRect
 4211 012a C046     		.section	.text.gfx_fillRect,"ax",%progbits
 4212              		.align	2
 4213              		.global	gfx_fillRect
 4214              		.code	16
 4215              		.thumb_func
 4216              		.type	gfx_fillRect, %function
ARM GAS  C:\Users\jdrd3\AppData\Local\Temp\ccQ8iyfh.s 			page 85


 4217              	gfx_fillRect:
 4218              	.LFB58:
 528:ssd1306.c     **** 
 529:ssd1306.c     **** void gfx_fillRect( int16_t x, int16_t y, int16_t w, int16_t h, uint16_t color ){
 4219              		.loc 1 529 0
 4220              		.cfi_startproc
 4221              		@ args = 4, pretend = 0, frame = 16
 4222              		@ frame_needed = 1, uses_anonymous_args = 0
 4223 0000 B0B5     		push	{r4, r5, r7, lr}
 4224              		.cfi_def_cfa_offset 16
 4225              		.cfi_offset 4, -16
 4226              		.cfi_offset 5, -12
 4227              		.cfi_offset 7, -8
 4228              		.cfi_offset 14, -4
 4229 0002 86B0     		sub	sp, sp, #24
 4230              		.cfi_def_cfa_offset 40
 4231 0004 02AF     		add	r7, sp, #8
 4232              		.cfi_def_cfa 7, 32
 4233 0006 0500     		movs	r5, r0
 4234 0008 0C00     		movs	r4, r1
 4235 000a 1000     		movs	r0, r2
 4236 000c 1900     		movs	r1, r3
 4237 000e BB1D     		adds	r3, r7, #6
 4238 0010 2A1C     		adds	r2, r5, #0
 4239 0012 1A80     		strh	r2, [r3]
 4240 0014 3B1D     		adds	r3, r7, #4
 4241 0016 221C     		adds	r2, r4, #0
 4242 0018 1A80     		strh	r2, [r3]
 4243 001a BB1C     		adds	r3, r7, #2
 4244 001c 021C     		adds	r2, r0, #0
 4245 001e 1A80     		strh	r2, [r3]
 4246 0020 3B00     		movs	r3, r7
 4247 0022 0A1C     		adds	r2, r1, #0
 4248 0024 1A80     		strh	r2, [r3]
 530:ssd1306.c     ****     int16_t i = 0;
 4249              		.loc 1 530 0
 4250 0026 0E23     		movs	r3, #14
 4251 0028 FB18     		adds	r3, r7, r3
 4252 002a 0022     		movs	r2, #0
 4253 002c 1A80     		strh	r2, [r3]
 531:ssd1306.c     ****     if( h > w ){
 4254              		.loc 1 531 0
 4255 002e 3A00     		movs	r2, r7
 4256 0030 BB1C     		adds	r3, r7, #2
 4257 0032 0021     		movs	r1, #0
 4258 0034 525E     		ldrsh	r2, [r2, r1]
 4259 0036 0021     		movs	r1, #0
 4260 0038 5B5E     		ldrsh	r3, [r3, r1]
 4261 003a 9A42     		cmp	r2, r3
 4262 003c 38DD     		ble	.L163
 532:ssd1306.c     ****         for( i = x ; i < x+w ; i++ ){
 4263              		.loc 1 532 0
 4264 003e 0E23     		movs	r3, #14
 4265 0040 FB18     		adds	r3, r7, r3
 4266 0042 BA1D     		adds	r2, r7, #6
 4267 0044 1288     		ldrh	r2, [r2]
 4268 0046 1A80     		strh	r2, [r3]
ARM GAS  C:\Users\jdrd3\AppData\Local\Temp\ccQ8iyfh.s 			page 86


 4269 0048 24E0     		b	.L164
 4270              	.L165:
 533:ssd1306.c     ****             gfx_drawLine( i, y, i, y+h-1, color );
 4271              		.loc 1 533 0 discriminator 3
 4272 004a 3B1D     		adds	r3, r7, #4
 4273 004c 1A88     		ldrh	r2, [r3]
 4274 004e 3B00     		movs	r3, r7
 4275 0050 1B88     		ldrh	r3, [r3]
 4276 0052 D318     		adds	r3, r2, r3
 4277 0054 9BB2     		uxth	r3, r3
 4278 0056 013B     		subs	r3, r3, #1
 4279 0058 9BB2     		uxth	r3, r3
 4280 005a 1CB2     		sxth	r4, r3
 4281 005c 0E23     		movs	r3, #14
 4282 005e FB18     		adds	r3, r7, r3
 4283 0060 0022     		movs	r2, #0
 4284 0062 9A5E     		ldrsh	r2, [r3, r2]
 4285 0064 3B1D     		adds	r3, r7, #4
 4286 0066 0021     		movs	r1, #0
 4287 0068 595E     		ldrsh	r1, [r3, r1]
 4288 006a 0E23     		movs	r3, #14
 4289 006c FB18     		adds	r3, r7, r3
 4290 006e 0020     		movs	r0, #0
 4291 0070 185E     		ldrsh	r0, [r3, r0]
 4292 0072 2023     		movs	r3, #32
 4293 0074 FB18     		adds	r3, r7, r3
 4294 0076 1B88     		ldrh	r3, [r3]
 4295 0078 0093     		str	r3, [sp]
 4296 007a 2300     		movs	r3, r4
 4297 007c FFF7FEFF 		bl	gfx_drawLine
 532:ssd1306.c     ****         for( i = x ; i < x+w ; i++ ){
 4298              		.loc 1 532 0 discriminator 3
 4299 0080 0E23     		movs	r3, #14
 4300 0082 FB18     		adds	r3, r7, r3
 4301 0084 0022     		movs	r2, #0
 4302 0086 9B5E     		ldrsh	r3, [r3, r2]
 4303 0088 9BB2     		uxth	r3, r3
 4304 008a 0133     		adds	r3, r3, #1
 4305 008c 9AB2     		uxth	r2, r3
 4306 008e 0E23     		movs	r3, #14
 4307 0090 FB18     		adds	r3, r7, r3
 4308 0092 1A80     		strh	r2, [r3]
 4309              	.L164:
 532:ssd1306.c     ****         for( i = x ; i < x+w ; i++ ){
 4310              		.loc 1 532 0 is_stmt 0 discriminator 1
 4311 0094 0E23     		movs	r3, #14
 4312 0096 FB18     		adds	r3, r7, r3
 4313 0098 0022     		movs	r2, #0
 4314 009a 9A5E     		ldrsh	r2, [r3, r2]
 4315 009c BB1D     		adds	r3, r7, #6
 4316 009e 0021     		movs	r1, #0
 4317 00a0 595E     		ldrsh	r1, [r3, r1]
 4318 00a2 BB1C     		adds	r3, r7, #2
 4319 00a4 0020     		movs	r0, #0
 4320 00a6 1B5E     		ldrsh	r3, [r3, r0]
 4321 00a8 CB18     		adds	r3, r1, r3
 4322 00aa 9A42     		cmp	r2, r3
ARM GAS  C:\Users\jdrd3\AppData\Local\Temp\ccQ8iyfh.s 			page 87


 4323 00ac CDDB     		blt	.L165
 534:ssd1306.c     ****         }
 535:ssd1306.c     ****     }else{
 536:ssd1306.c     ****         for( i = y ; i < y+h ; i++ ){
 537:ssd1306.c     ****             gfx_drawLine( x, i, x+w-1, i, color );
 538:ssd1306.c     ****         }
 539:ssd1306.c     ****     }
 540:ssd1306.c     **** }
 4324              		.loc 1 540 0 is_stmt 1
 4325 00ae 37E0     		b	.L169
 4326              	.L163:
 536:ssd1306.c     ****             gfx_drawLine( x, i, x+w-1, i, color );
 4327              		.loc 1 536 0
 4328 00b0 0E23     		movs	r3, #14
 4329 00b2 FB18     		adds	r3, r7, r3
 4330 00b4 3A1D     		adds	r2, r7, #4
 4331 00b6 1288     		ldrh	r2, [r2]
 4332 00b8 1A80     		strh	r2, [r3]
 4333 00ba 24E0     		b	.L167
 4334              	.L168:
 537:ssd1306.c     ****         }
 4335              		.loc 1 537 0 discriminator 3
 4336 00bc BB1D     		adds	r3, r7, #6
 4337 00be 1A88     		ldrh	r2, [r3]
 4338 00c0 BB1C     		adds	r3, r7, #2
 4339 00c2 1B88     		ldrh	r3, [r3]
 4340 00c4 D318     		adds	r3, r2, r3
 4341 00c6 9BB2     		uxth	r3, r3
 4342 00c8 013B     		subs	r3, r3, #1
 4343 00ca 9BB2     		uxth	r3, r3
 4344 00cc 1AB2     		sxth	r2, r3
 4345 00ce 0E23     		movs	r3, #14
 4346 00d0 FB18     		adds	r3, r7, r3
 4347 00d2 0024     		movs	r4, #0
 4348 00d4 1C5F     		ldrsh	r4, [r3, r4]
 4349 00d6 0E23     		movs	r3, #14
 4350 00d8 FB18     		adds	r3, r7, r3
 4351 00da 0021     		movs	r1, #0
 4352 00dc 595E     		ldrsh	r1, [r3, r1]
 4353 00de BB1D     		adds	r3, r7, #6
 4354 00e0 0020     		movs	r0, #0
 4355 00e2 185E     		ldrsh	r0, [r3, r0]
 4356 00e4 2023     		movs	r3, #32
 4357 00e6 FB18     		adds	r3, r7, r3
 4358 00e8 1B88     		ldrh	r3, [r3]
 4359 00ea 0093     		str	r3, [sp]
 4360 00ec 2300     		movs	r3, r4
 4361 00ee FFF7FEFF 		bl	gfx_drawLine
 536:ssd1306.c     ****             gfx_drawLine( x, i, x+w-1, i, color );
 4362              		.loc 1 536 0 discriminator 3
 4363 00f2 0E23     		movs	r3, #14
 4364 00f4 FB18     		adds	r3, r7, r3
 4365 00f6 0022     		movs	r2, #0
 4366 00f8 9B5E     		ldrsh	r3, [r3, r2]
 4367 00fa 9BB2     		uxth	r3, r3
 4368 00fc 0133     		adds	r3, r3, #1
 4369 00fe 9AB2     		uxth	r2, r3
ARM GAS  C:\Users\jdrd3\AppData\Local\Temp\ccQ8iyfh.s 			page 88


 4370 0100 0E23     		movs	r3, #14
 4371 0102 FB18     		adds	r3, r7, r3
 4372 0104 1A80     		strh	r2, [r3]
 4373              	.L167:
 536:ssd1306.c     ****             gfx_drawLine( x, i, x+w-1, i, color );
 4374              		.loc 1 536 0 is_stmt 0 discriminator 1
 4375 0106 0E23     		movs	r3, #14
 4376 0108 FB18     		adds	r3, r7, r3
 4377 010a 0022     		movs	r2, #0
 4378 010c 9A5E     		ldrsh	r2, [r3, r2]
 4379 010e 3B1D     		adds	r3, r7, #4
 4380 0110 0021     		movs	r1, #0
 4381 0112 595E     		ldrsh	r1, [r3, r1]
 4382 0114 3B00     		movs	r3, r7
 4383 0116 0020     		movs	r0, #0
 4384 0118 1B5E     		ldrsh	r3, [r3, r0]
 4385 011a CB18     		adds	r3, r1, r3
 4386 011c 9A42     		cmp	r2, r3
 4387 011e CDDB     		blt	.L168
 4388              	.L169:
 4389              		.loc 1 540 0 is_stmt 1
 4390 0120 C046     		nop
 4391 0122 BD46     		mov	sp, r7
 4392 0124 04B0     		add	sp, sp, #16
 4393              		@ sp needed
 4394 0126 B0BD     		pop	{r4, r5, r7, pc}
 4395              		.cfi_endproc
 4396              	.LFE58:
 4397              		.size	gfx_fillRect, .-gfx_fillRect
 4398              		.section	.text.gfx_drawCircle,"ax",%progbits
 4399              		.align	2
 4400              		.global	gfx_drawCircle
 4401              		.code	16
 4402              		.thumb_func
 4403              		.type	gfx_drawCircle, %function
 4404              	gfx_drawCircle:
 4405              	.LFB59:
 541:ssd1306.c     **** 
 542:ssd1306.c     **** 
 543:ssd1306.c     **** // circle outline
 544:ssd1306.c     **** void gfx_drawCircle( int16_t x0, int16_t y0, int16_t r,uint16_t color ){
 4406              		.loc 1 544 0
 4407              		.cfi_startproc
 4408              		@ args = 0, pretend = 0, frame = 24
 4409              		@ frame_needed = 1, uses_anonymous_args = 0
 4410 0000 B0B5     		push	{r4, r5, r7, lr}
 4411              		.cfi_def_cfa_offset 16
 4412              		.cfi_offset 4, -16
 4413              		.cfi_offset 5, -12
 4414              		.cfi_offset 7, -8
 4415              		.cfi_offset 14, -4
 4416 0002 86B0     		sub	sp, sp, #24
 4417              		.cfi_def_cfa_offset 40
 4418 0004 00AF     		add	r7, sp, #0
 4419              		.cfi_def_cfa_register 7
 4420 0006 0500     		movs	r5, r0
 4421 0008 0C00     		movs	r4, r1
ARM GAS  C:\Users\jdrd3\AppData\Local\Temp\ccQ8iyfh.s 			page 89


 4422 000a 1000     		movs	r0, r2
 4423 000c 1900     		movs	r1, r3
 4424 000e BB1D     		adds	r3, r7, #6
 4425 0010 2A1C     		adds	r2, r5, #0
 4426 0012 1A80     		strh	r2, [r3]
 4427 0014 3B1D     		adds	r3, r7, #4
 4428 0016 221C     		adds	r2, r4, #0
 4429 0018 1A80     		strh	r2, [r3]
 4430 001a BB1C     		adds	r3, r7, #2
 4431 001c 021C     		adds	r2, r0, #0
 4432 001e 1A80     		strh	r2, [r3]
 4433 0020 3B00     		movs	r3, r7
 4434 0022 0A1C     		adds	r2, r1, #0
 4435 0024 1A80     		strh	r2, [r3]
 545:ssd1306.c     **** 
 546:ssd1306.c     ****     int16_t f = 1 - r;
 4436              		.loc 1 546 0
 4437 0026 BB1C     		adds	r3, r7, #2
 4438 0028 1B88     		ldrh	r3, [r3]
 4439 002a 0122     		movs	r2, #1
 4440 002c D31A     		subs	r3, r2, r3
 4441 002e 9AB2     		uxth	r2, r3
 4442 0030 1623     		movs	r3, #22
 4443 0032 FB18     		adds	r3, r7, r3
 4444 0034 1A80     		strh	r2, [r3]
 547:ssd1306.c     ****     int16_t ddF_x = 1;
 4445              		.loc 1 547 0
 4446 0036 1423     		movs	r3, #20
 4447 0038 FB18     		adds	r3, r7, r3
 4448 003a 0122     		movs	r2, #1
 4449 003c 1A80     		strh	r2, [r3]
 548:ssd1306.c     ****     int16_t ddF_y = -2 * r;
 4450              		.loc 1 548 0
 4451 003e BB1C     		adds	r3, r7, #2
 4452 0040 1B88     		ldrh	r3, [r3]
 4453 0042 1A1C     		adds	r2, r3, #0
 4454 0044 D203     		lsls	r2, r2, #15
 4455 0046 D31A     		subs	r3, r2, r3
 4456 0048 DB18     		adds	r3, r3, r3
 4457 004a 9AB2     		uxth	r2, r3
 4458 004c 1223     		movs	r3, #18
 4459 004e FB18     		adds	r3, r7, r3
 4460 0050 1A80     		strh	r2, [r3]
 549:ssd1306.c     ****     int16_t x = 0;
 4461              		.loc 1 549 0
 4462 0052 1023     		movs	r3, #16
 4463 0054 FB18     		adds	r3, r7, r3
 4464 0056 0022     		movs	r2, #0
 4465 0058 1A80     		strh	r2, [r3]
 550:ssd1306.c     ****     int16_t y = r;
 4466              		.loc 1 550 0
 4467 005a 0E23     		movs	r3, #14
 4468 005c FB18     		adds	r3, r7, r3
 4469 005e BA1C     		adds	r2, r7, #2
 4470 0060 1288     		ldrh	r2, [r2]
 4471 0062 1A80     		strh	r2, [r3]
 551:ssd1306.c     ****     gfx_drawPixel( x0 , y0+r, color );
ARM GAS  C:\Users\jdrd3\AppData\Local\Temp\ccQ8iyfh.s 			page 90


 4472              		.loc 1 551 0
 4473 0064 3B1D     		adds	r3, r7, #4
 4474 0066 1A88     		ldrh	r2, [r3]
 4475 0068 BB1C     		adds	r3, r7, #2
 4476 006a 1B88     		ldrh	r3, [r3]
 4477 006c D318     		adds	r3, r2, r3
 4478 006e 9BB2     		uxth	r3, r3
 4479 0070 19B2     		sxth	r1, r3
 4480 0072 3B00     		movs	r3, r7
 4481 0074 1A88     		ldrh	r2, [r3]
 4482 0076 BB1D     		adds	r3, r7, #6
 4483 0078 0020     		movs	r0, #0
 4484 007a 1B5E     		ldrsh	r3, [r3, r0]
 4485 007c 1800     		movs	r0, r3
 4486 007e FFF7FEFF 		bl	gfx_drawPixel
 552:ssd1306.c     ****     gfx_drawPixel( x0 , y0-r, color );
 4487              		.loc 1 552 0
 4488 0082 3B1D     		adds	r3, r7, #4
 4489 0084 1A88     		ldrh	r2, [r3]
 4490 0086 BB1C     		adds	r3, r7, #2
 4491 0088 1B88     		ldrh	r3, [r3]
 4492 008a D31A     		subs	r3, r2, r3
 4493 008c 9BB2     		uxth	r3, r3
 4494 008e 19B2     		sxth	r1, r3
 4495 0090 3B00     		movs	r3, r7
 4496 0092 1A88     		ldrh	r2, [r3]
 4497 0094 BB1D     		adds	r3, r7, #6
 4498 0096 0020     		movs	r0, #0
 4499 0098 1B5E     		ldrsh	r3, [r3, r0]
 4500 009a 1800     		movs	r0, r3
 4501 009c FFF7FEFF 		bl	gfx_drawPixel
 553:ssd1306.c     ****     gfx_drawPixel( x0+r, y0 , color );
 4502              		.loc 1 553 0
 4503 00a0 BB1D     		adds	r3, r7, #6
 4504 00a2 1A88     		ldrh	r2, [r3]
 4505 00a4 BB1C     		adds	r3, r7, #2
 4506 00a6 1B88     		ldrh	r3, [r3]
 4507 00a8 D318     		adds	r3, r2, r3
 4508 00aa 9BB2     		uxth	r3, r3
 4509 00ac 18B2     		sxth	r0, r3
 4510 00ae 3B00     		movs	r3, r7
 4511 00b0 1A88     		ldrh	r2, [r3]
 4512 00b2 3B1D     		adds	r3, r7, #4
 4513 00b4 0021     		movs	r1, #0
 4514 00b6 5B5E     		ldrsh	r3, [r3, r1]
 4515 00b8 1900     		movs	r1, r3
 4516 00ba FFF7FEFF 		bl	gfx_drawPixel
 554:ssd1306.c     ****     gfx_drawPixel( x0-r, y0 , color );
 4517              		.loc 1 554 0
 4518 00be BB1D     		adds	r3, r7, #6
 4519 00c0 1A88     		ldrh	r2, [r3]
 4520 00c2 BB1C     		adds	r3, r7, #2
 4521 00c4 1B88     		ldrh	r3, [r3]
 4522 00c6 D31A     		subs	r3, r2, r3
 4523 00c8 9BB2     		uxth	r3, r3
 4524 00ca 18B2     		sxth	r0, r3
 4525 00cc 3B00     		movs	r3, r7
ARM GAS  C:\Users\jdrd3\AppData\Local\Temp\ccQ8iyfh.s 			page 91


 4526 00ce 1A88     		ldrh	r2, [r3]
 4527 00d0 3B1D     		adds	r3, r7, #4
 4528 00d2 0021     		movs	r1, #0
 4529 00d4 5B5E     		ldrsh	r3, [r3, r1]
 4530 00d6 1900     		movs	r1, r3
 4531 00d8 FFF7FEFF 		bl	gfx_drawPixel
 555:ssd1306.c     ****     while( x < y ){
 4532              		.loc 1 555 0
 4533 00dc E7E0     		b	.L171
 4534              	.L173:
 556:ssd1306.c     ****         if( f >= 0 ){
 4535              		.loc 1 556 0
 4536 00de 1623     		movs	r3, #22
 4537 00e0 FB18     		adds	r3, r7, r3
 4538 00e2 0022     		movs	r2, #0
 4539 00e4 9B5E     		ldrsh	r3, [r3, r2]
 4540 00e6 002B     		cmp	r3, #0
 4541 00e8 1CDB     		blt	.L172
 557:ssd1306.c     ****             y--;
 4542              		.loc 1 557 0
 4543 00ea 0E23     		movs	r3, #14
 4544 00ec FB18     		adds	r3, r7, r3
 4545 00ee 0022     		movs	r2, #0
 4546 00f0 9B5E     		ldrsh	r3, [r3, r2]
 4547 00f2 9BB2     		uxth	r3, r3
 4548 00f4 013B     		subs	r3, r3, #1
 4549 00f6 9AB2     		uxth	r2, r3
 4550 00f8 0E23     		movs	r3, #14
 4551 00fa FB18     		adds	r3, r7, r3
 4552 00fc 1A80     		strh	r2, [r3]
 558:ssd1306.c     ****             ddF_y += 2;
 4553              		.loc 1 558 0
 4554 00fe 1223     		movs	r3, #18
 4555 0100 FB18     		adds	r3, r7, r3
 4556 0102 1B88     		ldrh	r3, [r3]
 4557 0104 0233     		adds	r3, r3, #2
 4558 0106 9AB2     		uxth	r2, r3
 4559 0108 1223     		movs	r3, #18
 4560 010a FB18     		adds	r3, r7, r3
 4561 010c 1A80     		strh	r2, [r3]
 559:ssd1306.c     ****             f += ddF_y;
 4562              		.loc 1 559 0
 4563 010e 1623     		movs	r3, #22
 4564 0110 FB18     		adds	r3, r7, r3
 4565 0112 1A88     		ldrh	r2, [r3]
 4566 0114 1223     		movs	r3, #18
 4567 0116 FB18     		adds	r3, r7, r3
 4568 0118 1B88     		ldrh	r3, [r3]
 4569 011a D318     		adds	r3, r2, r3
 4570 011c 9AB2     		uxth	r2, r3
 4571 011e 1623     		movs	r3, #22
 4572 0120 FB18     		adds	r3, r7, r3
 4573 0122 1A80     		strh	r2, [r3]
 4574              	.L172:
 560:ssd1306.c     ****         }
 561:ssd1306.c     ****         x++;
 4575              		.loc 1 561 0
ARM GAS  C:\Users\jdrd3\AppData\Local\Temp\ccQ8iyfh.s 			page 92


 4576 0124 1023     		movs	r3, #16
 4577 0126 FB18     		adds	r3, r7, r3
 4578 0128 0022     		movs	r2, #0
 4579 012a 9B5E     		ldrsh	r3, [r3, r2]
 4580 012c 9BB2     		uxth	r3, r3
 4581 012e 0133     		adds	r3, r3, #1
 4582 0130 9AB2     		uxth	r2, r3
 4583 0132 1023     		movs	r3, #16
 4584 0134 FB18     		adds	r3, r7, r3
 4585 0136 1A80     		strh	r2, [r3]
 562:ssd1306.c     ****         ddF_x += 2;
 4586              		.loc 1 562 0
 4587 0138 1423     		movs	r3, #20
 4588 013a FB18     		adds	r3, r7, r3
 4589 013c 1B88     		ldrh	r3, [r3]
 4590 013e 0233     		adds	r3, r3, #2
 4591 0140 9AB2     		uxth	r2, r3
 4592 0142 1423     		movs	r3, #20
 4593 0144 FB18     		adds	r3, r7, r3
 4594 0146 1A80     		strh	r2, [r3]
 563:ssd1306.c     ****         f += ddF_x;
 4595              		.loc 1 563 0
 4596 0148 1623     		movs	r3, #22
 4597 014a FB18     		adds	r3, r7, r3
 4598 014c 1A88     		ldrh	r2, [r3]
 4599 014e 1423     		movs	r3, #20
 4600 0150 FB18     		adds	r3, r7, r3
 4601 0152 1B88     		ldrh	r3, [r3]
 4602 0154 D318     		adds	r3, r2, r3
 4603 0156 9AB2     		uxth	r2, r3
 4604 0158 1623     		movs	r3, #22
 4605 015a FB18     		adds	r3, r7, r3
 4606 015c 1A80     		strh	r2, [r3]
 564:ssd1306.c     ****         gfx_drawPixel( x0 + x, y0 + y, color );
 4607              		.loc 1 564 0
 4608 015e BB1D     		adds	r3, r7, #6
 4609 0160 1A88     		ldrh	r2, [r3]
 4610 0162 1023     		movs	r3, #16
 4611 0164 FB18     		adds	r3, r7, r3
 4612 0166 1B88     		ldrh	r3, [r3]
 4613 0168 D318     		adds	r3, r2, r3
 4614 016a 9BB2     		uxth	r3, r3
 4615 016c 18B2     		sxth	r0, r3
 4616 016e 3B1D     		adds	r3, r7, #4
 4617 0170 1A88     		ldrh	r2, [r3]
 4618 0172 0E23     		movs	r3, #14
 4619 0174 FB18     		adds	r3, r7, r3
 4620 0176 1B88     		ldrh	r3, [r3]
 4621 0178 D318     		adds	r3, r2, r3
 4622 017a 9BB2     		uxth	r3, r3
 4623 017c 19B2     		sxth	r1, r3
 4624 017e 3B00     		movs	r3, r7
 4625 0180 1B88     		ldrh	r3, [r3]
 4626 0182 1A00     		movs	r2, r3
 4627 0184 FFF7FEFF 		bl	gfx_drawPixel
 565:ssd1306.c     ****         gfx_drawPixel( x0 - x, y0 + y, color );
 4628              		.loc 1 565 0
ARM GAS  C:\Users\jdrd3\AppData\Local\Temp\ccQ8iyfh.s 			page 93


 4629 0188 BB1D     		adds	r3, r7, #6
 4630 018a 1A88     		ldrh	r2, [r3]
 4631 018c 1023     		movs	r3, #16
 4632 018e FB18     		adds	r3, r7, r3
 4633 0190 1B88     		ldrh	r3, [r3]
 4634 0192 D31A     		subs	r3, r2, r3
 4635 0194 9BB2     		uxth	r3, r3
 4636 0196 18B2     		sxth	r0, r3
 4637 0198 3B1D     		adds	r3, r7, #4
 4638 019a 1A88     		ldrh	r2, [r3]
 4639 019c 0E23     		movs	r3, #14
 4640 019e FB18     		adds	r3, r7, r3
 4641 01a0 1B88     		ldrh	r3, [r3]
 4642 01a2 D318     		adds	r3, r2, r3
 4643 01a4 9BB2     		uxth	r3, r3
 4644 01a6 19B2     		sxth	r1, r3
 4645 01a8 3B00     		movs	r3, r7
 4646 01aa 1B88     		ldrh	r3, [r3]
 4647 01ac 1A00     		movs	r2, r3
 4648 01ae FFF7FEFF 		bl	gfx_drawPixel
 566:ssd1306.c     ****         gfx_drawPixel( x0 + x, y0 - y, color );
 4649              		.loc 1 566 0
 4650 01b2 BB1D     		adds	r3, r7, #6
 4651 01b4 1A88     		ldrh	r2, [r3]
 4652 01b6 1023     		movs	r3, #16
 4653 01b8 FB18     		adds	r3, r7, r3
 4654 01ba 1B88     		ldrh	r3, [r3]
 4655 01bc D318     		adds	r3, r2, r3
 4656 01be 9BB2     		uxth	r3, r3
 4657 01c0 18B2     		sxth	r0, r3
 4658 01c2 3B1D     		adds	r3, r7, #4
 4659 01c4 1A88     		ldrh	r2, [r3]
 4660 01c6 0E23     		movs	r3, #14
 4661 01c8 FB18     		adds	r3, r7, r3
 4662 01ca 1B88     		ldrh	r3, [r3]
 4663 01cc D31A     		subs	r3, r2, r3
 4664 01ce 9BB2     		uxth	r3, r3
 4665 01d0 19B2     		sxth	r1, r3
 4666 01d2 3B00     		movs	r3, r7
 4667 01d4 1B88     		ldrh	r3, [r3]
 4668 01d6 1A00     		movs	r2, r3
 4669 01d8 FFF7FEFF 		bl	gfx_drawPixel
 567:ssd1306.c     ****         gfx_drawPixel( x0 - x, y0 - y, color );
 4670              		.loc 1 567 0
 4671 01dc BB1D     		adds	r3, r7, #6
 4672 01de 1A88     		ldrh	r2, [r3]
 4673 01e0 1023     		movs	r3, #16
 4674 01e2 FB18     		adds	r3, r7, r3
 4675 01e4 1B88     		ldrh	r3, [r3]
 4676 01e6 D31A     		subs	r3, r2, r3
 4677 01e8 9BB2     		uxth	r3, r3
 4678 01ea 18B2     		sxth	r0, r3
 4679 01ec 3B1D     		adds	r3, r7, #4
 4680 01ee 1A88     		ldrh	r2, [r3]
 4681 01f0 0E23     		movs	r3, #14
 4682 01f2 FB18     		adds	r3, r7, r3
 4683 01f4 1B88     		ldrh	r3, [r3]
ARM GAS  C:\Users\jdrd3\AppData\Local\Temp\ccQ8iyfh.s 			page 94


 4684 01f6 D31A     		subs	r3, r2, r3
 4685 01f8 9BB2     		uxth	r3, r3
 4686 01fa 19B2     		sxth	r1, r3
 4687 01fc 3B00     		movs	r3, r7
 4688 01fe 1B88     		ldrh	r3, [r3]
 4689 0200 1A00     		movs	r2, r3
 4690 0202 FFF7FEFF 		bl	gfx_drawPixel
 568:ssd1306.c     ****         gfx_drawPixel( x0 + y, y0 + x, color );
 4691              		.loc 1 568 0
 4692 0206 BB1D     		adds	r3, r7, #6
 4693 0208 1A88     		ldrh	r2, [r3]
 4694 020a 0E23     		movs	r3, #14
 4695 020c FB18     		adds	r3, r7, r3
 4696 020e 1B88     		ldrh	r3, [r3]
 4697 0210 D318     		adds	r3, r2, r3
 4698 0212 9BB2     		uxth	r3, r3
 4699 0214 18B2     		sxth	r0, r3
 4700 0216 3B1D     		adds	r3, r7, #4
 4701 0218 1A88     		ldrh	r2, [r3]
 4702 021a 1023     		movs	r3, #16
 4703 021c FB18     		adds	r3, r7, r3
 4704 021e 1B88     		ldrh	r3, [r3]
 4705 0220 D318     		adds	r3, r2, r3
 4706 0222 9BB2     		uxth	r3, r3
 4707 0224 19B2     		sxth	r1, r3
 4708 0226 3B00     		movs	r3, r7
 4709 0228 1B88     		ldrh	r3, [r3]
 4710 022a 1A00     		movs	r2, r3
 4711 022c FFF7FEFF 		bl	gfx_drawPixel
 569:ssd1306.c     ****         gfx_drawPixel( x0 - y, y0 + x, color );
 4712              		.loc 1 569 0
 4713 0230 BB1D     		adds	r3, r7, #6
 4714 0232 1A88     		ldrh	r2, [r3]
 4715 0234 0E23     		movs	r3, #14
 4716 0236 FB18     		adds	r3, r7, r3
 4717 0238 1B88     		ldrh	r3, [r3]
 4718 023a D31A     		subs	r3, r2, r3
 4719 023c 9BB2     		uxth	r3, r3
 4720 023e 18B2     		sxth	r0, r3
 4721 0240 3B1D     		adds	r3, r7, #4
 4722 0242 1A88     		ldrh	r2, [r3]
 4723 0244 1023     		movs	r3, #16
 4724 0246 FB18     		adds	r3, r7, r3
 4725 0248 1B88     		ldrh	r3, [r3]
 4726 024a D318     		adds	r3, r2, r3
 4727 024c 9BB2     		uxth	r3, r3
 4728 024e 19B2     		sxth	r1, r3
 4729 0250 3B00     		movs	r3, r7
 4730 0252 1B88     		ldrh	r3, [r3]
 4731 0254 1A00     		movs	r2, r3
 4732 0256 FFF7FEFF 		bl	gfx_drawPixel
 570:ssd1306.c     ****         gfx_drawPixel( x0 + y, y0 - x, color );
 4733              		.loc 1 570 0
 4734 025a BB1D     		adds	r3, r7, #6
 4735 025c 1A88     		ldrh	r2, [r3]
 4736 025e 0E23     		movs	r3, #14
 4737 0260 FB18     		adds	r3, r7, r3
ARM GAS  C:\Users\jdrd3\AppData\Local\Temp\ccQ8iyfh.s 			page 95


 4738 0262 1B88     		ldrh	r3, [r3]
 4739 0264 D318     		adds	r3, r2, r3
 4740 0266 9BB2     		uxth	r3, r3
 4741 0268 18B2     		sxth	r0, r3
 4742 026a 3B1D     		adds	r3, r7, #4
 4743 026c 1A88     		ldrh	r2, [r3]
 4744 026e 1023     		movs	r3, #16
 4745 0270 FB18     		adds	r3, r7, r3
 4746 0272 1B88     		ldrh	r3, [r3]
 4747 0274 D31A     		subs	r3, r2, r3
 4748 0276 9BB2     		uxth	r3, r3
 4749 0278 19B2     		sxth	r1, r3
 4750 027a 3B00     		movs	r3, r7
 4751 027c 1B88     		ldrh	r3, [r3]
 4752 027e 1A00     		movs	r2, r3
 4753 0280 FFF7FEFF 		bl	gfx_drawPixel
 571:ssd1306.c     ****         gfx_drawPixel( x0 - y, y0 - x, color );
 4754              		.loc 1 571 0
 4755 0284 BB1D     		adds	r3, r7, #6
 4756 0286 1A88     		ldrh	r2, [r3]
 4757 0288 0E23     		movs	r3, #14
 4758 028a FB18     		adds	r3, r7, r3
 4759 028c 1B88     		ldrh	r3, [r3]
 4760 028e D31A     		subs	r3, r2, r3
 4761 0290 9BB2     		uxth	r3, r3
 4762 0292 18B2     		sxth	r0, r3
 4763 0294 3B1D     		adds	r3, r7, #4
 4764 0296 1A88     		ldrh	r2, [r3]
 4765 0298 1023     		movs	r3, #16
 4766 029a FB18     		adds	r3, r7, r3
 4767 029c 1B88     		ldrh	r3, [r3]
 4768 029e D31A     		subs	r3, r2, r3
 4769 02a0 9BB2     		uxth	r3, r3
 4770 02a2 19B2     		sxth	r1, r3
 4771 02a4 3B00     		movs	r3, r7
 4772 02a6 1B88     		ldrh	r3, [r3]
 4773 02a8 1A00     		movs	r2, r3
 4774 02aa FFF7FEFF 		bl	gfx_drawPixel
 4775              	.L171:
 555:ssd1306.c     ****         if( f >= 0 ){
 4776              		.loc 1 555 0
 4777 02ae 1023     		movs	r3, #16
 4778 02b0 FA18     		adds	r2, r7, r3
 4779 02b2 0E23     		movs	r3, #14
 4780 02b4 FB18     		adds	r3, r7, r3
 4781 02b6 0021     		movs	r1, #0
 4782 02b8 525E     		ldrsh	r2, [r2, r1]
 4783 02ba 0021     		movs	r1, #0
 4784 02bc 5B5E     		ldrsh	r3, [r3, r1]
 4785 02be 9A42     		cmp	r2, r3
 4786 02c0 00DA     		bge	.LCB2978
 4787 02c2 0CE7     		b	.L173	@long jump
 4788              	.LCB2978:
 572:ssd1306.c     ****     }
 573:ssd1306.c     **** }
 4789              		.loc 1 573 0
 4790 02c4 C046     		nop
ARM GAS  C:\Users\jdrd3\AppData\Local\Temp\ccQ8iyfh.s 			page 96


 4791 02c6 BD46     		mov	sp, r7
 4792 02c8 06B0     		add	sp, sp, #24
 4793              		@ sp needed
 4794 02ca B0BD     		pop	{r4, r5, r7, pc}
 4795              		.cfi_endproc
 4796              	.LFE59:
 4797              		.size	gfx_drawCircle, .-gfx_drawCircle
 4798              		.section	.text.gfx_drawTriangle,"ax",%progbits
 4799              		.align	2
 4800              		.global	gfx_drawTriangle
 4801              		.code	16
 4802              		.thumb_func
 4803              		.type	gfx_drawTriangle, %function
 4804              	gfx_drawTriangle:
 4805              	.LFB60:
 574:ssd1306.c     **** 
 575:ssd1306.c     **** void gfx_drawTriangle( int16_t x0, int16_t y0,int16_t x1, int16_t y1, int16_t x2, int16_t y2, uint1
 4806              		.loc 1 575 0
 4807              		.cfi_startproc
 4808              		@ args = 12, pretend = 0, frame = 8
 4809              		@ frame_needed = 1, uses_anonymous_args = 0
 4810 0000 B0B5     		push	{r4, r5, r7, lr}
 4811              		.cfi_def_cfa_offset 16
 4812              		.cfi_offset 4, -16
 4813              		.cfi_offset 5, -12
 4814              		.cfi_offset 7, -8
 4815              		.cfi_offset 14, -4
 4816 0002 84B0     		sub	sp, sp, #16
 4817              		.cfi_def_cfa_offset 32
 4818 0004 02AF     		add	r7, sp, #8
 4819              		.cfi_def_cfa 7, 24
 4820 0006 0500     		movs	r5, r0
 4821 0008 0C00     		movs	r4, r1
 4822 000a 1000     		movs	r0, r2
 4823 000c 1900     		movs	r1, r3
 4824 000e BB1D     		adds	r3, r7, #6
 4825 0010 2A1C     		adds	r2, r5, #0
 4826 0012 1A80     		strh	r2, [r3]
 4827 0014 3B1D     		adds	r3, r7, #4
 4828 0016 221C     		adds	r2, r4, #0
 4829 0018 1A80     		strh	r2, [r3]
 4830 001a BB1C     		adds	r3, r7, #2
 4831 001c 021C     		adds	r2, r0, #0
 4832 001e 1A80     		strh	r2, [r3]
 4833 0020 3B00     		movs	r3, r7
 4834 0022 0A1C     		adds	r2, r1, #0
 4835 0024 1A80     		strh	r2, [r3]
 576:ssd1306.c     ****     
 577:ssd1306.c     ****     gfx_drawLine( x0, y0, x1, y1, color );
 4836              		.loc 1 577 0
 4837 0026 3B00     		movs	r3, r7
 4838 0028 0024     		movs	r4, #0
 4839 002a 1C5F     		ldrsh	r4, [r3, r4]
 4840 002c BB1C     		adds	r3, r7, #2
 4841 002e 0022     		movs	r2, #0
 4842 0030 9A5E     		ldrsh	r2, [r3, r2]
 4843 0032 3B1D     		adds	r3, r7, #4
ARM GAS  C:\Users\jdrd3\AppData\Local\Temp\ccQ8iyfh.s 			page 97


 4844 0034 0021     		movs	r1, #0
 4845 0036 595E     		ldrsh	r1, [r3, r1]
 4846 0038 BB1D     		adds	r3, r7, #6
 4847 003a 0020     		movs	r0, #0
 4848 003c 185E     		ldrsh	r0, [r3, r0]
 4849 003e 2023     		movs	r3, #32
 4850 0040 FB18     		adds	r3, r7, r3
 4851 0042 1B88     		ldrh	r3, [r3]
 4852 0044 0093     		str	r3, [sp]
 4853 0046 2300     		movs	r3, r4
 4854 0048 FFF7FEFF 		bl	gfx_drawLine
 578:ssd1306.c     ****     gfx_drawLine( x1, y1, x2, y2, color );
 4855              		.loc 1 578 0
 4856 004c 1C23     		movs	r3, #28
 4857 004e FB18     		adds	r3, r7, r3
 4858 0050 0024     		movs	r4, #0
 4859 0052 1C5F     		ldrsh	r4, [r3, r4]
 4860 0054 1823     		movs	r3, #24
 4861 0056 FB18     		adds	r3, r7, r3
 4862 0058 0022     		movs	r2, #0
 4863 005a 9A5E     		ldrsh	r2, [r3, r2]
 4864 005c 3B00     		movs	r3, r7
 4865 005e 0021     		movs	r1, #0
 4866 0060 595E     		ldrsh	r1, [r3, r1]
 4867 0062 BB1C     		adds	r3, r7, #2
 4868 0064 0020     		movs	r0, #0
 4869 0066 185E     		ldrsh	r0, [r3, r0]
 4870 0068 2023     		movs	r3, #32
 4871 006a FB18     		adds	r3, r7, r3
 4872 006c 1B88     		ldrh	r3, [r3]
 4873 006e 0093     		str	r3, [sp]
 4874 0070 2300     		movs	r3, r4
 4875 0072 FFF7FEFF 		bl	gfx_drawLine
 579:ssd1306.c     ****     gfx_drawLine( x2, y2, x0, y0, color );
 4876              		.loc 1 579 0
 4877 0076 3B1D     		adds	r3, r7, #4
 4878 0078 0024     		movs	r4, #0
 4879 007a 1C5F     		ldrsh	r4, [r3, r4]
 4880 007c BB1D     		adds	r3, r7, #6
 4881 007e 0022     		movs	r2, #0
 4882 0080 9A5E     		ldrsh	r2, [r3, r2]
 4883 0082 1C23     		movs	r3, #28
 4884 0084 FB18     		adds	r3, r7, r3
 4885 0086 0021     		movs	r1, #0
 4886 0088 595E     		ldrsh	r1, [r3, r1]
 4887 008a 1823     		movs	r3, #24
 4888 008c FB18     		adds	r3, r7, r3
 4889 008e 0020     		movs	r0, #0
 4890 0090 185E     		ldrsh	r0, [r3, r0]
 4891 0092 2023     		movs	r3, #32
 4892 0094 FB18     		adds	r3, r7, r3
 4893 0096 1B88     		ldrh	r3, [r3]
 4894 0098 0093     		str	r3, [sp]
 4895 009a 2300     		movs	r3, r4
 4896 009c FFF7FEFF 		bl	gfx_drawLine
 580:ssd1306.c     **** }
 4897              		.loc 1 580 0
ARM GAS  C:\Users\jdrd3\AppData\Local\Temp\ccQ8iyfh.s 			page 98


 4898 00a0 C046     		nop
 4899 00a2 BD46     		mov	sp, r7
 4900 00a4 02B0     		add	sp, sp, #8
 4901              		@ sp needed
 4902 00a6 B0BD     		pop	{r4, r5, r7, pc}
 4903              		.cfi_endproc
 4904              	.LFE60:
 4905              		.size	gfx_drawTriangle, .-gfx_drawTriangle
 4906              		.section	.text.gfx_drawChar,"ax",%progbits
 4907              		.align	2
 4908              		.global	gfx_drawChar
 4909              		.code	16
 4910              		.thumb_func
 4911              		.type	gfx_drawChar, %function
 4912              	gfx_drawChar:
 4913              	.LFB61:
 581:ssd1306.c     **** 
 582:ssd1306.c     **** 
 583:ssd1306.c     **** // Draw a character
 584:ssd1306.c     **** void gfx_drawChar( int16_t x, int16_t y, unsigned char c,uint16_t color, uint16_t bg, uint8_t size)
 4914              		.loc 1 584 0
 4915              		.cfi_startproc
 4916              		@ args = 8, pretend = 0, frame = 16
 4917              		@ frame_needed = 1, uses_anonymous_args = 0
 4918 0000 B0B5     		push	{r4, r5, r7, lr}
 4919              		.cfi_def_cfa_offset 16
 4920              		.cfi_offset 4, -16
 4921              		.cfi_offset 5, -12
 4922              		.cfi_offset 7, -8
 4923              		.cfi_offset 14, -4
 4924 0002 86B0     		sub	sp, sp, #24
 4925              		.cfi_def_cfa_offset 40
 4926 0004 02AF     		add	r7, sp, #8
 4927              		.cfi_def_cfa 7, 32
 4928 0006 0500     		movs	r5, r0
 4929 0008 0C00     		movs	r4, r1
 4930 000a 1000     		movs	r0, r2
 4931 000c 1900     		movs	r1, r3
 4932 000e BB1D     		adds	r3, r7, #6
 4933 0010 2A1C     		adds	r2, r5, #0
 4934 0012 1A80     		strh	r2, [r3]
 4935 0014 3B1D     		adds	r3, r7, #4
 4936 0016 221C     		adds	r2, r4, #0
 4937 0018 1A80     		strh	r2, [r3]
 4938 001a FB1C     		adds	r3, r7, #3
 4939 001c 021C     		adds	r2, r0, #0
 4940 001e 1A70     		strb	r2, [r3]
 4941 0020 3B00     		movs	r3, r7
 4942 0022 0A1C     		adds	r2, r1, #0
 4943 0024 1A80     		strh	r2, [r3]
 585:ssd1306.c     ****     if( (x >= _width) || // Clip right
 4944              		.loc 1 585 0
 4945 0026 984B     		ldr	r3, .L191
 4946 0028 0022     		movs	r2, #0
 4947 002a 9B5E     		ldrsh	r3, [r3, r2]
 4948 002c BA1D     		adds	r2, r7, #6
 4949 002e 0021     		movs	r1, #0
ARM GAS  C:\Users\jdrd3\AppData\Local\Temp\ccQ8iyfh.s 			page 99


 4950 0030 525E     		ldrsh	r2, [r2, r1]
 4951 0032 9A42     		cmp	r2, r3
 4952 0034 00DB     		blt	.LCB3114
 4953 0036 23E1     		b	.L190	@long jump
 4954              	.LCB3114:
 586:ssd1306.c     ****         (y >= _height) || // Clip bottom
 4955              		.loc 1 586 0 discriminator 1
 4956 0038 944B     		ldr	r3, .L191+4
 4957 003a 0022     		movs	r2, #0
 4958 003c 9B5E     		ldrsh	r3, [r3, r2]
 585:ssd1306.c     ****     if( (x >= _width) || // Clip right
 4959              		.loc 1 585 0 discriminator 1
 4960 003e 3A1D     		adds	r2, r7, #4
 4961 0040 0021     		movs	r1, #0
 4962 0042 525E     		ldrsh	r2, [r2, r1]
 4963 0044 9A42     		cmp	r2, r3
 4964 0046 00DB     		blt	.LCB3120
 4965 0048 1AE1     		b	.L190	@long jump
 4966              	.LCB3120:
 587:ssd1306.c     ****         ((x + 6 * size - 1) < 0) || // Clip left
 4967              		.loc 1 587 0
 4968 004a BB1D     		adds	r3, r7, #6
 4969 004c 0021     		movs	r1, #0
 4970 004e 595E     		ldrsh	r1, [r3, r1]
 4971 0050 2423     		movs	r3, #36
 4972 0052 FB18     		adds	r3, r7, r3
 4973 0054 1A78     		ldrb	r2, [r3]
 4974 0056 1300     		movs	r3, r2
 4975 0058 5B00     		lsls	r3, r3, #1
 4976 005a 9B18     		adds	r3, r3, r2
 4977 005c 5B00     		lsls	r3, r3, #1
 4978 005e CB18     		adds	r3, r1, r3
 4979 0060 013B     		subs	r3, r3, #1
 586:ssd1306.c     ****         (y >= _height) || // Clip bottom
 4980              		.loc 1 586 0
 4981 0062 002B     		cmp	r3, #0
 4982 0064 00DA     		bge	.LCB3133
 4983 0066 0BE1     		b	.L190	@long jump
 4984              	.LCB3133:
 588:ssd1306.c     ****         ((y + 8 * size - 1) < 0)) // Clip top
 4985              		.loc 1 588 0
 4986 0068 3B1D     		adds	r3, r7, #4
 4987 006a 0022     		movs	r2, #0
 4988 006c 9A5E     		ldrsh	r2, [r3, r2]
 4989 006e 2423     		movs	r3, #36
 4990 0070 FB18     		adds	r3, r7, r3
 4991 0072 1B78     		ldrb	r3, [r3]
 4992 0074 DB00     		lsls	r3, r3, #3
 4993 0076 D318     		adds	r3, r2, r3
 4994 0078 013B     		subs	r3, r3, #1
 587:ssd1306.c     ****         ((x + 6 * size - 1) < 0) || // Clip left
 4995              		.loc 1 587 0
 4996 007a 002B     		cmp	r3, #0
 4997 007c 00DA     		bge	.LCB3143
 4998 007e FFE0     		b	.L190	@long jump
 4999              	.LCB3143:
 589:ssd1306.c     ****         return;
ARM GAS  C:\Users\jdrd3\AppData\Local\Temp\ccQ8iyfh.s 			page 100


 590:ssd1306.c     **** 
 591:ssd1306.c     ****     int8_t i = 0;
 5000              		.loc 1 591 0
 5001 0080 0F23     		movs	r3, #15
 5002 0082 FB18     		adds	r3, r7, r3
 5003 0084 0022     		movs	r2, #0
 5004 0086 1A70     		strb	r2, [r3]
 592:ssd1306.c     ****     for( i = 0 ; i < 6 ; i++ ){
 5005              		.loc 1 592 0
 5006 0088 0F23     		movs	r3, #15
 5007 008a FB18     		adds	r3, r7, r3
 5008 008c 0022     		movs	r2, #0
 5009 008e 1A70     		strb	r2, [r3]
 5010 0090 EEE0     		b	.L179
 5011              	.L189:
 5012              	.LBB7:
 593:ssd1306.c     ****         uint8_t line;
 594:ssd1306.c     ****         if( i == 5 )
 5013              		.loc 1 594 0
 5014 0092 0F23     		movs	r3, #15
 5015 0094 FB18     		adds	r3, r7, r3
 5016 0096 1B78     		ldrb	r3, [r3]
 5017 0098 5BB2     		sxtb	r3, r3
 5018 009a 052B     		cmp	r3, #5
 5019 009c 04D1     		bne	.L180
 595:ssd1306.c     ****             line = 0x0;
 5020              		.loc 1 595 0
 5021 009e 0E23     		movs	r3, #14
 5022 00a0 FB18     		adds	r3, r7, r3
 5023 00a2 0022     		movs	r2, #0
 5024 00a4 1A70     		strb	r2, [r3]
 5025 00a6 0EE0     		b	.L181
 5026              	.L180:
 596:ssd1306.c     ****         else
 597:ssd1306.c     ****            line = font[(c*5)+i];
 5027              		.loc 1 597 0
 5028 00a8 FB1C     		adds	r3, r7, #3
 5029 00aa 1A78     		ldrb	r2, [r3]
 5030 00ac 1300     		movs	r3, r2
 5031 00ae 9B00     		lsls	r3, r3, #2
 5032 00b0 9A18     		adds	r2, r3, r2
 5033 00b2 0F23     		movs	r3, #15
 5034 00b4 FB18     		adds	r3, r7, r3
 5035 00b6 1B78     		ldrb	r3, [r3]
 5036 00b8 5BB2     		sxtb	r3, r3
 5037 00ba D218     		adds	r2, r2, r3
 5038 00bc 0E23     		movs	r3, #14
 5039 00be FB18     		adds	r3, r7, r3
 5040 00c0 7349     		ldr	r1, .L191+8
 5041 00c2 8A5C     		ldrb	r2, [r1, r2]
 5042 00c4 1A70     		strb	r2, [r3]
 5043              	.L181:
 598:ssd1306.c     ****         int8_t j = 0;
 5044              		.loc 1 598 0
 5045 00c6 0D23     		movs	r3, #13
 5046 00c8 FB18     		adds	r3, r7, r3
 5047 00ca 0022     		movs	r2, #0
ARM GAS  C:\Users\jdrd3\AppData\Local\Temp\ccQ8iyfh.s 			page 101


 5048 00cc 1A70     		strb	r2, [r3]
 599:ssd1306.c     ****         for( j = 0; j < 8 ; j++ ){
 5049              		.loc 1 599 0
 5050 00ce 0D23     		movs	r3, #13
 5051 00d0 FB18     		adds	r3, r7, r3
 5052 00d2 0022     		movs	r2, #0
 5053 00d4 1A70     		strb	r2, [r3]
 5054 00d6 BAE0     		b	.L182
 5055              	.L188:
 600:ssd1306.c     ****             if( line & 0x1 ){
 5056              		.loc 1 600 0
 5057 00d8 0E23     		movs	r3, #14
 5058 00da FB18     		adds	r3, r7, r3
 5059 00dc 1B78     		ldrb	r3, [r3]
 5060 00de 0122     		movs	r2, #1
 5061 00e0 1340     		ands	r3, r2
 5062 00e2 4DD0     		beq	.L183
 601:ssd1306.c     ****                 if( size == 1 ) // default size
 5063              		.loc 1 601 0
 5064 00e4 2423     		movs	r3, #36
 5065 00e6 FB18     		adds	r3, r7, r3
 5066 00e8 1B78     		ldrb	r3, [r3]
 5067 00ea 012B     		cmp	r3, #1
 5068 00ec 19D1     		bne	.L184
 602:ssd1306.c     ****                     gfx_drawPixel( x+i, y+j, color );
 5069              		.loc 1 602 0
 5070 00ee 0F23     		movs	r3, #15
 5071 00f0 FB18     		adds	r3, r7, r3
 5072 00f2 1B78     		ldrb	r3, [r3]
 5073 00f4 5BB2     		sxtb	r3, r3
 5074 00f6 9AB2     		uxth	r2, r3
 5075 00f8 BB1D     		adds	r3, r7, #6
 5076 00fa 1B88     		ldrh	r3, [r3]
 5077 00fc D318     		adds	r3, r2, r3
 5078 00fe 9BB2     		uxth	r3, r3
 5079 0100 18B2     		sxth	r0, r3
 5080 0102 0D23     		movs	r3, #13
 5081 0104 FB18     		adds	r3, r7, r3
 5082 0106 1B78     		ldrb	r3, [r3]
 5083 0108 5BB2     		sxtb	r3, r3
 5084 010a 9AB2     		uxth	r2, r3
 5085 010c 3B1D     		adds	r3, r7, #4
 5086 010e 1B88     		ldrh	r3, [r3]
 5087 0110 D318     		adds	r3, r2, r3
 5088 0112 9BB2     		uxth	r3, r3
 5089 0114 19B2     		sxth	r1, r3
 5090 0116 3B00     		movs	r3, r7
 5091 0118 1B88     		ldrh	r3, [r3]
 5092 011a 1A00     		movs	r2, r3
 5093 011c FFF7FEFF 		bl	gfx_drawPixel
 5094 0120 84E0     		b	.L186
 5095              	.L184:
 603:ssd1306.c     ****                 else { // big size
 604:ssd1306.c     ****                     gfx_fillRect( x+(i*size), y+(j*size), size, size, color );
 5096              		.loc 1 604 0
 5097 0122 0F23     		movs	r3, #15
 5098 0124 FB18     		adds	r3, r7, r3
ARM GAS  C:\Users\jdrd3\AppData\Local\Temp\ccQ8iyfh.s 			page 102


 5099 0126 1B78     		ldrb	r3, [r3]
 5100 0128 5BB2     		sxtb	r3, r3
 5101 012a 9BB2     		uxth	r3, r3
 5102 012c 2422     		movs	r2, #36
 5103 012e BA18     		adds	r2, r7, r2
 5104 0130 1278     		ldrb	r2, [r2]
 5105 0132 92B2     		uxth	r2, r2
 5106 0134 5343     		muls	r3, r2
 5107 0136 9AB2     		uxth	r2, r3
 5108 0138 BB1D     		adds	r3, r7, #6
 5109 013a 1B88     		ldrh	r3, [r3]
 5110 013c D318     		adds	r3, r2, r3
 5111 013e 9BB2     		uxth	r3, r3
 5112 0140 18B2     		sxth	r0, r3
 5113 0142 0D23     		movs	r3, #13
 5114 0144 FB18     		adds	r3, r7, r3
 5115 0146 1B78     		ldrb	r3, [r3]
 5116 0148 5BB2     		sxtb	r3, r3
 5117 014a 9BB2     		uxth	r3, r3
 5118 014c 2422     		movs	r2, #36
 5119 014e BA18     		adds	r2, r7, r2
 5120 0150 1278     		ldrb	r2, [r2]
 5121 0152 92B2     		uxth	r2, r2
 5122 0154 5343     		muls	r3, r2
 5123 0156 9AB2     		uxth	r2, r3
 5124 0158 3B1D     		adds	r3, r7, #4
 5125 015a 1B88     		ldrh	r3, [r3]
 5126 015c D318     		adds	r3, r2, r3
 5127 015e 9BB2     		uxth	r3, r3
 5128 0160 19B2     		sxth	r1, r3
 5129 0162 2423     		movs	r3, #36
 5130 0164 FB18     		adds	r3, r7, r3
 5131 0166 1B78     		ldrb	r3, [r3]
 5132 0168 1AB2     		sxth	r2, r3
 5133 016a 2423     		movs	r3, #36
 5134 016c FB18     		adds	r3, r7, r3
 5135 016e 1B78     		ldrb	r3, [r3]
 5136 0170 1CB2     		sxth	r4, r3
 5137 0172 3B00     		movs	r3, r7
 5138 0174 1B88     		ldrh	r3, [r3]
 5139 0176 0093     		str	r3, [sp]
 5140 0178 2300     		movs	r3, r4
 5141 017a FFF7FEFF 		bl	gfx_fillRect
 5142 017e 55E0     		b	.L186
 5143              	.L183:
 605:ssd1306.c     ****                 }
 606:ssd1306.c     ****             } else if( bg != color ){
 5144              		.loc 1 606 0
 5145 0180 2023     		movs	r3, #32
 5146 0182 FA18     		adds	r2, r7, r3
 5147 0184 3B00     		movs	r3, r7
 5148 0186 1288     		ldrh	r2, [r2]
 5149 0188 1B88     		ldrh	r3, [r3]
 5150 018a 9A42     		cmp	r2, r3
 5151 018c 4ED0     		beq	.L186
 607:ssd1306.c     ****                 if( size == 1 ) // default size
 5152              		.loc 1 607 0
ARM GAS  C:\Users\jdrd3\AppData\Local\Temp\ccQ8iyfh.s 			page 103


 5153 018e 2423     		movs	r3, #36
 5154 0190 FB18     		adds	r3, r7, r3
 5155 0192 1B78     		ldrb	r3, [r3]
 5156 0194 012B     		cmp	r3, #1
 5157 0196 1AD1     		bne	.L187
 608:ssd1306.c     ****                     gfx_drawPixel( x+i, y+j, bg );
 5158              		.loc 1 608 0
 5159 0198 0F23     		movs	r3, #15
 5160 019a FB18     		adds	r3, r7, r3
 5161 019c 1B78     		ldrb	r3, [r3]
 5162 019e 5BB2     		sxtb	r3, r3
 5163 01a0 9AB2     		uxth	r2, r3
 5164 01a2 BB1D     		adds	r3, r7, #6
 5165 01a4 1B88     		ldrh	r3, [r3]
 5166 01a6 D318     		adds	r3, r2, r3
 5167 01a8 9BB2     		uxth	r3, r3
 5168 01aa 18B2     		sxth	r0, r3
 5169 01ac 0D23     		movs	r3, #13
 5170 01ae FB18     		adds	r3, r7, r3
 5171 01b0 1B78     		ldrb	r3, [r3]
 5172 01b2 5BB2     		sxtb	r3, r3
 5173 01b4 9AB2     		uxth	r2, r3
 5174 01b6 3B1D     		adds	r3, r7, #4
 5175 01b8 1B88     		ldrh	r3, [r3]
 5176 01ba D318     		adds	r3, r2, r3
 5177 01bc 9BB2     		uxth	r3, r3
 5178 01be 1BB2     		sxth	r3, r3
 5179 01c0 2022     		movs	r2, #32
 5180 01c2 BA18     		adds	r2, r7, r2
 5181 01c4 1288     		ldrh	r2, [r2]
 5182 01c6 1900     		movs	r1, r3
 5183 01c8 FFF7FEFF 		bl	gfx_drawPixel
 5184 01cc 2EE0     		b	.L186
 5185              	.L187:
 609:ssd1306.c     ****                 else { // big size
 610:ssd1306.c     ****                     gfx_fillRect( x+i*size, y+j*size, size, size, bg );
 5186              		.loc 1 610 0
 5187 01ce 0F23     		movs	r3, #15
 5188 01d0 FB18     		adds	r3, r7, r3
 5189 01d2 1B78     		ldrb	r3, [r3]
 5190 01d4 5BB2     		sxtb	r3, r3
 5191 01d6 9BB2     		uxth	r3, r3
 5192 01d8 2422     		movs	r2, #36
 5193 01da BA18     		adds	r2, r7, r2
 5194 01dc 1278     		ldrb	r2, [r2]
 5195 01de 92B2     		uxth	r2, r2
 5196 01e0 5343     		muls	r3, r2
 5197 01e2 9AB2     		uxth	r2, r3
 5198 01e4 BB1D     		adds	r3, r7, #6
 5199 01e6 1B88     		ldrh	r3, [r3]
 5200 01e8 D318     		adds	r3, r2, r3
 5201 01ea 9BB2     		uxth	r3, r3
 5202 01ec 18B2     		sxth	r0, r3
 5203 01ee 0D23     		movs	r3, #13
 5204 01f0 FB18     		adds	r3, r7, r3
 5205 01f2 1B78     		ldrb	r3, [r3]
 5206 01f4 5BB2     		sxtb	r3, r3
ARM GAS  C:\Users\jdrd3\AppData\Local\Temp\ccQ8iyfh.s 			page 104


 5207 01f6 9BB2     		uxth	r3, r3
 5208 01f8 2422     		movs	r2, #36
 5209 01fa BA18     		adds	r2, r7, r2
 5210 01fc 1278     		ldrb	r2, [r2]
 5211 01fe 92B2     		uxth	r2, r2
 5212 0200 5343     		muls	r3, r2
 5213 0202 9AB2     		uxth	r2, r3
 5214 0204 3B1D     		adds	r3, r7, #4
 5215 0206 1B88     		ldrh	r3, [r3]
 5216 0208 D318     		adds	r3, r2, r3
 5217 020a 9BB2     		uxth	r3, r3
 5218 020c 19B2     		sxth	r1, r3
 5219 020e 2423     		movs	r3, #36
 5220 0210 FB18     		adds	r3, r7, r3
 5221 0212 1B78     		ldrb	r3, [r3]
 5222 0214 1AB2     		sxth	r2, r3
 5223 0216 2423     		movs	r3, #36
 5224 0218 FB18     		adds	r3, r7, r3
 5225 021a 1B78     		ldrb	r3, [r3]
 5226 021c 1CB2     		sxth	r4, r3
 5227 021e 2023     		movs	r3, #32
 5228 0220 FB18     		adds	r3, r7, r3
 5229 0222 1B88     		ldrh	r3, [r3]
 5230 0224 0093     		str	r3, [sp]
 5231 0226 2300     		movs	r3, r4
 5232 0228 FFF7FEFF 		bl	gfx_fillRect
 5233              	.L186:
 611:ssd1306.c     ****                 }
 612:ssd1306.c     ****             }
 613:ssd1306.c     ****             line >>= 1;
 5234              		.loc 1 613 0 discriminator 2
 5235 022c 0E23     		movs	r3, #14
 5236 022e FB18     		adds	r3, r7, r3
 5237 0230 0E22     		movs	r2, #14
 5238 0232 BA18     		adds	r2, r7, r2
 5239 0234 1278     		ldrb	r2, [r2]
 5240 0236 5208     		lsrs	r2, r2, #1
 5241 0238 1A70     		strb	r2, [r3]
 599:ssd1306.c     ****             if( line & 0x1 ){
 5242              		.loc 1 599 0 discriminator 2
 5243 023a 0D23     		movs	r3, #13
 5244 023c FB18     		adds	r3, r7, r3
 5245 023e 1B78     		ldrb	r3, [r3]
 5246 0240 5BB2     		sxtb	r3, r3
 5247 0242 DBB2     		uxtb	r3, r3
 5248 0244 0133     		adds	r3, r3, #1
 5249 0246 DAB2     		uxtb	r2, r3
 5250 0248 0D23     		movs	r3, #13
 5251 024a FB18     		adds	r3, r7, r3
 5252 024c 1A70     		strb	r2, [r3]
 5253              	.L182:
 599:ssd1306.c     ****             if( line & 0x1 ){
 5254              		.loc 1 599 0 is_stmt 0 discriminator 1
 5255 024e 0D23     		movs	r3, #13
 5256 0250 FB18     		adds	r3, r7, r3
 5257 0252 1B78     		ldrb	r3, [r3]
 5258 0254 5BB2     		sxtb	r3, r3
ARM GAS  C:\Users\jdrd3\AppData\Local\Temp\ccQ8iyfh.s 			page 105


 5259 0256 072B     		cmp	r3, #7
 5260 0258 00DC     		bgt	.LCB3402
 5261 025a 3DE7     		b	.L188	@long jump
 5262              	.LCB3402:
 5263              	.LBE7:
 592:ssd1306.c     ****         uint8_t line;
 5264              		.loc 1 592 0 is_stmt 1 discriminator 2
 5265 025c 0F23     		movs	r3, #15
 5266 025e FB18     		adds	r3, r7, r3
 5267 0260 1B78     		ldrb	r3, [r3]
 5268 0262 5BB2     		sxtb	r3, r3
 5269 0264 DBB2     		uxtb	r3, r3
 5270 0266 0133     		adds	r3, r3, #1
 5271 0268 DAB2     		uxtb	r2, r3
 5272 026a 0F23     		movs	r3, #15
 5273 026c FB18     		adds	r3, r7, r3
 5274 026e 1A70     		strb	r2, [r3]
 5275              	.L179:
 592:ssd1306.c     ****         uint8_t line;
 5276              		.loc 1 592 0 is_stmt 0 discriminator 1
 5277 0270 0F23     		movs	r3, #15
 5278 0272 FB18     		adds	r3, r7, r3
 5279 0274 1B78     		ldrb	r3, [r3]
 5280 0276 5BB2     		sxtb	r3, r3
 5281 0278 052B     		cmp	r3, #5
 5282 027a 00DC     		bgt	.LCB3421
 5283 027c 09E7     		b	.L189	@long jump
 5284              	.LCB3421:
 5285 027e 00E0     		b	.L175
 5286              	.L190:
 589:ssd1306.c     **** 
 5287              		.loc 1 589 0 is_stmt 1
 5288 0280 C046     		nop
 5289              	.L175:
 614:ssd1306.c     ****         }
 615:ssd1306.c     ****     }
 616:ssd1306.c     **** }
 5290              		.loc 1 616 0
 5291 0282 BD46     		mov	sp, r7
 5292 0284 04B0     		add	sp, sp, #16
 5293              		@ sp needed
 5294 0286 B0BD     		pop	{r4, r5, r7, pc}
 5295              	.L192:
 5296              		.align	2
 5297              	.L191:
 5298 0288 02000000 		.word	_width
 5299 028c 04000000 		.word	_height
 5300 0290 00000000 		.word	font
 5301              		.cfi_endproc
 5302              	.LFE61:
 5303              		.size	gfx_drawChar, .-gfx_drawChar
 5304              		.section	.text.gfx_write,"ax",%progbits
 5305              		.align	2
 5306              		.global	gfx_write
 5307              		.code	16
 5308              		.thumb_func
 5309              		.type	gfx_write, %function
ARM GAS  C:\Users\jdrd3\AppData\Local\Temp\ccQ8iyfh.s 			page 106


 5310              	gfx_write:
 5311              	.LFB62:
 617:ssd1306.c     **** 
 618:ssd1306.c     **** void gfx_write( uint8_t ch ){
 5312              		.loc 1 618 0
 5313              		.cfi_startproc
 5314              		@ args = 0, pretend = 0, frame = 8
 5315              		@ frame_needed = 1, uses_anonymous_args = 0
 5316 0000 B0B5     		push	{r4, r5, r7, lr}
 5317              		.cfi_def_cfa_offset 16
 5318              		.cfi_offset 4, -16
 5319              		.cfi_offset 5, -12
 5320              		.cfi_offset 7, -8
 5321              		.cfi_offset 14, -4
 5322 0002 84B0     		sub	sp, sp, #16
 5323              		.cfi_def_cfa_offset 32
 5324 0004 02AF     		add	r7, sp, #8
 5325              		.cfi_def_cfa 7, 24
 5326 0006 0200     		movs	r2, r0
 5327 0008 FB1D     		adds	r3, r7, #7
 5328 000a 1A70     		strb	r2, [r3]
 619:ssd1306.c     ****     if( ch == '\n' ){
 5329              		.loc 1 619 0
 5330 000c FB1D     		adds	r3, r7, #7
 5331 000e 1B78     		ldrb	r3, [r3]
 5332 0010 0A2B     		cmp	r3, #10
 5333 0012 11D1     		bne	.L194
 620:ssd1306.c     ****         cursor_y += textsize*8;
 5334              		.loc 1 620 0
 5335 0014 334B     		ldr	r3, .L197
 5336 0016 1B78     		ldrb	r3, [r3]
 5337 0018 9BB2     		uxth	r3, r3
 5338 001a DB00     		lsls	r3, r3, #3
 5339 001c 9AB2     		uxth	r2, r3
 5340 001e 324B     		ldr	r3, .L197+4
 5341 0020 0021     		movs	r1, #0
 5342 0022 5B5E     		ldrsh	r3, [r3, r1]
 5343 0024 9BB2     		uxth	r3, r3
 5344 0026 D318     		adds	r3, r2, r3
 5345 0028 9BB2     		uxth	r3, r3
 5346 002a 1AB2     		sxth	r2, r3
 5347 002c 2E4B     		ldr	r3, .L197+4
 5348 002e 1A80     		strh	r2, [r3]
 621:ssd1306.c     ****         cursor_x = 0;
 5349              		.loc 1 621 0
 5350 0030 2E4B     		ldr	r3, .L197+8
 5351 0032 0022     		movs	r2, #0
 5352 0034 1A80     		strh	r2, [r3]
 622:ssd1306.c     ****     }else if( ch == '\r' ){
 623:ssd1306.c     ****         // skip em
 624:ssd1306.c     ****     }else{
 625:ssd1306.c     ****         gfx_drawChar(cursor_x, cursor_y, ch, textcolor, textbgcolor, textsize);
 626:ssd1306.c     ****         cursor_x += textsize*6;
 627:ssd1306.c     ****         if( wrap && (cursor_x > (_width - textsize*6)) ){
 628:ssd1306.c     ****             cursor_y += textsize*8;
 629:ssd1306.c     ****             cursor_x = 0;
 630:ssd1306.c     ****         }
ARM GAS  C:\Users\jdrd3\AppData\Local\Temp\ccQ8iyfh.s 			page 107


 631:ssd1306.c     ****     }
 632:ssd1306.c     **** }
 5353              		.loc 1 632 0
 5354 0036 51E0     		b	.L196
 5355              	.L194:
 622:ssd1306.c     ****     }else if( ch == '\r' ){
 5356              		.loc 1 622 0
 5357 0038 FB1D     		adds	r3, r7, #7
 5358 003a 1B78     		ldrb	r3, [r3]
 5359 003c 0D2B     		cmp	r3, #13
 5360 003e 4DD0     		beq	.L196
 625:ssd1306.c     ****         cursor_x += textsize*6;
 5361              		.loc 1 625 0
 5362 0040 2A4B     		ldr	r3, .L197+8
 5363 0042 0020     		movs	r0, #0
 5364 0044 185E     		ldrsh	r0, [r3, r0]
 5365 0046 284B     		ldr	r3, .L197+4
 5366 0048 0024     		movs	r4, #0
 5367 004a 1C5F     		ldrsh	r4, [r3, r4]
 5368 004c 284B     		ldr	r3, .L197+12
 5369 004e 1D88     		ldrh	r5, [r3]
 5370 0050 284B     		ldr	r3, .L197+16
 5371 0052 1B88     		ldrh	r3, [r3]
 5372 0054 234A     		ldr	r2, .L197
 5373 0056 1278     		ldrb	r2, [r2]
 5374 0058 F91D     		adds	r1, r7, #7
 5375 005a 0978     		ldrb	r1, [r1]
 5376 005c 0192     		str	r2, [sp, #4]
 5377 005e 0093     		str	r3, [sp]
 5378 0060 2B00     		movs	r3, r5
 5379 0062 0A00     		movs	r2, r1
 5380 0064 2100     		movs	r1, r4
 5381 0066 FFF7FEFF 		bl	gfx_drawChar
 626:ssd1306.c     ****         if( wrap && (cursor_x > (_width - textsize*6)) ){
 5382              		.loc 1 626 0
 5383 006a 1E4B     		ldr	r3, .L197
 5384 006c 1B78     		ldrb	r3, [r3]
 5385 006e 9BB2     		uxth	r3, r3
 5386 0070 1A1C     		adds	r2, r3, #0
 5387 0072 131C     		adds	r3, r2, #0
 5388 0074 DB18     		adds	r3, r3, r3
 5389 0076 9B18     		adds	r3, r3, r2
 5390 0078 DB18     		adds	r3, r3, r3
 5391 007a 9AB2     		uxth	r2, r3
 5392 007c 1B4B     		ldr	r3, .L197+8
 5393 007e 0021     		movs	r1, #0
 5394 0080 5B5E     		ldrsh	r3, [r3, r1]
 5395 0082 9BB2     		uxth	r3, r3
 5396 0084 D318     		adds	r3, r2, r3
 5397 0086 9BB2     		uxth	r3, r3
 5398 0088 1AB2     		sxth	r2, r3
 5399 008a 184B     		ldr	r3, .L197+8
 5400 008c 1A80     		strh	r2, [r3]
 627:ssd1306.c     ****             cursor_y += textsize*8;
 5401              		.loc 1 627 0
 5402 008e 1A4B     		ldr	r3, .L197+20
 5403 0090 1B78     		ldrb	r3, [r3]
ARM GAS  C:\Users\jdrd3\AppData\Local\Temp\ccQ8iyfh.s 			page 108


 5404 0092 002B     		cmp	r3, #0
 5405 0094 22D0     		beq	.L196
 627:ssd1306.c     ****             cursor_y += textsize*8;
 5406              		.loc 1 627 0 is_stmt 0 discriminator 1
 5407 0096 154B     		ldr	r3, .L197+8
 5408 0098 0022     		movs	r2, #0
 5409 009a 9B5E     		ldrsh	r3, [r3, r2]
 5410 009c 1900     		movs	r1, r3
 5411 009e 174B     		ldr	r3, .L197+24
 5412 00a0 0022     		movs	r2, #0
 5413 00a2 9B5E     		ldrsh	r3, [r3, r2]
 5414 00a4 1800     		movs	r0, r3
 5415 00a6 0F4B     		ldr	r3, .L197
 5416 00a8 1B78     		ldrb	r3, [r3]
 5417 00aa 1A00     		movs	r2, r3
 5418 00ac 1300     		movs	r3, r2
 5419 00ae 9200     		lsls	r2, r2, #2
 5420 00b0 9B1A     		subs	r3, r3, r2
 5421 00b2 5B00     		lsls	r3, r3, #1
 5422 00b4 C318     		adds	r3, r0, r3
 5423 00b6 9942     		cmp	r1, r3
 5424 00b8 10DD     		ble	.L196
 628:ssd1306.c     ****             cursor_x = 0;
 5425              		.loc 1 628 0 is_stmt 1
 5426 00ba 0A4B     		ldr	r3, .L197
 5427 00bc 1B78     		ldrb	r3, [r3]
 5428 00be 9BB2     		uxth	r3, r3
 5429 00c0 DB00     		lsls	r3, r3, #3
 5430 00c2 9AB2     		uxth	r2, r3
 5431 00c4 084B     		ldr	r3, .L197+4
 5432 00c6 0021     		movs	r1, #0
 5433 00c8 5B5E     		ldrsh	r3, [r3, r1]
 5434 00ca 9BB2     		uxth	r3, r3
 5435 00cc D318     		adds	r3, r2, r3
 5436 00ce 9BB2     		uxth	r3, r3
 5437 00d0 1AB2     		sxth	r2, r3
 5438 00d2 054B     		ldr	r3, .L197+4
 5439 00d4 1A80     		strh	r2, [r3]
 629:ssd1306.c     ****         }
 5440              		.loc 1 629 0
 5441 00d6 054B     		ldr	r3, .L197+8
 5442 00d8 0022     		movs	r2, #0
 5443 00da 1A80     		strh	r2, [r3]
 5444              	.L196:
 5445              		.loc 1 632 0
 5446 00dc C046     		nop
 5447 00de BD46     		mov	sp, r7
 5448 00e0 02B0     		add	sp, sp, #8
 5449              		@ sp needed
 5450 00e2 B0BD     		pop	{r4, r5, r7, pc}
 5451              	.L198:
 5452              		.align	2
 5453              	.L197:
 5454 00e4 0E000000 		.word	textsize
 5455 00e8 08000000 		.word	cursor_y
 5456 00ec 06000000 		.word	cursor_x
 5457 00f0 0A000000 		.word	textcolor
ARM GAS  C:\Users\jdrd3\AppData\Local\Temp\ccQ8iyfh.s 			page 109


 5458 00f4 0C000000 		.word	textbgcolor
 5459 00f8 00000000 		.word	wrap
 5460 00fc 02000000 		.word	_width
 5461              		.cfi_endproc
 5462              	.LFE62:
 5463              		.size	gfx_write, .-gfx_write
 5464              		.section	.text.gfx_print,"ax",%progbits
 5465              		.align	2
 5466              		.global	gfx_print
 5467              		.code	16
 5468              		.thumb_func
 5469              		.type	gfx_print, %function
 5470              	gfx_print:
 5471              	.LFB63:
 633:ssd1306.c     **** 
 634:ssd1306.c     **** void gfx_print( const char* s ){
 5472              		.loc 1 634 0
 5473              		.cfi_startproc
 5474              		@ args = 0, pretend = 0, frame = 16
 5475              		@ frame_needed = 1, uses_anonymous_args = 0
 5476 0000 80B5     		push	{r7, lr}
 5477              		.cfi_def_cfa_offset 8
 5478              		.cfi_offset 7, -8
 5479              		.cfi_offset 14, -4
 5480 0002 84B0     		sub	sp, sp, #16
 5481              		.cfi_def_cfa_offset 24
 5482 0004 00AF     		add	r7, sp, #0
 5483              		.cfi_def_cfa_register 7
 5484 0006 7860     		str	r0, [r7, #4]
 635:ssd1306.c     ****     
 636:ssd1306.c     ****     unsigned int len = strlen( s );
 5485              		.loc 1 636 0
 5486 0008 7B68     		ldr	r3, [r7, #4]
 5487 000a 1800     		movs	r0, r3
 5488 000c FFF7FEFF 		bl	strlen
 5489 0010 0300     		movs	r3, r0
 5490 0012 BB60     		str	r3, [r7, #8]
 637:ssd1306.c     ****     unsigned int i = 0; 
 5491              		.loc 1 637 0
 5492 0014 0023     		movs	r3, #0
 5493 0016 FB60     		str	r3, [r7, #12]
 638:ssd1306.c     ****     for( i = 0 ; i < len ; i++ ){
 5494              		.loc 1 638 0
 5495 0018 0023     		movs	r3, #0
 5496 001a FB60     		str	r3, [r7, #12]
 5497 001c 09E0     		b	.L200
 5498              	.L201:
 639:ssd1306.c     ****         gfx_write( s[i] );
 5499              		.loc 1 639 0 discriminator 3
 5500 001e 7A68     		ldr	r2, [r7, #4]
 5501 0020 FB68     		ldr	r3, [r7, #12]
 5502 0022 D318     		adds	r3, r2, r3
 5503 0024 1B78     		ldrb	r3, [r3]
 5504 0026 1800     		movs	r0, r3
 5505 0028 FFF7FEFF 		bl	gfx_write
 638:ssd1306.c     ****     for( i = 0 ; i < len ; i++ ){
 5506              		.loc 1 638 0 discriminator 3
ARM GAS  C:\Users\jdrd3\AppData\Local\Temp\ccQ8iyfh.s 			page 110


 5507 002c FB68     		ldr	r3, [r7, #12]
 5508 002e 0133     		adds	r3, r3, #1
 5509 0030 FB60     		str	r3, [r7, #12]
 5510              	.L200:
 638:ssd1306.c     ****     for( i = 0 ; i < len ; i++ ){
 5511              		.loc 1 638 0 is_stmt 0 discriminator 1
 5512 0032 FA68     		ldr	r2, [r7, #12]
 5513 0034 BB68     		ldr	r3, [r7, #8]
 5514 0036 9A42     		cmp	r2, r3
 5515 0038 F1D3     		bcc	.L201
 640:ssd1306.c     ****     }
 641:ssd1306.c     **** }
 5516              		.loc 1 641 0 is_stmt 1
 5517 003a C046     		nop
 5518 003c BD46     		mov	sp, r7
 5519 003e 04B0     		add	sp, sp, #16
 5520              		@ sp needed
 5521 0040 80BD     		pop	{r7, pc}
 5522              		.cfi_endproc
 5523              	.LFE63:
 5524              		.size	gfx_print, .-gfx_print
 5525 0042 C046     		.section	.text.gfx_println,"ax",%progbits
 5526              		.align	2
 5527              		.global	gfx_println
 5528              		.code	16
 5529              		.thumb_func
 5530              		.type	gfx_println, %function
 5531              	gfx_println:
 5532              	.LFB64:
 642:ssd1306.c     **** 
 643:ssd1306.c     **** void gfx_println( const char* s ){ 
 5533              		.loc 1 643 0
 5534              		.cfi_startproc
 5535              		@ args = 0, pretend = 0, frame = 8
 5536              		@ frame_needed = 1, uses_anonymous_args = 0
 5537 0000 80B5     		push	{r7, lr}
 5538              		.cfi_def_cfa_offset 8
 5539              		.cfi_offset 7, -8
 5540              		.cfi_offset 14, -4
 5541 0002 82B0     		sub	sp, sp, #8
 5542              		.cfi_def_cfa_offset 16
 5543 0004 00AF     		add	r7, sp, #0
 5544              		.cfi_def_cfa_register 7
 5545 0006 7860     		str	r0, [r7, #4]
 644:ssd1306.c     ****     gfx_print( s ); 
 5546              		.loc 1 644 0
 5547 0008 7B68     		ldr	r3, [r7, #4]
 5548 000a 1800     		movs	r0, r3
 5549 000c FFF7FEFF 		bl	gfx_print
 645:ssd1306.c     ****     gfx_write( '\n' );
 5550              		.loc 1 645 0
 5551 0010 0A20     		movs	r0, #10
 5552 0012 FFF7FEFF 		bl	gfx_write
 646:ssd1306.c     **** }
 5553              		.loc 1 646 0
 5554 0016 C046     		nop
 5555 0018 BD46     		mov	sp, r7
ARM GAS  C:\Users\jdrd3\AppData\Local\Temp\ccQ8iyfh.s 			page 111


 5556 001a 02B0     		add	sp, sp, #8
 5557              		@ sp needed
 5558 001c 80BD     		pop	{r7, pc}
 5559              		.cfi_endproc
 5560              	.LFE64:
 5561              		.size	gfx_println, .-gfx_println
 5562 001e C046     		.text
 5563              	.Letext0:
 5564              		.file 2 "c:\\program files (x86)\\cypress\\psoc creator\\4.2\\psoc creator\\import\\gnu\\arm\\5.4.
 5565              		.file 3 "c:\\program files (x86)\\cypress\\psoc creator\\4.2\\psoc creator\\import\\gnu\\arm\\5.4.
 5566              		.file 4 "Generated_Source\\PSoC4/cytypes.h"
 5567              		.file 5 "ssd1306.h"
 5568              		.file 6 "font.h"
 5569              		.section	.debug_info,"",%progbits
 5570              	.Ldebug_info0:
 5571 0000 570C0000 		.4byte	0xc57
 5572 0004 0400     		.2byte	0x4
 5573 0006 00000000 		.4byte	.Ldebug_abbrev0
 5574 000a 04       		.byte	0x4
 5575 000b 01       		.uleb128 0x1
 5576 000c 7D000000 		.4byte	.LASF114
 5577 0010 0C       		.byte	0xc
 5578 0011 2C040000 		.4byte	.LASF115
 5579 0015 17000000 		.4byte	.LASF116
 5580 0019 00000000 		.4byte	.Ldebug_ranges0+0
 5581 001d 00000000 		.4byte	0
 5582 0021 00000000 		.4byte	.Ldebug_line0
 5583 0025 02       		.uleb128 0x2
 5584 0026 03040000 		.4byte	.LASF0
 5585 002a 02       		.byte	0x2
 5586 002b 1B       		.byte	0x1b
 5587 002c 30000000 		.4byte	0x30
 5588 0030 03       		.uleb128 0x3
 5589 0031 01       		.byte	0x1
 5590 0032 06       		.byte	0x6
 5591 0033 73050000 		.4byte	.LASF2
 5592 0037 02       		.uleb128 0x2
 5593 0038 99040000 		.4byte	.LASF1
 5594 003c 02       		.byte	0x2
 5595 003d 1D       		.byte	0x1d
 5596 003e 42000000 		.4byte	0x42
 5597 0042 03       		.uleb128 0x3
 5598 0043 01       		.byte	0x1
 5599 0044 08       		.byte	0x8
 5600 0045 16050000 		.4byte	.LASF3
 5601 0049 02       		.uleb128 0x2
 5602 004a 9C030000 		.4byte	.LASF4
 5603 004e 02       		.byte	0x2
 5604 004f 29       		.byte	0x29
 5605 0050 54000000 		.4byte	0x54
 5606 0054 03       		.uleb128 0x3
 5607 0055 02       		.byte	0x2
 5608 0056 05       		.byte	0x5
 5609 0057 43040000 		.4byte	.LASF5
 5610 005b 02       		.uleb128 0x2
 5611 005c 40020000 		.4byte	.LASF6
 5612 0060 02       		.byte	0x2
ARM GAS  C:\Users\jdrd3\AppData\Local\Temp\ccQ8iyfh.s 			page 112


 5613 0061 2B       		.byte	0x2b
 5614 0062 66000000 		.4byte	0x66
 5615 0066 03       		.uleb128 0x3
 5616 0067 02       		.byte	0x2
 5617 0068 07       		.byte	0x7
 5618 0069 7F050000 		.4byte	.LASF7
 5619 006d 03       		.uleb128 0x3
 5620 006e 04       		.byte	0x4
 5621 006f 05       		.byte	0x5
 5622 0070 55040000 		.4byte	.LASF8
 5623 0074 03       		.uleb128 0x3
 5624 0075 04       		.byte	0x4
 5625 0076 07       		.byte	0x7
 5626 0077 D3040000 		.4byte	.LASF9
 5627 007b 03       		.uleb128 0x3
 5628 007c 08       		.byte	0x8
 5629 007d 05       		.byte	0x5
 5630 007e 62030000 		.4byte	.LASF10
 5631 0082 03       		.uleb128 0x3
 5632 0083 08       		.byte	0x8
 5633 0084 07       		.byte	0x7
 5634 0085 29020000 		.4byte	.LASF11
 5635 0089 04       		.uleb128 0x4
 5636 008a 04       		.byte	0x4
 5637 008b 05       		.byte	0x5
 5638 008c 696E7400 		.ascii	"int\000"
 5639 0090 03       		.uleb128 0x3
 5640 0091 04       		.byte	0x4
 5641 0092 07       		.byte	0x7
 5642 0093 62000000 		.4byte	.LASF12
 5643 0097 02       		.uleb128 0x2
 5644 0098 E1010000 		.4byte	.LASF13
 5645 009c 03       		.byte	0x3
 5646 009d 14       		.byte	0x14
 5647 009e 25000000 		.4byte	0x25
 5648 00a2 02       		.uleb128 0x2
 5649 00a3 39030000 		.4byte	.LASF14
 5650 00a7 03       		.byte	0x3
 5651 00a8 18       		.byte	0x18
 5652 00a9 37000000 		.4byte	0x37
 5653 00ad 02       		.uleb128 0x2
 5654 00ae 21020000 		.4byte	.LASF15
 5655 00b2 03       		.byte	0x3
 5656 00b3 20       		.byte	0x20
 5657 00b4 49000000 		.4byte	0x49
 5658 00b8 02       		.uleb128 0x2
 5659 00b9 23040000 		.4byte	.LASF16
 5660 00bd 03       		.byte	0x3
 5661 00be 24       		.byte	0x24
 5662 00bf 5B000000 		.4byte	0x5b
 5663 00c3 02       		.uleb128 0x2
 5664 00c4 A5050000 		.4byte	.LASF17
 5665 00c8 04       		.byte	0x4
 5666 00c9 A1       		.byte	0xa1
 5667 00ca 42000000 		.4byte	0x42
 5668 00ce 02       		.uleb128 0x2
 5669 00cf 2B030000 		.4byte	.LASF18
ARM GAS  C:\Users\jdrd3\AppData\Local\Temp\ccQ8iyfh.s 			page 113


 5670 00d3 04       		.byte	0x4
 5671 00d4 A2       		.byte	0xa2
 5672 00d5 66000000 		.4byte	0x66
 5673 00d9 02       		.uleb128 0x2
 5674 00da C4030000 		.4byte	.LASF19
 5675 00de 04       		.byte	0x4
 5676 00df A3       		.byte	0xa3
 5677 00e0 74000000 		.4byte	0x74
 5678 00e4 03       		.uleb128 0x3
 5679 00e5 04       		.byte	0x4
 5680 00e6 04       		.byte	0x4
 5681 00e7 E8010000 		.4byte	.LASF20
 5682 00eb 03       		.uleb128 0x3
 5683 00ec 08       		.byte	0x8
 5684 00ed 04       		.byte	0x4
 5685 00ee AB050000 		.4byte	.LASF21
 5686 00f2 03       		.uleb128 0x3
 5687 00f3 01       		.byte	0x1
 5688 00f4 08       		.byte	0x8
 5689 00f5 26030000 		.4byte	.LASF22
 5690 00f9 03       		.uleb128 0x3
 5691 00fa 08       		.byte	0x8
 5692 00fb 04       		.byte	0x4
 5693 00fc 0C040000 		.4byte	.LASF23
 5694 0100 03       		.uleb128 0x3
 5695 0101 04       		.byte	0x4
 5696 0102 07       		.byte	0x7
 5697 0103 C3040000 		.4byte	.LASF24
 5698 0107 05       		.uleb128 0x5
 5699 0108 04       		.byte	0x4
 5700 0109 0D010000 		.4byte	0x10d
 5701 010d 06       		.uleb128 0x6
 5702 010e F2000000 		.4byte	0xf2
 5703 0112 07       		.uleb128 0x7
 5704 0113 01       		.byte	0x1
 5705 0114 42000000 		.4byte	0x42
 5706 0118 05       		.byte	0x5
 5707 0119 19       		.byte	0x19
 5708 011a 2B010000 		.4byte	0x12b
 5709 011e 08       		.uleb128 0x8
 5710 011f 09050000 		.4byte	.LASF25
 5711 0123 26       		.byte	0x26
 5712 0124 08       		.uleb128 0x8
 5713 0125 E5040000 		.4byte	.LASF26
 5714 0129 2A       		.byte	0x2a
 5715 012a 00       		.byte	0
 5716 012b 02       		.uleb128 0x2
 5717 012c 3B010000 		.4byte	.LASF27
 5718 0130 05       		.byte	0x5
 5719 0131 1C       		.byte	0x1c
 5720 0132 12010000 		.4byte	0x112
 5721 0136 07       		.uleb128 0x7
 5722 0137 01       		.byte	0x1
 5723 0138 42000000 		.4byte	0x42
 5724 013c 05       		.byte	0x5
 5725 013d 1E       		.byte	0x1e
 5726 013e 73010000 		.4byte	0x173
ARM GAS  C:\Users\jdrd3\AppData\Local\Temp\ccQ8iyfh.s 			page 114


 5727 0142 08       		.uleb128 0x8
 5728 0143 62010000 		.4byte	.LASF28
 5729 0147 03       		.byte	0x3
 5730 0148 08       		.uleb128 0x8
 5731 0149 71010000 		.4byte	.LASF29
 5732 014d 02       		.byte	0x2
 5733 014e 08       		.uleb128 0x8
 5734 014f 80010000 		.4byte	.LASF30
 5735 0153 01       		.byte	0x1
 5736 0154 08       		.uleb128 0x8
 5737 0155 8F010000 		.4byte	.LASF31
 5738 0159 06       		.byte	0x6
 5739 015a 08       		.uleb128 0x8
 5740 015b 9E010000 		.4byte	.LASF32
 5741 015f 00       		.byte	0
 5742 0160 08       		.uleb128 0x8
 5743 0161 AD010000 		.4byte	.LASF33
 5744 0165 05       		.byte	0x5
 5745 0166 08       		.uleb128 0x8
 5746 0167 BC010000 		.4byte	.LASF34
 5747 016b 04       		.byte	0x4
 5748 016c 08       		.uleb128 0x8
 5749 016d CB010000 		.4byte	.LASF35
 5750 0171 07       		.byte	0x7
 5751 0172 00       		.byte	0
 5752 0173 02       		.uleb128 0x2
 5753 0174 79030000 		.4byte	.LASF36
 5754 0178 05       		.byte	0x5
 5755 0179 27       		.byte	0x27
 5756 017a 36010000 		.4byte	0x136
 5757 017e 07       		.uleb128 0x7
 5758 017f 01       		.byte	0x1
 5759 0180 42000000 		.4byte	0x42
 5760 0184 05       		.byte	0x5
 5761 0185 29       		.byte	0x29
 5762 0186 BB010000 		.4byte	0x1bb
 5763 018a 08       		.uleb128 0x8
 5764 018b 8B020000 		.4byte	.LASF37
 5765 018f 00       		.byte	0
 5766 0190 08       		.uleb128 0x8
 5767 0191 99020000 		.4byte	.LASF38
 5768 0195 01       		.byte	0x1
 5769 0196 08       		.uleb128 0x8
 5770 0197 A7020000 		.4byte	.LASF39
 5771 019b 02       		.byte	0x2
 5772 019c 08       		.uleb128 0x8
 5773 019d B5020000 		.4byte	.LASF40
 5774 01a1 03       		.byte	0x3
 5775 01a2 08       		.uleb128 0x8
 5776 01a3 C3020000 		.4byte	.LASF41
 5777 01a7 04       		.byte	0x4
 5778 01a8 08       		.uleb128 0x8
 5779 01a9 D1020000 		.4byte	.LASF42
 5780 01ad 05       		.byte	0x5
 5781 01ae 08       		.uleb128 0x8
 5782 01af DF020000 		.4byte	.LASF43
 5783 01b3 06       		.byte	0x6
ARM GAS  C:\Users\jdrd3\AppData\Local\Temp\ccQ8iyfh.s 			page 115


 5784 01b4 08       		.uleb128 0x8
 5785 01b5 ED020000 		.4byte	.LASF44
 5786 01b9 07       		.byte	0x7
 5787 01ba 00       		.byte	0
 5788 01bb 02       		.uleb128 0x2
 5789 01bc 86030000 		.4byte	.LASF45
 5790 01c0 05       		.byte	0x5
 5791 01c1 32       		.byte	0x32
 5792 01c2 7E010000 		.4byte	0x17e
 5793 01c6 09       		.uleb128 0x9
 5794 01c7 55010000 		.4byte	.LASF51
 5795 01cb 01       		.byte	0x1
 5796 01cc 74       		.byte	0x74
 5797 01cd 00000000 		.4byte	.LFB33
 5798 01d1 4C000000 		.4byte	.LFE33-.LFB33
 5799 01d5 01       		.uleb128 0x1
 5800 01d6 9C       		.byte	0x9c
 5801 01d7 F8010000 		.4byte	0x1f8
 5802 01db 0A       		.uleb128 0xa
 5803 01dc 0B010000 		.4byte	.LASF46
 5804 01e0 01       		.byte	0x1
 5805 01e1 74       		.byte	0x74
 5806 01e2 C3000000 		.4byte	0xc3
 5807 01e6 02       		.uleb128 0x2
 5808 01e7 91       		.byte	0x91
 5809 01e8 57       		.sleb128 -41
 5810 01e9 0B       		.uleb128 0xb
 5811 01ea CC040000 		.4byte	.LASF48
 5812 01ee 01       		.byte	0x1
 5813 01ef 79       		.byte	0x79
 5814 01f0 F8010000 		.4byte	0x1f8
 5815 01f4 02       		.uleb128 0x2
 5816 01f5 91       		.byte	0x91
 5817 01f6 5C       		.sleb128 -36
 5818 01f7 00       		.byte	0
 5819 01f8 0C       		.uleb128 0xc
 5820 01f9 C3000000 		.4byte	0xc3
 5821 01fd 08020000 		.4byte	0x208
 5822 0201 0D       		.uleb128 0xd
 5823 0202 00010000 		.4byte	0x100
 5824 0206 19       		.byte	0x19
 5825 0207 00       		.byte	0
 5826 0208 0E       		.uleb128 0xe
 5827 0209 CB030000 		.4byte	.LASF117
 5828 020d 01       		.byte	0x1
 5829 020e 9E       		.byte	0x9e
 5830 020f D9000000 		.4byte	0xd9
 5831 0213 00000000 		.4byte	.LFB34
 5832 0217 64000000 		.4byte	.LFE34-.LFB34
 5833 021b 01       		.uleb128 0x1
 5834 021c 9C       		.byte	0x9c
 5835 021d 4C020000 		.4byte	0x24c
 5836 0221 0F       		.uleb128 0xf
 5837 0222 62756600 		.ascii	"buf\000"
 5838 0226 01       		.byte	0x1
 5839 0227 9E       		.byte	0x9e
 5840 0228 4C020000 		.4byte	0x24c
ARM GAS  C:\Users\jdrd3\AppData\Local\Temp\ccQ8iyfh.s 			page 116


 5841 022c 02       		.uleb128 0x2
 5842 022d 91       		.byte	0x91
 5843 022e 6C       		.sleb128 -20
 5844 022f 0A       		.uleb128 0xa
 5845 0230 AE030000 		.4byte	.LASF47
 5846 0234 01       		.byte	0x1
 5847 0235 9E       		.byte	0x9e
 5848 0236 B8000000 		.4byte	0xb8
 5849 023a 02       		.uleb128 0x2
 5850 023b 91       		.byte	0x91
 5851 023c 6A       		.sleb128 -22
 5852 023d 0B       		.uleb128 0xb
 5853 023e 41030000 		.4byte	.LASF49
 5854 0242 01       		.byte	0x1
 5855 0243 A0       		.byte	0xa0
 5856 0244 D9000000 		.4byte	0xd9
 5857 0248 02       		.uleb128 0x2
 5858 0249 91       		.byte	0x91
 5859 024a 74       		.sleb128 -12
 5860 024b 00       		.byte	0
 5861 024c 05       		.uleb128 0x5
 5862 024d 04       		.byte	0x4
 5863 024e C3000000 		.4byte	0xc3
 5864 0252 10       		.uleb128 0x10
 5865 0253 7A020000 		.4byte	.LASF57
 5866 0257 01       		.byte	0x1
 5867 0258 B2       		.byte	0xb2
 5868 0259 00000000 		.4byte	.LFB35
 5869 025d 7C010000 		.4byte	.LFE35-.LFB35
 5870 0261 01       		.uleb128 0x1
 5871 0262 9C       		.byte	0x9c
 5872 0263 8E020000 		.4byte	0x28e
 5873 0267 0F       		.uleb128 0xf
 5874 0268 7800     		.ascii	"x\000"
 5875 026a 01       		.byte	0x1
 5876 026b B2       		.byte	0xb2
 5877 026c AD000000 		.4byte	0xad
 5878 0270 02       		.uleb128 0x2
 5879 0271 91       		.byte	0x91
 5880 0272 6E       		.sleb128 -18
 5881 0273 0F       		.uleb128 0xf
 5882 0274 7900     		.ascii	"y\000"
 5883 0276 01       		.byte	0x1
 5884 0277 B2       		.byte	0xb2
 5885 0278 AD000000 		.4byte	0xad
 5886 027c 02       		.uleb128 0x2
 5887 027d 91       		.byte	0x91
 5888 027e 6C       		.sleb128 -20
 5889 027f 0A       		.uleb128 0xa
 5890 0280 83040000 		.4byte	.LASF50
 5891 0284 01       		.byte	0x1
 5892 0285 B2       		.byte	0xb2
 5893 0286 B8000000 		.4byte	0xb8
 5894 028a 02       		.uleb128 0x2
 5895 028b 91       		.byte	0x91
 5896 028c 6A       		.sleb128 -22
 5897 028d 00       		.byte	0
ARM GAS  C:\Users\jdrd3\AppData\Local\Temp\ccQ8iyfh.s 			page 117


 5898 028e 11       		.uleb128 0x11
 5899 028f F1040000 		.4byte	.LASF118
 5900 0293 01       		.byte	0x1
 5901 0294 C5       		.byte	0xc5
 5902 0295 00000000 		.4byte	.LFB36
 5903 0299 2C000000 		.4byte	.LFE36-.LFB36
 5904 029d 01       		.uleb128 0x1
 5905 029e 9C       		.byte	0x9c
 5906 029f 09       		.uleb128 0x9
 5907 02a0 56050000 		.4byte	.LASF52
 5908 02a4 01       		.byte	0x1
 5909 02a5 CC       		.byte	0xcc
 5910 02a6 00000000 		.4byte	.LFB37
 5911 02aa 3A000000 		.4byte	.LFE37-.LFB37
 5912 02ae 01       		.uleb128 0x1
 5913 02af 9C       		.byte	0x9c
 5914 02b0 D1020000 		.4byte	0x2d1
 5915 02b4 0A       		.uleb128 0xa
 5916 02b5 70030000 		.4byte	.LASF53
 5917 02b9 01       		.byte	0x1
 5918 02ba CC       		.byte	0xcc
 5919 02bb A2000000 		.4byte	0xa2
 5920 02bf 02       		.uleb128 0x2
 5921 02c0 91       		.byte	0x91
 5922 02c1 6F       		.sleb128 -17
 5923 02c2 0B       		.uleb128 0xb
 5924 02c3 CC040000 		.4byte	.LASF48
 5925 02c7 01       		.byte	0x1
 5926 02c8 CE       		.byte	0xce
 5927 02c9 D1020000 		.4byte	0x2d1
 5928 02cd 02       		.uleb128 0x2
 5929 02ce 91       		.byte	0x91
 5930 02cf 74       		.sleb128 -12
 5931 02d0 00       		.byte	0
 5932 02d1 0C       		.uleb128 0xc
 5933 02d2 C3000000 		.4byte	0xc3
 5934 02d6 E1020000 		.4byte	0x2e1
 5935 02da 0D       		.uleb128 0xd
 5936 02db 00010000 		.4byte	0x100
 5937 02df 02       		.byte	0x2
 5938 02e0 00       		.byte	0
 5939 02e1 09       		.uleb128 0x9
 5940 02e2 74040000 		.4byte	.LASF54
 5941 02e6 01       		.byte	0x1
 5942 02e7 D8       		.byte	0xd8
 5943 02e8 00000000 		.4byte	.LFB38
 5944 02ec 44000000 		.4byte	.LFE38-.LFB38
 5945 02f0 01       		.uleb128 0x1
 5946 02f1 9C       		.byte	0x9c
 5947 02f2 13030000 		.4byte	0x313
 5948 02f6 0A       		.uleb128 0xa
 5949 02f7 32030000 		.4byte	.LASF55
 5950 02fb 01       		.byte	0x1
 5951 02fc D8       		.byte	0xd8
 5952 02fd A2000000 		.4byte	0xa2
 5953 0301 02       		.uleb128 0x2
 5954 0302 91       		.byte	0x91
ARM GAS  C:\Users\jdrd3\AppData\Local\Temp\ccQ8iyfh.s 			page 118


 5955 0303 6F       		.sleb128 -17
 5956 0304 0B       		.uleb128 0xb
 5957 0305 CC040000 		.4byte	.LASF48
 5958 0309 01       		.byte	0x1
 5959 030a DA       		.byte	0xda
 5960 030b 13030000 		.4byte	0x313
 5961 030f 02       		.uleb128 0x2
 5962 0310 91       		.byte	0x91
 5963 0311 74       		.sleb128 -12
 5964 0312 00       		.byte	0
 5965 0313 0C       		.uleb128 0xc
 5966 0314 C3000000 		.4byte	0xc3
 5967 0318 23030000 		.4byte	0x323
 5968 031c 0D       		.uleb128 0xd
 5969 031d 00010000 		.4byte	0x100
 5970 0321 01       		.byte	0x1
 5971 0322 00       		.byte	0
 5972 0323 09       		.uleb128 0x9
 5973 0324 17030000 		.4byte	.LASF56
 5974 0328 01       		.byte	0x1
 5975 0329 E3       		.byte	0xe3
 5976 032a 00000000 		.4byte	.LFB39
 5977 032e 40000000 		.4byte	.LFE39-.LFB39
 5978 0332 01       		.uleb128 0x1
 5979 0333 9C       		.byte	0x9c
 5980 0334 47030000 		.4byte	0x347
 5981 0338 0B       		.uleb128 0xb
 5982 0339 CC040000 		.4byte	.LASF48
 5983 033d 01       		.byte	0x1
 5984 033e E5       		.byte	0xe5
 5985 033f 47030000 		.4byte	0x347
 5986 0343 02       		.uleb128 0x2
 5987 0344 91       		.byte	0x91
 5988 0345 70       		.sleb128 -16
 5989 0346 00       		.byte	0
 5990 0347 0C       		.uleb128 0xc
 5991 0348 C3000000 		.4byte	0xc3
 5992 034c 57030000 		.4byte	0x357
 5993 0350 0D       		.uleb128 0xd
 5994 0351 00010000 		.4byte	0x100
 5995 0355 06       		.byte	0x6
 5996 0356 00       		.byte	0
 5997 0357 10       		.uleb128 0x10
 5998 0358 23010000 		.4byte	.LASF58
 5999 035c 01       		.byte	0x1
 6000 035d F6       		.byte	0xf6
 6001 035e 00000000 		.4byte	.LFB40
 6002 0362 B0020000 		.4byte	.LFE40-.LFB40
 6003 0366 01       		.uleb128 0x1
 6004 0367 9C       		.byte	0x9c
 6005 0368 6E040000 		.4byte	0x46e
 6006 036c 0F       		.uleb128 0xf
 6007 036d 783100   		.ascii	"x1\000"
 6008 0370 01       		.byte	0x1
 6009 0371 F6       		.byte	0xf6
 6010 0372 AD000000 		.4byte	0xad
 6011 0376 02       		.uleb128 0x2
ARM GAS  C:\Users\jdrd3\AppData\Local\Temp\ccQ8iyfh.s 			page 119


 6012 0377 91       		.byte	0x91
 6013 0378 46       		.sleb128 -58
 6014 0379 0F       		.uleb128 0xf
 6015 037a 793100   		.ascii	"y1\000"
 6016 037d 01       		.byte	0x1
 6017 037e F6       		.byte	0xf6
 6018 037f AD000000 		.4byte	0xad
 6019 0383 02       		.uleb128 0x2
 6020 0384 91       		.byte	0x91
 6021 0385 44       		.sleb128 -60
 6022 0386 0F       		.uleb128 0xf
 6023 0387 783200   		.ascii	"x2\000"
 6024 038a 01       		.byte	0x1
 6025 038b F6       		.byte	0xf6
 6026 038c AD000000 		.4byte	0xad
 6027 0390 02       		.uleb128 0x2
 6028 0391 91       		.byte	0x91
 6029 0392 42       		.sleb128 -62
 6030 0393 0F       		.uleb128 0xf
 6031 0394 793200   		.ascii	"y2\000"
 6032 0397 01       		.byte	0x1
 6033 0398 F6       		.byte	0xf6
 6034 0399 AD000000 		.4byte	0xad
 6035 039d 02       		.uleb128 0x2
 6036 039e 91       		.byte	0x91
 6037 039f 40       		.sleb128 -64
 6038 03a0 0A       		.uleb128 0xa
 6039 03a1 83040000 		.4byte	.LASF50
 6040 03a5 01       		.byte	0x1
 6041 03a6 F6       		.byte	0xf6
 6042 03a7 B8000000 		.4byte	0xb8
 6043 03ab 02       		.uleb128 0x2
 6044 03ac 91       		.byte	0x91
 6045 03ad 00       		.sleb128 0
 6046 03ae 12       		.uleb128 0x12
 6047 03af 38000000 		.4byte	.LBB2
 6048 03b3 AA010000 		.4byte	.LBE2-.LBB2
 6049 03b7 27040000 		.4byte	0x427
 6050 03bb 0B       		.uleb128 0xb
 6051 03bc EE010000 		.4byte	.LASF59
 6052 03c0 01       		.byte	0x1
 6053 03c1 FA       		.byte	0xfa
 6054 03c2 6E040000 		.4byte	0x46e
 6055 03c6 02       		.uleb128 0x2
 6056 03c7 91       		.byte	0x91
 6057 03c8 60       		.sleb128 -32
 6058 03c9 0B       		.uleb128 0xb
 6059 03ca 04050000 		.4byte	.LASF60
 6060 03ce 01       		.byte	0x1
 6061 03cf FB       		.byte	0xfb
 6062 03d0 6E040000 		.4byte	0x46e
 6063 03d4 02       		.uleb128 0x2
 6064 03d5 91       		.byte	0x91
 6065 03d6 5C       		.sleb128 -36
 6066 03d7 13       		.uleb128 0x13
 6067 03d8 70747200 		.ascii	"ptr\000"
 6068 03dc 01       		.byte	0x1
ARM GAS  C:\Users\jdrd3\AppData\Local\Temp\ccQ8iyfh.s 			page 120


 6069 03dd FC       		.byte	0xfc
 6070 03de 6E040000 		.4byte	0x46e
 6071 03e2 02       		.uleb128 0x2
 6072 03e3 91       		.byte	0x91
 6073 03e4 6C       		.sleb128 -20
 6074 03e5 14       		.uleb128 0x14
 6075 03e6 86000000 		.4byte	.LBB3
 6076 03ea 52010000 		.4byte	.LBE3-.LBB3
 6077 03ee 15       		.uleb128 0x15
 6078 03ef DD030000 		.4byte	.LASF61
 6079 03f3 01       		.byte	0x1
 6080 03f4 0001     		.2byte	0x100
 6081 03f6 A2000000 		.4byte	0xa2
 6082 03fa 02       		.uleb128 0x2
 6083 03fb 91       		.byte	0x91
 6084 03fc 6B       		.sleb128 -21
 6085 03fd 14       		.uleb128 0x14
 6086 03fe 8E000000 		.4byte	.LBB4
 6087 0402 74000000 		.4byte	.LBE4-.LBB4
 6088 0406 15       		.uleb128 0x15
 6089 0407 A3040000 		.4byte	.LASF62
 6090 040b 01       		.byte	0x1
 6091 040c 0301     		.2byte	0x103
 6092 040e A2000000 		.4byte	0xa2
 6093 0412 02       		.uleb128 0x2
 6094 0413 91       		.byte	0x91
 6095 0414 5B       		.sleb128 -37
 6096 0415 15       		.uleb128 0x15
 6097 0416 24050000 		.4byte	.LASF63
 6098 041a 01       		.byte	0x1
 6099 041b 0501     		.2byte	0x105
 6100 041d A2000000 		.4byte	0xa2
 6101 0421 02       		.uleb128 0x2
 6102 0422 91       		.byte	0x91
 6103 0423 6A       		.sleb128 -22
 6104 0424 00       		.byte	0
 6105 0425 00       		.byte	0
 6106 0426 00       		.byte	0
 6107 0427 14       		.uleb128 0x14
 6108 0428 E4010000 		.4byte	.LBB5
 6109 042c BA000000 		.4byte	.LBE5-.LBB5
 6110 0430 15       		.uleb128 0x15
 6111 0431 EE010000 		.4byte	.LASF59
 6112 0435 01       		.byte	0x1
 6113 0436 2101     		.2byte	0x121
 6114 0438 6E040000 		.4byte	0x46e
 6115 043c 02       		.uleb128 0x2
 6116 043d 91       		.byte	0x91
 6117 043e 54       		.sleb128 -44
 6118 043f 15       		.uleb128 0x15
 6119 0440 04050000 		.4byte	.LASF60
 6120 0444 01       		.byte	0x1
 6121 0445 2201     		.2byte	0x122
 6122 0447 6E040000 		.4byte	0x46e
 6123 044b 02       		.uleb128 0x2
 6124 044c 91       		.byte	0x91
 6125 044d 50       		.sleb128 -48
ARM GAS  C:\Users\jdrd3\AppData\Local\Temp\ccQ8iyfh.s 			page 121


 6126 044e 15       		.uleb128 0x15
 6127 044f 4D040000 		.4byte	.LASF64
 6128 0453 01       		.byte	0x1
 6129 0454 2301     		.2byte	0x123
 6130 0456 A2000000 		.4byte	0xa2
 6131 045a 02       		.uleb128 0x2
 6132 045b 91       		.byte	0x91
 6133 045c 4F       		.sleb128 -49
 6134 045d 16       		.uleb128 0x16
 6135 045e 70747200 		.ascii	"ptr\000"
 6136 0462 01       		.byte	0x1
 6137 0463 2501     		.2byte	0x125
 6138 0465 6E040000 		.4byte	0x46e
 6139 0469 02       		.uleb128 0x2
 6140 046a 91       		.byte	0x91
 6141 046b 64       		.sleb128 -28
 6142 046c 00       		.byte	0
 6143 046d 00       		.byte	0
 6144 046e 05       		.uleb128 0x5
 6145 046f 04       		.byte	0x4
 6146 0470 A2000000 		.4byte	0xa2
 6147 0474 17       		.uleb128 0x17
 6148 0475 92050000 		.4byte	.LASF65
 6149 0479 01       		.byte	0x1
 6150 047a 3301     		.2byte	0x133
 6151 047c 00000000 		.4byte	.LFB41
 6152 0480 24000000 		.4byte	.LFE41-.LFB41
 6153 0484 01       		.uleb128 0x1
 6154 0485 9C       		.byte	0x9c
 6155 0486 9A040000 		.4byte	0x49a
 6156 048a 15       		.uleb128 0x15
 6157 048b CC040000 		.4byte	.LASF48
 6158 048f 01       		.byte	0x1
 6159 0490 3501     		.2byte	0x135
 6160 0492 13030000 		.4byte	0x313
 6161 0496 02       		.uleb128 0x2
 6162 0497 91       		.byte	0x91
 6163 0498 74       		.sleb128 -12
 6164 0499 00       		.byte	0
 6165 049a 17       		.uleb128 0x17
 6166 049b 3B050000 		.4byte	.LASF66
 6167 049f 01       		.byte	0x1
 6168 04a0 3C01     		.2byte	0x13c
 6169 04a2 00000000 		.4byte	.LFB42
 6170 04a6 8A000000 		.4byte	.LFE42-.LFB42
 6171 04aa 01       		.uleb128 0x1
 6172 04ab 9C       		.byte	0x9c
 6173 04ac FC040000 		.4byte	0x4fc
 6174 04b0 18       		.uleb128 0x18
 6175 04b1 A8040000 		.4byte	.LASF67
 6176 04b5 01       		.byte	0x1
 6177 04b6 3C01     		.2byte	0x13c
 6178 04b8 BB010000 		.4byte	0x1bb
 6179 04bc 02       		.uleb128 0x2
 6180 04bd 91       		.byte	0x91
 6181 04be 5F       		.sleb128 -33
 6182 04bf 19       		.uleb128 0x19
ARM GAS  C:\Users\jdrd3\AppData\Local\Temp\ccQ8iyfh.s 			page 122


 6183 04c0 656E6400 		.ascii	"end\000"
 6184 04c4 01       		.byte	0x1
 6185 04c5 3C01     		.2byte	0x13c
 6186 04c7 BB010000 		.4byte	0x1bb
 6187 04cb 02       		.uleb128 0x2
 6188 04cc 91       		.byte	0x91
 6189 04cd 5E       		.sleb128 -34
 6190 04ce 19       		.uleb128 0x19
 6191 04cf 64697200 		.ascii	"dir\000"
 6192 04d3 01       		.byte	0x1
 6193 04d4 3C01     		.2byte	0x13c
 6194 04d6 2B010000 		.4byte	0x12b
 6195 04da 02       		.uleb128 0x2
 6196 04db 91       		.byte	0x91
 6197 04dc 5D       		.sleb128 -35
 6198 04dd 18       		.uleb128 0x18
 6199 04de 4F010000 		.4byte	.LASF68
 6200 04e2 01       		.byte	0x1
 6201 04e3 3C01     		.2byte	0x13c
 6202 04e5 73010000 		.4byte	0x173
 6203 04e9 02       		.uleb128 0x2
 6204 04ea 91       		.byte	0x91
 6205 04eb 5C       		.sleb128 -36
 6206 04ec 15       		.uleb128 0x15
 6207 04ed CC040000 		.4byte	.LASF48
 6208 04f1 01       		.byte	0x1
 6209 04f2 3E01     		.2byte	0x13e
 6210 04f4 FC040000 		.4byte	0x4fc
 6211 04f8 02       		.uleb128 0x2
 6212 04f9 91       		.byte	0x91
 6213 04fa 64       		.sleb128 -28
 6214 04fb 00       		.byte	0
 6215 04fc 0C       		.uleb128 0xc
 6216 04fd C3000000 		.4byte	0xc3
 6217 0501 0C050000 		.4byte	0x50c
 6218 0505 0D       		.uleb128 0xd
 6219 0506 00010000 		.4byte	0x100
 6220 050a 08       		.byte	0x8
 6221 050b 00       		.byte	0
 6222 050c 1A       		.uleb128 0x1a
 6223 050d 0E000000 		.4byte	.LASF69
 6224 0511 01       		.byte	0x1
 6225 0512 5B01     		.2byte	0x15b
 6226 0514 00000000 		.4byte	.LFB43
 6227 0518 9C000000 		.4byte	.LFE43-.LFB43
 6228 051c 01       		.uleb128 0x1
 6229 051d 9C       		.byte	0x9c
 6230 051e 41050000 		.4byte	0x541
 6231 0522 18       		.uleb128 0x18
 6232 0523 74020000 		.4byte	.LASF70
 6233 0527 01       		.byte	0x1
 6234 0528 5B01     		.2byte	0x15b
 6235 052a AD000000 		.4byte	0xad
 6236 052e 02       		.uleb128 0x2
 6237 052f 91       		.byte	0x91
 6238 0530 76       		.sleb128 -10
 6239 0531 18       		.uleb128 0x18
ARM GAS  C:\Users\jdrd3\AppData\Local\Temp\ccQ8iyfh.s 			page 123


 6240 0532 EB030000 		.4byte	.LASF71
 6241 0536 01       		.byte	0x1
 6242 0537 5B01     		.2byte	0x15b
 6243 0539 AD000000 		.4byte	0xad
 6244 053d 02       		.uleb128 0x2
 6245 053e 91       		.byte	0x91
 6246 053f 74       		.sleb128 -12
 6247 0540 00       		.byte	0
 6248 0541 1B       		.uleb128 0x1b
 6249 0542 92030000 		.4byte	.LASF72
 6250 0546 01       		.byte	0x1
 6251 0547 6901     		.2byte	0x169
 6252 0549 AD000000 		.4byte	0xad
 6253 054d 00000000 		.4byte	.LFB44
 6254 0551 14000000 		.4byte	.LFE44-.LFB44
 6255 0555 01       		.uleb128 0x1
 6256 0556 9C       		.byte	0x9c
 6257 0557 1B       		.uleb128 0x1b
 6258 0558 18040000 		.4byte	.LASF73
 6259 055c 01       		.byte	0x1
 6260 055d 6D01     		.2byte	0x16d
 6261 055f AD000000 		.4byte	0xad
 6262 0563 00000000 		.4byte	.LFB45
 6263 0567 14000000 		.4byte	.LFE45-.LFB45
 6264 056b 01       		.uleb128 0x1
 6265 056c 9C       		.byte	0x9c
 6266 056d 1B       		.uleb128 0x1b
 6267 056e 55000000 		.4byte	.LASF74
 6268 0572 01       		.byte	0x1
 6269 0573 7101     		.2byte	0x171
 6270 0575 A2000000 		.4byte	0xa2
 6271 0579 00000000 		.4byte	.LFB46
 6272 057d 14000000 		.4byte	.LFE46-.LFB46
 6273 0581 01       		.uleb128 0x1
 6274 0582 9C       		.byte	0x9c
 6275 0583 1A       		.uleb128 0x1a
 6276 0584 C8050000 		.4byte	.LASF75
 6277 0588 01       		.byte	0x1
 6278 0589 7501     		.2byte	0x175
 6279 058b 00000000 		.4byte	.LFB47
 6280 058f 34000000 		.4byte	.LFE47-.LFB47
 6281 0593 01       		.uleb128 0x1
 6282 0594 9C       		.byte	0x9c
 6283 0595 B4050000 		.4byte	0x5b4
 6284 0599 19       		.uleb128 0x19
 6285 059a 7800     		.ascii	"x\000"
 6286 059c 01       		.byte	0x1
 6287 059d 7501     		.2byte	0x175
 6288 059f AD000000 		.4byte	0xad
 6289 05a3 02       		.uleb128 0x2
 6290 05a4 91       		.byte	0x91
 6291 05a5 76       		.sleb128 -10
 6292 05a6 19       		.uleb128 0x19
 6293 05a7 7900     		.ascii	"y\000"
 6294 05a9 01       		.byte	0x1
 6295 05aa 7501     		.2byte	0x175
 6296 05ac AD000000 		.4byte	0xad
ARM GAS  C:\Users\jdrd3\AppData\Local\Temp\ccQ8iyfh.s 			page 124


 6297 05b0 02       		.uleb128 0x2
 6298 05b1 91       		.byte	0x91
 6299 05b2 74       		.sleb128 -12
 6300 05b3 00       		.byte	0
 6301 05b4 1A       		.uleb128 0x1a
 6302 05b5 89040000 		.4byte	.LASF76
 6303 05b9 01       		.byte	0x1
 6304 05ba 7A01     		.2byte	0x17a
 6305 05bc 00000000 		.4byte	.LFB48
 6306 05c0 2C000000 		.4byte	.LFE48-.LFB48
 6307 05c4 01       		.uleb128 0x1
 6308 05c5 9C       		.byte	0x9c
 6309 05c6 DA050000 		.4byte	0x5da
 6310 05ca 18       		.uleb128 0x18
 6311 05cb AE030000 		.4byte	.LASF47
 6312 05cf 01       		.byte	0x1
 6313 05d0 7A01     		.2byte	0x17a
 6314 05d2 A2000000 		.4byte	0xa2
 6315 05d6 02       		.uleb128 0x2
 6316 05d7 91       		.byte	0x91
 6317 05d8 77       		.sleb128 -9
 6318 05d9 00       		.byte	0
 6319 05da 1A       		.uleb128 0x1a
 6320 05db F2030000 		.4byte	.LASF77
 6321 05df 01       		.byte	0x1
 6322 05e0 7E01     		.2byte	0x17e
 6323 05e2 00000000 		.4byte	.LFB49
 6324 05e6 2C000000 		.4byte	.LFE49-.LFB49
 6325 05ea 01       		.uleb128 0x1
 6326 05eb 9C       		.byte	0x9c
 6327 05ec 00060000 		.4byte	0x600
 6328 05f0 18       		.uleb128 0x18
 6329 05f1 83040000 		.4byte	.LASF50
 6330 05f5 01       		.byte	0x1
 6331 05f6 7E01     		.2byte	0x17e
 6332 05f8 B8000000 		.4byte	0xb8
 6333 05fc 02       		.uleb128 0x2
 6334 05fd 91       		.byte	0x91
 6335 05fe 76       		.sleb128 -10
 6336 05ff 00       		.byte	0
 6337 0600 1A       		.uleb128 0x1a
 6338 0601 6F000000 		.4byte	.LASF78
 6339 0605 01       		.byte	0x1
 6340 0606 8401     		.2byte	0x184
 6341 0608 00000000 		.4byte	.LFB50
 6342 060c 20000000 		.4byte	.LFE50-.LFB50
 6343 0610 01       		.uleb128 0x1
 6344 0611 9C       		.byte	0x9c
 6345 0612 26060000 		.4byte	0x626
 6346 0616 18       		.uleb128 0x18
 6347 0617 83040000 		.4byte	.LASF50
 6348 061b 01       		.byte	0x1
 6349 061c 8401     		.2byte	0x184
 6350 061e B8000000 		.4byte	0xb8
 6351 0622 02       		.uleb128 0x2
 6352 0623 91       		.byte	0x91
 6353 0624 76       		.sleb128 -10
ARM GAS  C:\Users\jdrd3\AppData\Local\Temp\ccQ8iyfh.s 			page 125


 6354 0625 00       		.byte	0
 6355 0626 1A       		.uleb128 0x1a
 6356 0627 D6050000 		.4byte	.LASF79
 6357 062b 01       		.byte	0x1
 6358 062c 8801     		.2byte	0x188
 6359 062e 00000000 		.4byte	.LFB51
 6360 0632 20000000 		.4byte	.LFE51-.LFB51
 6361 0636 01       		.uleb128 0x1
 6362 0637 9C       		.byte	0x9c
 6363 0638 4A060000 		.4byte	0x64a
 6364 063c 19       		.uleb128 0x19
 6365 063d 7700     		.ascii	"w\000"
 6366 063f 01       		.byte	0x1
 6367 0640 8801     		.2byte	0x188
 6368 0642 C3000000 		.4byte	0xc3
 6369 0646 02       		.uleb128 0x2
 6370 0647 91       		.byte	0x91
 6371 0648 77       		.sleb128 -9
 6372 0649 00       		.byte	0
 6373 064a 1A       		.uleb128 0x1a
 6374 064b 13010000 		.4byte	.LASF80
 6375 064f 01       		.byte	0x1
 6376 0650 8C01     		.2byte	0x18c
 6377 0652 00000000 		.4byte	.LFB52
 6378 0656 7C000000 		.4byte	.LFE52-.LFB52
 6379 065a 01       		.uleb128 0x1
 6380 065b 9C       		.byte	0x9c
 6381 065c 6E060000 		.4byte	0x66e
 6382 0660 19       		.uleb128 0x19
 6383 0661 7800     		.ascii	"x\000"
 6384 0663 01       		.byte	0x1
 6385 0664 8C01     		.2byte	0x18c
 6386 0666 A2000000 		.4byte	0xa2
 6387 066a 02       		.uleb128 0x2
 6388 066b 91       		.byte	0x91
 6389 066c 77       		.sleb128 -9
 6390 066d 00       		.byte	0
 6391 066e 1C       		.uleb128 0x1c
 6392 066f 4B020000 		.4byte	.LASF81
 6393 0673 01       		.byte	0x1
 6394 0674 9D01     		.2byte	0x19d
 6395 0676 00000000 		.4byte	.LFB53
 6396 067a CC000000 		.4byte	.LFE53-.LFB53
 6397 067e 01       		.uleb128 0x1
 6398 067f 9C       		.byte	0x9c
 6399 0680 AF060000 		.4byte	0x6af
 6400 0684 19       		.uleb128 0x19
 6401 0685 707800   		.ascii	"px\000"
 6402 0688 01       		.byte	0x1
 6403 0689 9D01     		.2byte	0x19d
 6404 068b AF060000 		.4byte	0x6af
 6405 068f 02       		.uleb128 0x2
 6406 0690 91       		.byte	0x91
 6407 0691 6C       		.sleb128 -20
 6408 0692 19       		.uleb128 0x19
 6409 0693 707900   		.ascii	"py\000"
 6410 0696 01       		.byte	0x1
ARM GAS  C:\Users\jdrd3\AppData\Local\Temp\ccQ8iyfh.s 			page 126


 6411 0697 9D01     		.2byte	0x19d
 6412 0699 AF060000 		.4byte	0x6af
 6413 069d 02       		.uleb128 0x2
 6414 069e 91       		.byte	0x91
 6415 069f 68       		.sleb128 -24
 6416 06a0 16       		.uleb128 0x16
 6417 06a1 793000   		.ascii	"y0\000"
 6418 06a4 01       		.byte	0x1
 6419 06a5 9F01     		.2byte	0x19f
 6420 06a7 AD000000 		.4byte	0xad
 6421 06ab 02       		.uleb128 0x2
 6422 06ac 91       		.byte	0x91
 6423 06ad 76       		.sleb128 -10
 6424 06ae 00       		.byte	0
 6425 06af 05       		.uleb128 0x5
 6426 06b0 04       		.byte	0x4
 6427 06b1 AD000000 		.4byte	0xad
 6428 06b5 17       		.uleb128 0x17
 6429 06b6 00000000 		.4byte	.LASF82
 6430 06ba 01       		.byte	0x1
 6431 06bb B101     		.2byte	0x1b1
 6432 06bd 00000000 		.4byte	.LFB54
 6433 06c1 88000000 		.4byte	.LFE54-.LFB54
 6434 06c5 01       		.uleb128 0x1
 6435 06c6 9C       		.byte	0x9c
 6436 06c7 F5060000 		.4byte	0x6f5
 6437 06cb 19       		.uleb128 0x19
 6438 06cc 7800     		.ascii	"x\000"
 6439 06ce 01       		.byte	0x1
 6440 06cf B101     		.2byte	0x1b1
 6441 06d1 AD000000 		.4byte	0xad
 6442 06d5 02       		.uleb128 0x2
 6443 06d6 91       		.byte	0x91
 6444 06d7 6E       		.sleb128 -18
 6445 06d8 19       		.uleb128 0x19
 6446 06d9 7900     		.ascii	"y\000"
 6447 06db 01       		.byte	0x1
 6448 06dc B101     		.2byte	0x1b1
 6449 06de AD000000 		.4byte	0xad
 6450 06e2 02       		.uleb128 0x2
 6451 06e3 91       		.byte	0x91
 6452 06e4 6C       		.sleb128 -20
 6453 06e5 18       		.uleb128 0x18
 6454 06e6 83040000 		.4byte	.LASF50
 6455 06ea 01       		.byte	0x1
 6456 06eb B101     		.2byte	0x1b1
 6457 06ed B8000000 		.4byte	0xb8
 6458 06f1 02       		.uleb128 0x2
 6459 06f2 91       		.byte	0x91
 6460 06f3 6A       		.sleb128 -22
 6461 06f4 00       		.byte	0
 6462 06f5 1D       		.uleb128 0x1d
 6463 06f6 30010000 		.4byte	.LASF83
 6464 06fa 01       		.byte	0x1
 6465 06fb BC01     		.2byte	0x1bc
 6466 06fd 00000000 		.4byte	.LFB55
 6467 0701 2C020000 		.4byte	.LFE55-.LFB55
ARM GAS  C:\Users\jdrd3\AppData\Local\Temp\ccQ8iyfh.s 			page 127


 6468 0705 01       		.uleb128 0x1
 6469 0706 9C       		.byte	0x9c
 6470 0707 6A070000 		.4byte	0x76a
 6471 070b 19       		.uleb128 0x19
 6472 070c 783100   		.ascii	"x1\000"
 6473 070f 01       		.byte	0x1
 6474 0710 BC01     		.2byte	0x1bc
 6475 0712 AD000000 		.4byte	0xad
 6476 0716 02       		.uleb128 0x2
 6477 0717 91       		.byte	0x91
 6478 0718 66       		.sleb128 -26
 6479 0719 19       		.uleb128 0x19
 6480 071a 793100   		.ascii	"y1\000"
 6481 071d 01       		.byte	0x1
 6482 071e BC01     		.2byte	0x1bc
 6483 0720 AD000000 		.4byte	0xad
 6484 0724 02       		.uleb128 0x2
 6485 0725 91       		.byte	0x91
 6486 0726 64       		.sleb128 -28
 6487 0727 19       		.uleb128 0x19
 6488 0728 783200   		.ascii	"x2\000"
 6489 072b 01       		.byte	0x1
 6490 072c BC01     		.2byte	0x1bc
 6491 072e AD000000 		.4byte	0xad
 6492 0732 02       		.uleb128 0x2
 6493 0733 91       		.byte	0x91
 6494 0734 62       		.sleb128 -30
 6495 0735 19       		.uleb128 0x19
 6496 0736 793200   		.ascii	"y2\000"
 6497 0739 01       		.byte	0x1
 6498 073a BC01     		.2byte	0x1bc
 6499 073c AD000000 		.4byte	0xad
 6500 0740 02       		.uleb128 0x2
 6501 0741 91       		.byte	0x91
 6502 0742 60       		.sleb128 -32
 6503 0743 18       		.uleb128 0x18
 6504 0744 83040000 		.4byte	.LASF50
 6505 0748 01       		.byte	0x1
 6506 0749 BC01     		.2byte	0x1bc
 6507 074b B8000000 		.4byte	0xb8
 6508 074f 02       		.uleb128 0x2
 6509 0750 91       		.byte	0x91
 6510 0751 00       		.sleb128 0
 6511 0752 14       		.uleb128 0x14
 6512 0753 A2010000 		.4byte	.LBB6
 6513 0757 3C000000 		.4byte	.LBE6-.LBB6
 6514 075b 16       		.uleb128 0x16
 6515 075c 7400     		.ascii	"t\000"
 6516 075e 01       		.byte	0x1
 6517 075f D601     		.2byte	0x1d6
 6518 0761 AD000000 		.4byte	0xad
 6519 0765 02       		.uleb128 0x2
 6520 0766 91       		.byte	0x91
 6521 0767 6E       		.sleb128 -18
 6522 0768 00       		.byte	0
 6523 0769 00       		.byte	0
 6524 076a 17       		.uleb128 0x17
ARM GAS  C:\Users\jdrd3\AppData\Local\Temp\ccQ8iyfh.s 			page 128


 6525 076b 0A030000 		.4byte	.LASF84
 6526 076f 01       		.byte	0x1
 6527 0770 DE01     		.2byte	0x1de
 6528 0772 00000000 		.4byte	.LFB56
 6529 0776 4A020000 		.4byte	.LFE56-.LFB56
 6530 077a 01       		.uleb128 0x1
 6531 077b 9C       		.byte	0x9c
 6532 077c 1E080000 		.4byte	0x81e
 6533 0780 19       		.uleb128 0x19
 6534 0781 783000   		.ascii	"x0\000"
 6535 0784 01       		.byte	0x1
 6536 0785 DE01     		.2byte	0x1de
 6537 0787 AD000000 		.4byte	0xad
 6538 078b 02       		.uleb128 0x2
 6539 078c 91       		.byte	0x91
 6540 078d 5E       		.sleb128 -34
 6541 078e 19       		.uleb128 0x19
 6542 078f 793000   		.ascii	"y0\000"
 6543 0792 01       		.byte	0x1
 6544 0793 DE01     		.2byte	0x1de
 6545 0795 AD000000 		.4byte	0xad
 6546 0799 02       		.uleb128 0x2
 6547 079a 91       		.byte	0x91
 6548 079b 5C       		.sleb128 -36
 6549 079c 19       		.uleb128 0x19
 6550 079d 783100   		.ascii	"x1\000"
 6551 07a0 01       		.byte	0x1
 6552 07a1 DE01     		.2byte	0x1de
 6553 07a3 AD000000 		.4byte	0xad
 6554 07a7 02       		.uleb128 0x2
 6555 07a8 91       		.byte	0x91
 6556 07a9 5A       		.sleb128 -38
 6557 07aa 19       		.uleb128 0x19
 6558 07ab 793100   		.ascii	"y1\000"
 6559 07ae 01       		.byte	0x1
 6560 07af DE01     		.2byte	0x1de
 6561 07b1 AD000000 		.4byte	0xad
 6562 07b5 02       		.uleb128 0x2
 6563 07b6 91       		.byte	0x91
 6564 07b7 58       		.sleb128 -40
 6565 07b8 18       		.uleb128 0x18
 6566 07b9 83040000 		.4byte	.LASF50
 6567 07bd 01       		.byte	0x1
 6568 07be DE01     		.2byte	0x1de
 6569 07c0 B8000000 		.4byte	0xb8
 6570 07c4 02       		.uleb128 0x2
 6571 07c5 91       		.byte	0x91
 6572 07c6 00       		.sleb128 0
 6573 07c7 16       		.uleb128 0x16
 6574 07c8 7400     		.ascii	"t\000"
 6575 07ca 01       		.byte	0x1
 6576 07cb E601     		.2byte	0x1e6
 6577 07cd AD000000 		.4byte	0xad
 6578 07d1 02       		.uleb128 0x2
 6579 07d2 91       		.byte	0x91
 6580 07d3 68       		.sleb128 -24
 6581 07d4 15       		.uleb128 0x15
ARM GAS  C:\Users\jdrd3\AppData\Local\Temp\ccQ8iyfh.s 			page 129


 6582 07d5 5C030000 		.4byte	.LASF85
 6583 07d9 01       		.byte	0x1
 6584 07da E801     		.2byte	0x1e8
 6585 07dc AD000000 		.4byte	0xad
 6586 07e0 02       		.uleb128 0x2
 6587 07e1 91       		.byte	0x91
 6588 07e2 6A       		.sleb128 -22
 6589 07e3 16       		.uleb128 0x16
 6590 07e4 647800   		.ascii	"dx\000"
 6591 07e7 01       		.byte	0x1
 6592 07e8 F101     		.2byte	0x1f1
 6593 07ea AD000000 		.4byte	0xad
 6594 07ee 02       		.uleb128 0x2
 6595 07ef 91       		.byte	0x91
 6596 07f0 66       		.sleb128 -26
 6597 07f1 16       		.uleb128 0x16
 6598 07f2 647900   		.ascii	"dy\000"
 6599 07f5 01       		.byte	0x1
 6600 07f6 F101     		.2byte	0x1f1
 6601 07f8 AD000000 		.4byte	0xad
 6602 07fc 02       		.uleb128 0x2
 6603 07fd 91       		.byte	0x91
 6604 07fe 64       		.sleb128 -28
 6605 07ff 16       		.uleb128 0x16
 6606 0800 65727200 		.ascii	"err\000"
 6607 0804 01       		.byte	0x1
 6608 0805 F401     		.2byte	0x1f4
 6609 0807 AD000000 		.4byte	0xad
 6610 080b 02       		.uleb128 0x2
 6611 080c 91       		.byte	0x91
 6612 080d 6E       		.sleb128 -18
 6613 080e 15       		.uleb128 0x15
 6614 080f B8040000 		.4byte	.LASF86
 6615 0813 01       		.byte	0x1
 6616 0814 F501     		.2byte	0x1f5
 6617 0816 AD000000 		.4byte	0xad
 6618 081a 02       		.uleb128 0x2
 6619 081b 91       		.byte	0x91
 6620 081c 6C       		.sleb128 -20
 6621 081d 00       		.byte	0
 6622 081e 17       		.uleb128 0x17
 6623 081f 48030000 		.4byte	.LASF87
 6624 0823 01       		.byte	0x1
 6625 0824 0902     		.2byte	0x209
 6626 0826 00000000 		.4byte	.LFB57
 6627 082a 2A010000 		.4byte	.LFE57-.LFB57
 6628 082e 01       		.uleb128 0x1
 6629 082f 9C       		.byte	0x9c
 6630 0830 78080000 		.4byte	0x878
 6631 0834 19       		.uleb128 0x19
 6632 0835 7800     		.ascii	"x\000"
 6633 0837 01       		.byte	0x1
 6634 0838 0902     		.2byte	0x209
 6635 083a AD000000 		.4byte	0xad
 6636 083e 02       		.uleb128 0x2
 6637 083f 91       		.byte	0x91
 6638 0840 6E       		.sleb128 -18
ARM GAS  C:\Users\jdrd3\AppData\Local\Temp\ccQ8iyfh.s 			page 130


 6639 0841 19       		.uleb128 0x19
 6640 0842 7900     		.ascii	"y\000"
 6641 0844 01       		.byte	0x1
 6642 0845 0902     		.2byte	0x209
 6643 0847 AD000000 		.4byte	0xad
 6644 084b 02       		.uleb128 0x2
 6645 084c 91       		.byte	0x91
 6646 084d 6C       		.sleb128 -20
 6647 084e 19       		.uleb128 0x19
 6648 084f 7700     		.ascii	"w\000"
 6649 0851 01       		.byte	0x1
 6650 0852 0902     		.2byte	0x209
 6651 0854 AD000000 		.4byte	0xad
 6652 0858 02       		.uleb128 0x2
 6653 0859 91       		.byte	0x91
 6654 085a 6A       		.sleb128 -22
 6655 085b 19       		.uleb128 0x19
 6656 085c 6800     		.ascii	"h\000"
 6657 085e 01       		.byte	0x1
 6658 085f 0902     		.2byte	0x209
 6659 0861 AD000000 		.4byte	0xad
 6660 0865 02       		.uleb128 0x2
 6661 0866 91       		.byte	0x91
 6662 0867 68       		.sleb128 -24
 6663 0868 18       		.uleb128 0x18
 6664 0869 83040000 		.4byte	.LASF50
 6665 086d 01       		.byte	0x1
 6666 086e 0902     		.2byte	0x209
 6667 0870 B8000000 		.4byte	0xb8
 6668 0874 02       		.uleb128 0x2
 6669 0875 91       		.byte	0x91
 6670 0876 00       		.sleb128 0
 6671 0877 00       		.byte	0
 6672 0878 17       		.uleb128 0x17
 6673 0879 36040000 		.4byte	.LASF88
 6674 087d 01       		.byte	0x1
 6675 087e 1102     		.2byte	0x211
 6676 0880 00000000 		.4byte	.LFB58
 6677 0884 28010000 		.4byte	.LFE58-.LFB58
 6678 0888 01       		.uleb128 0x1
 6679 0889 9C       		.byte	0x9c
 6680 088a DF080000 		.4byte	0x8df
 6681 088e 19       		.uleb128 0x19
 6682 088f 7800     		.ascii	"x\000"
 6683 0891 01       		.byte	0x1
 6684 0892 1102     		.2byte	0x211
 6685 0894 AD000000 		.4byte	0xad
 6686 0898 02       		.uleb128 0x2
 6687 0899 91       		.byte	0x91
 6688 089a 66       		.sleb128 -26
 6689 089b 19       		.uleb128 0x19
 6690 089c 7900     		.ascii	"y\000"
 6691 089e 01       		.byte	0x1
 6692 089f 1102     		.2byte	0x211
 6693 08a1 AD000000 		.4byte	0xad
 6694 08a5 02       		.uleb128 0x2
 6695 08a6 91       		.byte	0x91
ARM GAS  C:\Users\jdrd3\AppData\Local\Temp\ccQ8iyfh.s 			page 131


 6696 08a7 64       		.sleb128 -28
 6697 08a8 19       		.uleb128 0x19
 6698 08a9 7700     		.ascii	"w\000"
 6699 08ab 01       		.byte	0x1
 6700 08ac 1102     		.2byte	0x211
 6701 08ae AD000000 		.4byte	0xad
 6702 08b2 02       		.uleb128 0x2
 6703 08b3 91       		.byte	0x91
 6704 08b4 62       		.sleb128 -30
 6705 08b5 19       		.uleb128 0x19
 6706 08b6 6800     		.ascii	"h\000"
 6707 08b8 01       		.byte	0x1
 6708 08b9 1102     		.2byte	0x211
 6709 08bb AD000000 		.4byte	0xad
 6710 08bf 02       		.uleb128 0x2
 6711 08c0 91       		.byte	0x91
 6712 08c1 60       		.sleb128 -32
 6713 08c2 18       		.uleb128 0x18
 6714 08c3 83040000 		.4byte	.LASF50
 6715 08c7 01       		.byte	0x1
 6716 08c8 1102     		.2byte	0x211
 6717 08ca B8000000 		.4byte	0xb8
 6718 08ce 02       		.uleb128 0x2
 6719 08cf 91       		.byte	0x91
 6720 08d0 00       		.sleb128 0
 6721 08d1 16       		.uleb128 0x16
 6722 08d2 6900     		.ascii	"i\000"
 6723 08d4 01       		.byte	0x1
 6724 08d5 1202     		.2byte	0x212
 6725 08d7 AD000000 		.4byte	0xad
 6726 08db 02       		.uleb128 0x2
 6727 08dc 91       		.byte	0x91
 6728 08dd 6E       		.sleb128 -18
 6729 08de 00       		.byte	0
 6730 08df 17       		.uleb128 0x17
 6731 08e0 65020000 		.4byte	.LASF89
 6732 08e4 01       		.byte	0x1
 6733 08e5 2002     		.2byte	0x220
 6734 08e7 00000000 		.4byte	.LFB59
 6735 08eb CC020000 		.4byte	.LFE59-.LFB59
 6736 08ef 01       		.uleb128 0x1
 6737 08f0 9C       		.byte	0x9c
 6738 08f1 73090000 		.4byte	0x973
 6739 08f5 19       		.uleb128 0x19
 6740 08f6 783000   		.ascii	"x0\000"
 6741 08f9 01       		.byte	0x1
 6742 08fa 2002     		.2byte	0x220
 6743 08fc AD000000 		.4byte	0xad
 6744 0900 02       		.uleb128 0x2
 6745 0901 91       		.byte	0x91
 6746 0902 5E       		.sleb128 -34
 6747 0903 19       		.uleb128 0x19
 6748 0904 793000   		.ascii	"y0\000"
 6749 0907 01       		.byte	0x1
 6750 0908 2002     		.2byte	0x220
 6751 090a AD000000 		.4byte	0xad
 6752 090e 02       		.uleb128 0x2
ARM GAS  C:\Users\jdrd3\AppData\Local\Temp\ccQ8iyfh.s 			page 132


 6753 090f 91       		.byte	0x91
 6754 0910 5C       		.sleb128 -36
 6755 0911 19       		.uleb128 0x19
 6756 0912 7200     		.ascii	"r\000"
 6757 0914 01       		.byte	0x1
 6758 0915 2002     		.2byte	0x220
 6759 0917 AD000000 		.4byte	0xad
 6760 091b 02       		.uleb128 0x2
 6761 091c 91       		.byte	0x91
 6762 091d 5A       		.sleb128 -38
 6763 091e 18       		.uleb128 0x18
 6764 091f 83040000 		.4byte	.LASF50
 6765 0923 01       		.byte	0x1
 6766 0924 2002     		.2byte	0x220
 6767 0926 B8000000 		.4byte	0xb8
 6768 092a 02       		.uleb128 0x2
 6769 092b 91       		.byte	0x91
 6770 092c 58       		.sleb128 -40
 6771 092d 16       		.uleb128 0x16
 6772 092e 6600     		.ascii	"f\000"
 6773 0930 01       		.byte	0x1
 6774 0931 2202     		.2byte	0x222
 6775 0933 AD000000 		.4byte	0xad
 6776 0937 02       		.uleb128 0x2
 6777 0938 91       		.byte	0x91
 6778 0939 6E       		.sleb128 -18
 6779 093a 15       		.uleb128 0x15
 6780 093b 67050000 		.4byte	.LASF90
 6781 093f 01       		.byte	0x1
 6782 0940 2302     		.2byte	0x223
 6783 0942 AD000000 		.4byte	0xad
 6784 0946 02       		.uleb128 0x2
 6785 0947 91       		.byte	0x91
 6786 0948 6C       		.sleb128 -20
 6787 0949 15       		.uleb128 0x15
 6788 094a 6D050000 		.4byte	.LASF91
 6789 094e 01       		.byte	0x1
 6790 094f 2402     		.2byte	0x224
 6791 0951 AD000000 		.4byte	0xad
 6792 0955 02       		.uleb128 0x2
 6793 0956 91       		.byte	0x91
 6794 0957 6A       		.sleb128 -22
 6795 0958 16       		.uleb128 0x16
 6796 0959 7800     		.ascii	"x\000"
 6797 095b 01       		.byte	0x1
 6798 095c 2502     		.2byte	0x225
 6799 095e AD000000 		.4byte	0xad
 6800 0962 02       		.uleb128 0x2
 6801 0963 91       		.byte	0x91
 6802 0964 68       		.sleb128 -24
 6803 0965 16       		.uleb128 0x16
 6804 0966 7900     		.ascii	"y\000"
 6805 0968 01       		.byte	0x1
 6806 0969 2602     		.2byte	0x226
 6807 096b AD000000 		.4byte	0xad
 6808 096f 02       		.uleb128 0x2
 6809 0970 91       		.byte	0x91
ARM GAS  C:\Users\jdrd3\AppData\Local\Temp\ccQ8iyfh.s 			page 133


 6810 0971 66       		.sleb128 -26
 6811 0972 00       		.byte	0
 6812 0973 17       		.uleb128 0x17
 6813 0974 07020000 		.4byte	.LASF92
 6814 0978 01       		.byte	0x1
 6815 0979 3F02     		.2byte	0x23f
 6816 097b 00000000 		.4byte	.LFB60
 6817 097f A8000000 		.4byte	.LFE60-.LFB60
 6818 0983 01       		.uleb128 0x1
 6819 0984 9C       		.byte	0x9c
 6820 0985 ED090000 		.4byte	0x9ed
 6821 0989 19       		.uleb128 0x19
 6822 098a 783000   		.ascii	"x0\000"
 6823 098d 01       		.byte	0x1
 6824 098e 3F02     		.2byte	0x23f
 6825 0990 AD000000 		.4byte	0xad
 6826 0994 02       		.uleb128 0x2
 6827 0995 91       		.byte	0x91
 6828 0996 6E       		.sleb128 -18
 6829 0997 19       		.uleb128 0x19
 6830 0998 793000   		.ascii	"y0\000"
 6831 099b 01       		.byte	0x1
 6832 099c 3F02     		.2byte	0x23f
 6833 099e AD000000 		.4byte	0xad
 6834 09a2 02       		.uleb128 0x2
 6835 09a3 91       		.byte	0x91
 6836 09a4 6C       		.sleb128 -20
 6837 09a5 19       		.uleb128 0x19
 6838 09a6 783100   		.ascii	"x1\000"
 6839 09a9 01       		.byte	0x1
 6840 09aa 3F02     		.2byte	0x23f
 6841 09ac AD000000 		.4byte	0xad
 6842 09b0 02       		.uleb128 0x2
 6843 09b1 91       		.byte	0x91
 6844 09b2 6A       		.sleb128 -22
 6845 09b3 19       		.uleb128 0x19
 6846 09b4 793100   		.ascii	"y1\000"
 6847 09b7 01       		.byte	0x1
 6848 09b8 3F02     		.2byte	0x23f
 6849 09ba AD000000 		.4byte	0xad
 6850 09be 02       		.uleb128 0x2
 6851 09bf 91       		.byte	0x91
 6852 09c0 68       		.sleb128 -24
 6853 09c1 19       		.uleb128 0x19
 6854 09c2 783200   		.ascii	"x2\000"
 6855 09c5 01       		.byte	0x1
 6856 09c6 3F02     		.2byte	0x23f
 6857 09c8 AD000000 		.4byte	0xad
 6858 09cc 02       		.uleb128 0x2
 6859 09cd 91       		.byte	0x91
 6860 09ce 00       		.sleb128 0
 6861 09cf 19       		.uleb128 0x19
 6862 09d0 793200   		.ascii	"y2\000"
 6863 09d3 01       		.byte	0x1
 6864 09d4 3F02     		.2byte	0x23f
 6865 09d6 AD000000 		.4byte	0xad
 6866 09da 02       		.uleb128 0x2
ARM GAS  C:\Users\jdrd3\AppData\Local\Temp\ccQ8iyfh.s 			page 134


 6867 09db 91       		.byte	0x91
 6868 09dc 04       		.sleb128 4
 6869 09dd 18       		.uleb128 0x18
 6870 09de 83040000 		.4byte	.LASF50
 6871 09e2 01       		.byte	0x1
 6872 09e3 3F02     		.2byte	0x23f
 6873 09e5 B8000000 		.4byte	0xb8
 6874 09e9 02       		.uleb128 0x2
 6875 09ea 91       		.byte	0x91
 6876 09eb 08       		.sleb128 8
 6877 09ec 00       		.byte	0
 6878 09ed 17       		.uleb128 0x17
 6879 09ee 2E050000 		.4byte	.LASF93
 6880 09f2 01       		.byte	0x1
 6881 09f3 4802     		.2byte	0x248
 6882 09f5 00000000 		.4byte	.LFB61
 6883 09f9 94020000 		.4byte	.LFE61-.LFB61
 6884 09fd 01       		.uleb128 0x1
 6885 09fe 9C       		.byte	0x9c
 6886 09ff 8A0A0000 		.4byte	0xa8a
 6887 0a03 19       		.uleb128 0x19
 6888 0a04 7800     		.ascii	"x\000"
 6889 0a06 01       		.byte	0x1
 6890 0a07 4802     		.2byte	0x248
 6891 0a09 AD000000 		.4byte	0xad
 6892 0a0d 02       		.uleb128 0x2
 6893 0a0e 91       		.byte	0x91
 6894 0a0f 66       		.sleb128 -26
 6895 0a10 19       		.uleb128 0x19
 6896 0a11 7900     		.ascii	"y\000"
 6897 0a13 01       		.byte	0x1
 6898 0a14 4802     		.2byte	0x248
 6899 0a16 AD000000 		.4byte	0xad
 6900 0a1a 02       		.uleb128 0x2
 6901 0a1b 91       		.byte	0x91
 6902 0a1c 64       		.sleb128 -28
 6903 0a1d 19       		.uleb128 0x19
 6904 0a1e 6300     		.ascii	"c\000"
 6905 0a20 01       		.byte	0x1
 6906 0a21 4802     		.2byte	0x248
 6907 0a23 42000000 		.4byte	0x42
 6908 0a27 02       		.uleb128 0x2
 6909 0a28 91       		.byte	0x91
 6910 0a29 63       		.sleb128 -29
 6911 0a2a 18       		.uleb128 0x18
 6912 0a2b 83040000 		.4byte	.LASF50
 6913 0a2f 01       		.byte	0x1
 6914 0a30 4802     		.2byte	0x248
 6915 0a32 B8000000 		.4byte	0xb8
 6916 0a36 02       		.uleb128 0x2
 6917 0a37 91       		.byte	0x91
 6918 0a38 60       		.sleb128 -32
 6919 0a39 19       		.uleb128 0x19
 6920 0a3a 626700   		.ascii	"bg\000"
 6921 0a3d 01       		.byte	0x1
 6922 0a3e 4802     		.2byte	0x248
 6923 0a40 B8000000 		.4byte	0xb8
ARM GAS  C:\Users\jdrd3\AppData\Local\Temp\ccQ8iyfh.s 			page 135


 6924 0a44 02       		.uleb128 0x2
 6925 0a45 91       		.byte	0x91
 6926 0a46 00       		.sleb128 0
 6927 0a47 18       		.uleb128 0x18
 6928 0a48 AE030000 		.4byte	.LASF47
 6929 0a4c 01       		.byte	0x1
 6930 0a4d 4802     		.2byte	0x248
 6931 0a4f A2000000 		.4byte	0xa2
 6932 0a53 02       		.uleb128 0x2
 6933 0a54 91       		.byte	0x91
 6934 0a55 04       		.sleb128 4
 6935 0a56 16       		.uleb128 0x16
 6936 0a57 6900     		.ascii	"i\000"
 6937 0a59 01       		.byte	0x1
 6938 0a5a 4F02     		.2byte	0x24f
 6939 0a5c 97000000 		.4byte	0x97
 6940 0a60 02       		.uleb128 0x2
 6941 0a61 91       		.byte	0x91
 6942 0a62 6F       		.sleb128 -17
 6943 0a63 14       		.uleb128 0x14
 6944 0a64 92000000 		.4byte	.LBB7
 6945 0a68 CA010000 		.4byte	.LBE7-.LBB7
 6946 0a6c 15       		.uleb128 0x15
 6947 0a6d 29050000 		.4byte	.LASF94
 6948 0a71 01       		.byte	0x1
 6949 0a72 5102     		.2byte	0x251
 6950 0a74 A2000000 		.4byte	0xa2
 6951 0a78 02       		.uleb128 0x2
 6952 0a79 91       		.byte	0x91
 6953 0a7a 6E       		.sleb128 -18
 6954 0a7b 16       		.uleb128 0x16
 6955 0a7c 6A00     		.ascii	"j\000"
 6956 0a7e 01       		.byte	0x1
 6957 0a7f 5602     		.2byte	0x256
 6958 0a81 97000000 		.4byte	0x97
 6959 0a85 02       		.uleb128 0x2
 6960 0a86 91       		.byte	0x91
 6961 0a87 6D       		.sleb128 -19
 6962 0a88 00       		.byte	0
 6963 0a89 00       		.byte	0
 6964 0a8a 17       		.uleb128 0x17
 6965 0a8b 6A040000 		.4byte	.LASF95
 6966 0a8f 01       		.byte	0x1
 6967 0a90 6A02     		.2byte	0x26a
 6968 0a92 00000000 		.4byte	.LFB62
 6969 0a96 00010000 		.4byte	.LFE62-.LFB62
 6970 0a9a 01       		.uleb128 0x1
 6971 0a9b 9C       		.byte	0x9c
 6972 0a9c AF0A0000 		.4byte	0xaaf
 6973 0aa0 19       		.uleb128 0x19
 6974 0aa1 636800   		.ascii	"ch\000"
 6975 0aa4 01       		.byte	0x1
 6976 0aa5 6A02     		.2byte	0x26a
 6977 0aa7 A2000000 		.4byte	0xa2
 6978 0aab 02       		.uleb128 0x2
 6979 0aac 91       		.byte	0x91
 6980 0aad 6F       		.sleb128 -17
ARM GAS  C:\Users\jdrd3\AppData\Local\Temp\ccQ8iyfh.s 			page 136


 6981 0aae 00       		.byte	0
 6982 0aaf 17       		.uleb128 0x17
 6983 0ab0 AE040000 		.4byte	.LASF96
 6984 0ab4 01       		.byte	0x1
 6985 0ab5 7A02     		.2byte	0x27a
 6986 0ab7 00000000 		.4byte	.LFB63
 6987 0abb 42000000 		.4byte	.LFE63-.LFB63
 6988 0abf 01       		.uleb128 0x1
 6989 0ac0 9C       		.byte	0x9c
 6990 0ac1 EF0A0000 		.4byte	0xaef
 6991 0ac5 19       		.uleb128 0x19
 6992 0ac6 7300     		.ascii	"s\000"
 6993 0ac8 01       		.byte	0x1
 6994 0ac9 7A02     		.2byte	0x27a
 6995 0acb 07010000 		.4byte	0x107
 6996 0acf 02       		.uleb128 0x2
 6997 0ad0 91       		.byte	0x91
 6998 0ad1 6C       		.sleb128 -20
 6999 0ad2 16       		.uleb128 0x16
 7000 0ad3 6C656E00 		.ascii	"len\000"
 7001 0ad7 01       		.byte	0x1
 7002 0ad8 7C02     		.2byte	0x27c
 7003 0ada 90000000 		.4byte	0x90
 7004 0ade 02       		.uleb128 0x2
 7005 0adf 91       		.byte	0x91
 7006 0ae0 70       		.sleb128 -16
 7007 0ae1 16       		.uleb128 0x16
 7008 0ae2 6900     		.ascii	"i\000"
 7009 0ae4 01       		.byte	0x1
 7010 0ae5 7D02     		.2byte	0x27d
 7011 0ae7 90000000 		.4byte	0x90
 7012 0aeb 02       		.uleb128 0x2
 7013 0aec 91       		.byte	0x91
 7014 0aed 74       		.sleb128 -12
 7015 0aee 00       		.byte	0
 7016 0aef 17       		.uleb128 0x17
 7017 0af0 5E040000 		.4byte	.LASF97
 7018 0af4 01       		.byte	0x1
 7019 0af5 8302     		.2byte	0x283
 7020 0af7 00000000 		.4byte	.LFB64
 7021 0afb 1E000000 		.4byte	.LFE64-.LFB64
 7022 0aff 01       		.uleb128 0x1
 7023 0b00 9C       		.byte	0x9c
 7024 0b01 130B0000 		.4byte	0xb13
 7025 0b05 19       		.uleb128 0x19
 7026 0b06 7300     		.ascii	"s\000"
 7027 0b08 01       		.byte	0x1
 7028 0b09 8302     		.2byte	0x283
 7029 0b0b 07010000 		.4byte	0x107
 7030 0b0f 02       		.uleb128 0x2
 7031 0b10 91       		.byte	0x91
 7032 0b11 74       		.sleb128 -12
 7033 0b12 00       		.byte	0
 7034 0b13 0C       		.uleb128 0xc
 7035 0b14 240B0000 		.4byte	0xb24
 7036 0b18 240B0000 		.4byte	0xb24
 7037 0b1c 1E       		.uleb128 0x1e
ARM GAS  C:\Users\jdrd3\AppData\Local\Temp\ccQ8iyfh.s 			page 137


 7038 0b1d 00010000 		.4byte	0x100
 7039 0b21 FA04     		.2byte	0x4fa
 7040 0b23 00       		.byte	0
 7041 0b24 06       		.uleb128 0x6
 7042 0b25 42000000 		.4byte	0x42
 7043 0b29 0B       		.uleb128 0xb
 7044 0b2a BE040000 		.4byte	.LASF98
 7045 0b2e 06       		.byte	0x6
 7046 0b2f 05       		.byte	0x5
 7047 0b30 3A0B0000 		.4byte	0xb3a
 7048 0b34 05       		.uleb128 0x5
 7049 0b35 03       		.byte	0x3
 7050 0b36 00000000 		.4byte	font
 7051 0b3a 06       		.uleb128 0x6
 7052 0b3b 130B0000 		.4byte	0xb13
 7053 0b3f 0B       		.uleb128 0xb
 7054 0b40 E2030000 		.4byte	.LASF99
 7055 0b44 01       		.byte	0x1
 7056 0b45 5B       		.byte	0x5b
 7057 0b46 C3000000 		.4byte	0xc3
 7058 0b4a 05       		.uleb128 0x5
 7059 0b4b 03       		.byte	0x3
 7060 0b4c 00000000 		.4byte	_i2caddr
 7061 0b50 0C       		.uleb128 0xc
 7062 0b51 A2000000 		.4byte	0xa2
 7063 0b55 610B0000 		.4byte	0xb61
 7064 0b59 1E       		.uleb128 0x1e
 7065 0b5a 00010000 		.4byte	0x100
 7066 0b5e 0004     		.2byte	0x400
 7067 0b60 00       		.byte	0
 7068 0b61 0B       		.uleb128 0xb
 7069 0b62 FB020000 		.4byte	.LASF100
 7070 0b66 01       		.byte	0x1
 7071 0b67 5E       		.byte	0x5e
 7072 0b68 500B0000 		.4byte	0xb50
 7073 0b6c 05       		.uleb128 0x5
 7074 0b6d 03       		.byte	0x3
 7075 0b6e 00000000 		.4byte	SSD1306_buffer
 7076 0b72 0B       		.uleb128 0xb
 7077 0b73 4A050000 		.4byte	.LASF101
 7078 0b77 01       		.byte	0x1
 7079 0b78 60       		.byte	0x60
 7080 0b79 6E040000 		.4byte	0x46e
 7081 0b7d 05       		.uleb128 0x5
 7082 0b7e 03       		.byte	0x3
 7083 0b7f 04040000 		.4byte	_displaybuf
 7084 0b83 0B       		.uleb128 0xb
 7085 0b84 B3030000 		.4byte	.LASF102
 7086 0b88 01       		.byte	0x1
 7087 0b89 61       		.byte	0x61
 7088 0b8a B8000000 		.4byte	0xb8
 7089 0b8e 05       		.uleb128 0x5
 7090 0b8f 03       		.byte	0x3
 7091 0b90 08040000 		.4byte	_displaybuf_size
 7092 0b94 15       		.uleb128 0x15
 7093 0b95 55030000 		.4byte	.LASF103
 7094 0b99 01       		.byte	0x1
ARM GAS  C:\Users\jdrd3\AppData\Local\Temp\ccQ8iyfh.s 			page 138


 7095 0b9a 5201     		.2byte	0x152
 7096 0b9c AD000000 		.4byte	0xad
 7097 0ba0 05       		.uleb128 0x5
 7098 0ba1 03       		.byte	0x3
 7099 0ba2 02000000 		.4byte	_width
 7100 0ba6 15       		.uleb128 0x15
 7101 0ba7 A6030000 		.4byte	.LASF104
 7102 0bab 01       		.byte	0x1
 7103 0bac 5201     		.2byte	0x152
 7104 0bae AD000000 		.4byte	0xad
 7105 0bb2 05       		.uleb128 0x5
 7106 0bb3 03       		.byte	0x3
 7107 0bb4 04000000 		.4byte	_height
 7108 0bb8 15       		.uleb128 0x15
 7109 0bb9 F5010000 		.4byte	.LASF105
 7110 0bbd 01       		.byte	0x1
 7111 0bbe 5301     		.2byte	0x153
 7112 0bc0 AD000000 		.4byte	0xad
 7113 0bc4 05       		.uleb128 0x5
 7114 0bc5 03       		.byte	0x3
 7115 0bc6 06000000 		.4byte	cursor_x
 7116 0bca 15       		.uleb128 0x15
 7117 0bcb FE010000 		.4byte	.LASF106
 7118 0bcf 01       		.byte	0x1
 7119 0bd0 5301     		.2byte	0x153
 7120 0bd2 AD000000 		.4byte	0xad
 7121 0bd6 05       		.uleb128 0x5
 7122 0bd7 03       		.byte	0x3
 7123 0bd8 08000000 		.4byte	cursor_y
 7124 0bdc 15       		.uleb128 0x15
 7125 0bdd B2050000 		.4byte	.LASF107
 7126 0be1 01       		.byte	0x1
 7127 0be2 5401     		.2byte	0x154
 7128 0be4 B8000000 		.4byte	0xb8
 7129 0be8 05       		.uleb128 0x5
 7130 0be9 03       		.byte	0x3
 7131 0bea 0A000000 		.4byte	textcolor
 7132 0bee 15       		.uleb128 0x15
 7133 0bef BC050000 		.4byte	.LASF108
 7134 0bf3 01       		.byte	0x1
 7135 0bf4 5401     		.2byte	0x154
 7136 0bf6 B8000000 		.4byte	0xb8
 7137 0bfa 05       		.uleb128 0x5
 7138 0bfb 03       		.byte	0x3
 7139 0bfc 0C000000 		.4byte	textbgcolor
 7140 0c00 15       		.uleb128 0x15
 7141 0c01 18020000 		.4byte	.LASF109
 7142 0c05 01       		.byte	0x1
 7143 0c06 5501     		.2byte	0x155
 7144 0c08 A2000000 		.4byte	0xa2
 7145 0c0c 05       		.uleb128 0x5
 7146 0c0d 03       		.byte	0x3
 7147 0c0e 0E000000 		.4byte	textsize
 7148 0c12 1F       		.uleb128 0x1f
 7149 0c13 5F020000 		.4byte	.LASF110
 7150 0c17 01       		.byte	0x1
 7151 0c18 5101     		.2byte	0x151
ARM GAS  C:\Users\jdrd3\AppData\Local\Temp\ccQ8iyfh.s 			page 139


 7152 0c1a AD000000 		.4byte	0xad
 7153 0c1e 05       		.uleb128 0x5
 7154 0c1f 03       		.byte	0x3
 7155 0c20 00000000 		.4byte	WIDTH
 7156 0c24 1F       		.uleb128 0x1f
 7157 0c25 DA010000 		.4byte	.LASF111
 7158 0c29 01       		.byte	0x1
 7159 0c2a 5101     		.2byte	0x151
 7160 0c2c AD000000 		.4byte	0xad
 7161 0c30 05       		.uleb128 0x5
 7162 0c31 03       		.byte	0x3
 7163 0c32 00000000 		.4byte	HEIGHT
 7164 0c36 1F       		.uleb128 0x1f
 7165 0c37 46010000 		.4byte	.LASF112
 7166 0c3b 01       		.byte	0x1
 7167 0c3c 5601     		.2byte	0x156
 7168 0c3e A2000000 		.4byte	0xa2
 7169 0c42 05       		.uleb128 0x5
 7170 0c43 03       		.byte	0x3
 7171 0c44 00000000 		.4byte	rotation
 7172 0c48 1F       		.uleb128 0x1f
 7173 0c49 FF040000 		.4byte	.LASF113
 7174 0c4d 01       		.byte	0x1
 7175 0c4e 5701     		.2byte	0x157
 7176 0c50 A2000000 		.4byte	0xa2
 7177 0c54 05       		.uleb128 0x5
 7178 0c55 03       		.byte	0x3
 7179 0c56 00000000 		.4byte	wrap
 7180 0c5a 00       		.byte	0
 7181              		.section	.debug_abbrev,"",%progbits
 7182              	.Ldebug_abbrev0:
 7183 0000 01       		.uleb128 0x1
 7184 0001 11       		.uleb128 0x11
 7185 0002 01       		.byte	0x1
 7186 0003 25       		.uleb128 0x25
 7187 0004 0E       		.uleb128 0xe
 7188 0005 13       		.uleb128 0x13
 7189 0006 0B       		.uleb128 0xb
 7190 0007 03       		.uleb128 0x3
 7191 0008 0E       		.uleb128 0xe
 7192 0009 1B       		.uleb128 0x1b
 7193 000a 0E       		.uleb128 0xe
 7194 000b 55       		.uleb128 0x55
 7195 000c 17       		.uleb128 0x17
 7196 000d 11       		.uleb128 0x11
 7197 000e 01       		.uleb128 0x1
 7198 000f 10       		.uleb128 0x10
 7199 0010 17       		.uleb128 0x17
 7200 0011 00       		.byte	0
 7201 0012 00       		.byte	0
 7202 0013 02       		.uleb128 0x2
 7203 0014 16       		.uleb128 0x16
 7204 0015 00       		.byte	0
 7205 0016 03       		.uleb128 0x3
 7206 0017 0E       		.uleb128 0xe
 7207 0018 3A       		.uleb128 0x3a
 7208 0019 0B       		.uleb128 0xb
ARM GAS  C:\Users\jdrd3\AppData\Local\Temp\ccQ8iyfh.s 			page 140


 7209 001a 3B       		.uleb128 0x3b
 7210 001b 0B       		.uleb128 0xb
 7211 001c 49       		.uleb128 0x49
 7212 001d 13       		.uleb128 0x13
 7213 001e 00       		.byte	0
 7214 001f 00       		.byte	0
 7215 0020 03       		.uleb128 0x3
 7216 0021 24       		.uleb128 0x24
 7217 0022 00       		.byte	0
 7218 0023 0B       		.uleb128 0xb
 7219 0024 0B       		.uleb128 0xb
 7220 0025 3E       		.uleb128 0x3e
 7221 0026 0B       		.uleb128 0xb
 7222 0027 03       		.uleb128 0x3
 7223 0028 0E       		.uleb128 0xe
 7224 0029 00       		.byte	0
 7225 002a 00       		.byte	0
 7226 002b 04       		.uleb128 0x4
 7227 002c 24       		.uleb128 0x24
 7228 002d 00       		.byte	0
 7229 002e 0B       		.uleb128 0xb
 7230 002f 0B       		.uleb128 0xb
 7231 0030 3E       		.uleb128 0x3e
 7232 0031 0B       		.uleb128 0xb
 7233 0032 03       		.uleb128 0x3
 7234 0033 08       		.uleb128 0x8
 7235 0034 00       		.byte	0
 7236 0035 00       		.byte	0
 7237 0036 05       		.uleb128 0x5
 7238 0037 0F       		.uleb128 0xf
 7239 0038 00       		.byte	0
 7240 0039 0B       		.uleb128 0xb
 7241 003a 0B       		.uleb128 0xb
 7242 003b 49       		.uleb128 0x49
 7243 003c 13       		.uleb128 0x13
 7244 003d 00       		.byte	0
 7245 003e 00       		.byte	0
 7246 003f 06       		.uleb128 0x6
 7247 0040 26       		.uleb128 0x26
 7248 0041 00       		.byte	0
 7249 0042 49       		.uleb128 0x49
 7250 0043 13       		.uleb128 0x13
 7251 0044 00       		.byte	0
 7252 0045 00       		.byte	0
 7253 0046 07       		.uleb128 0x7
 7254 0047 04       		.uleb128 0x4
 7255 0048 01       		.byte	0x1
 7256 0049 0B       		.uleb128 0xb
 7257 004a 0B       		.uleb128 0xb
 7258 004b 49       		.uleb128 0x49
 7259 004c 13       		.uleb128 0x13
 7260 004d 3A       		.uleb128 0x3a
 7261 004e 0B       		.uleb128 0xb
 7262 004f 3B       		.uleb128 0x3b
 7263 0050 0B       		.uleb128 0xb
 7264 0051 01       		.uleb128 0x1
 7265 0052 13       		.uleb128 0x13
ARM GAS  C:\Users\jdrd3\AppData\Local\Temp\ccQ8iyfh.s 			page 141


 7266 0053 00       		.byte	0
 7267 0054 00       		.byte	0
 7268 0055 08       		.uleb128 0x8
 7269 0056 28       		.uleb128 0x28
 7270 0057 00       		.byte	0
 7271 0058 03       		.uleb128 0x3
 7272 0059 0E       		.uleb128 0xe
 7273 005a 1C       		.uleb128 0x1c
 7274 005b 0B       		.uleb128 0xb
 7275 005c 00       		.byte	0
 7276 005d 00       		.byte	0
 7277 005e 09       		.uleb128 0x9
 7278 005f 2E       		.uleb128 0x2e
 7279 0060 01       		.byte	0x1
 7280 0061 3F       		.uleb128 0x3f
 7281 0062 19       		.uleb128 0x19
 7282 0063 03       		.uleb128 0x3
 7283 0064 0E       		.uleb128 0xe
 7284 0065 3A       		.uleb128 0x3a
 7285 0066 0B       		.uleb128 0xb
 7286 0067 3B       		.uleb128 0x3b
 7287 0068 0B       		.uleb128 0xb
 7288 0069 27       		.uleb128 0x27
 7289 006a 19       		.uleb128 0x19
 7290 006b 11       		.uleb128 0x11
 7291 006c 01       		.uleb128 0x1
 7292 006d 12       		.uleb128 0x12
 7293 006e 06       		.uleb128 0x6
 7294 006f 40       		.uleb128 0x40
 7295 0070 18       		.uleb128 0x18
 7296 0071 9642     		.uleb128 0x2116
 7297 0073 19       		.uleb128 0x19
 7298 0074 01       		.uleb128 0x1
 7299 0075 13       		.uleb128 0x13
 7300 0076 00       		.byte	0
 7301 0077 00       		.byte	0
 7302 0078 0A       		.uleb128 0xa
 7303 0079 05       		.uleb128 0x5
 7304 007a 00       		.byte	0
 7305 007b 03       		.uleb128 0x3
 7306 007c 0E       		.uleb128 0xe
 7307 007d 3A       		.uleb128 0x3a
 7308 007e 0B       		.uleb128 0xb
 7309 007f 3B       		.uleb128 0x3b
 7310 0080 0B       		.uleb128 0xb
 7311 0081 49       		.uleb128 0x49
 7312 0082 13       		.uleb128 0x13
 7313 0083 02       		.uleb128 0x2
 7314 0084 18       		.uleb128 0x18
 7315 0085 00       		.byte	0
 7316 0086 00       		.byte	0
 7317 0087 0B       		.uleb128 0xb
 7318 0088 34       		.uleb128 0x34
 7319 0089 00       		.byte	0
 7320 008a 03       		.uleb128 0x3
 7321 008b 0E       		.uleb128 0xe
 7322 008c 3A       		.uleb128 0x3a
ARM GAS  C:\Users\jdrd3\AppData\Local\Temp\ccQ8iyfh.s 			page 142


 7323 008d 0B       		.uleb128 0xb
 7324 008e 3B       		.uleb128 0x3b
 7325 008f 0B       		.uleb128 0xb
 7326 0090 49       		.uleb128 0x49
 7327 0091 13       		.uleb128 0x13
 7328 0092 02       		.uleb128 0x2
 7329 0093 18       		.uleb128 0x18
 7330 0094 00       		.byte	0
 7331 0095 00       		.byte	0
 7332 0096 0C       		.uleb128 0xc
 7333 0097 01       		.uleb128 0x1
 7334 0098 01       		.byte	0x1
 7335 0099 49       		.uleb128 0x49
 7336 009a 13       		.uleb128 0x13
 7337 009b 01       		.uleb128 0x1
 7338 009c 13       		.uleb128 0x13
 7339 009d 00       		.byte	0
 7340 009e 00       		.byte	0
 7341 009f 0D       		.uleb128 0xd
 7342 00a0 21       		.uleb128 0x21
 7343 00a1 00       		.byte	0
 7344 00a2 49       		.uleb128 0x49
 7345 00a3 13       		.uleb128 0x13
 7346 00a4 2F       		.uleb128 0x2f
 7347 00a5 0B       		.uleb128 0xb
 7348 00a6 00       		.byte	0
 7349 00a7 00       		.byte	0
 7350 00a8 0E       		.uleb128 0xe
 7351 00a9 2E       		.uleb128 0x2e
 7352 00aa 01       		.byte	0x1
 7353 00ab 03       		.uleb128 0x3
 7354 00ac 0E       		.uleb128 0xe
 7355 00ad 3A       		.uleb128 0x3a
 7356 00ae 0B       		.uleb128 0xb
 7357 00af 3B       		.uleb128 0x3b
 7358 00b0 0B       		.uleb128 0xb
 7359 00b1 27       		.uleb128 0x27
 7360 00b2 19       		.uleb128 0x19
 7361 00b3 49       		.uleb128 0x49
 7362 00b4 13       		.uleb128 0x13
 7363 00b5 11       		.uleb128 0x11
 7364 00b6 01       		.uleb128 0x1
 7365 00b7 12       		.uleb128 0x12
 7366 00b8 06       		.uleb128 0x6
 7367 00b9 40       		.uleb128 0x40
 7368 00ba 18       		.uleb128 0x18
 7369 00bb 9642     		.uleb128 0x2116
 7370 00bd 19       		.uleb128 0x19
 7371 00be 01       		.uleb128 0x1
 7372 00bf 13       		.uleb128 0x13
 7373 00c0 00       		.byte	0
 7374 00c1 00       		.byte	0
 7375 00c2 0F       		.uleb128 0xf
 7376 00c3 05       		.uleb128 0x5
 7377 00c4 00       		.byte	0
 7378 00c5 03       		.uleb128 0x3
 7379 00c6 08       		.uleb128 0x8
ARM GAS  C:\Users\jdrd3\AppData\Local\Temp\ccQ8iyfh.s 			page 143


 7380 00c7 3A       		.uleb128 0x3a
 7381 00c8 0B       		.uleb128 0xb
 7382 00c9 3B       		.uleb128 0x3b
 7383 00ca 0B       		.uleb128 0xb
 7384 00cb 49       		.uleb128 0x49
 7385 00cc 13       		.uleb128 0x13
 7386 00cd 02       		.uleb128 0x2
 7387 00ce 18       		.uleb128 0x18
 7388 00cf 00       		.byte	0
 7389 00d0 00       		.byte	0
 7390 00d1 10       		.uleb128 0x10
 7391 00d2 2E       		.uleb128 0x2e
 7392 00d3 01       		.byte	0x1
 7393 00d4 03       		.uleb128 0x3
 7394 00d5 0E       		.uleb128 0xe
 7395 00d6 3A       		.uleb128 0x3a
 7396 00d7 0B       		.uleb128 0xb
 7397 00d8 3B       		.uleb128 0x3b
 7398 00d9 0B       		.uleb128 0xb
 7399 00da 27       		.uleb128 0x27
 7400 00db 19       		.uleb128 0x19
 7401 00dc 11       		.uleb128 0x11
 7402 00dd 01       		.uleb128 0x1
 7403 00de 12       		.uleb128 0x12
 7404 00df 06       		.uleb128 0x6
 7405 00e0 40       		.uleb128 0x40
 7406 00e1 18       		.uleb128 0x18
 7407 00e2 9742     		.uleb128 0x2117
 7408 00e4 19       		.uleb128 0x19
 7409 00e5 01       		.uleb128 0x1
 7410 00e6 13       		.uleb128 0x13
 7411 00e7 00       		.byte	0
 7412 00e8 00       		.byte	0
 7413 00e9 11       		.uleb128 0x11
 7414 00ea 2E       		.uleb128 0x2e
 7415 00eb 00       		.byte	0
 7416 00ec 3F       		.uleb128 0x3f
 7417 00ed 19       		.uleb128 0x19
 7418 00ee 03       		.uleb128 0x3
 7419 00ef 0E       		.uleb128 0xe
 7420 00f0 3A       		.uleb128 0x3a
 7421 00f1 0B       		.uleb128 0xb
 7422 00f2 3B       		.uleb128 0x3b
 7423 00f3 0B       		.uleb128 0xb
 7424 00f4 27       		.uleb128 0x27
 7425 00f5 19       		.uleb128 0x19
 7426 00f6 11       		.uleb128 0x11
 7427 00f7 01       		.uleb128 0x1
 7428 00f8 12       		.uleb128 0x12
 7429 00f9 06       		.uleb128 0x6
 7430 00fa 40       		.uleb128 0x40
 7431 00fb 18       		.uleb128 0x18
 7432 00fc 9642     		.uleb128 0x2116
 7433 00fe 19       		.uleb128 0x19
 7434 00ff 00       		.byte	0
 7435 0100 00       		.byte	0
 7436 0101 12       		.uleb128 0x12
ARM GAS  C:\Users\jdrd3\AppData\Local\Temp\ccQ8iyfh.s 			page 144


 7437 0102 0B       		.uleb128 0xb
 7438 0103 01       		.byte	0x1
 7439 0104 11       		.uleb128 0x11
 7440 0105 01       		.uleb128 0x1
 7441 0106 12       		.uleb128 0x12
 7442 0107 06       		.uleb128 0x6
 7443 0108 01       		.uleb128 0x1
 7444 0109 13       		.uleb128 0x13
 7445 010a 00       		.byte	0
 7446 010b 00       		.byte	0
 7447 010c 13       		.uleb128 0x13
 7448 010d 34       		.uleb128 0x34
 7449 010e 00       		.byte	0
 7450 010f 03       		.uleb128 0x3
 7451 0110 08       		.uleb128 0x8
 7452 0111 3A       		.uleb128 0x3a
 7453 0112 0B       		.uleb128 0xb
 7454 0113 3B       		.uleb128 0x3b
 7455 0114 0B       		.uleb128 0xb
 7456 0115 49       		.uleb128 0x49
 7457 0116 13       		.uleb128 0x13
 7458 0117 02       		.uleb128 0x2
 7459 0118 18       		.uleb128 0x18
 7460 0119 00       		.byte	0
 7461 011a 00       		.byte	0
 7462 011b 14       		.uleb128 0x14
 7463 011c 0B       		.uleb128 0xb
 7464 011d 01       		.byte	0x1
 7465 011e 11       		.uleb128 0x11
 7466 011f 01       		.uleb128 0x1
 7467 0120 12       		.uleb128 0x12
 7468 0121 06       		.uleb128 0x6
 7469 0122 00       		.byte	0
 7470 0123 00       		.byte	0
 7471 0124 15       		.uleb128 0x15
 7472 0125 34       		.uleb128 0x34
 7473 0126 00       		.byte	0
 7474 0127 03       		.uleb128 0x3
 7475 0128 0E       		.uleb128 0xe
 7476 0129 3A       		.uleb128 0x3a
 7477 012a 0B       		.uleb128 0xb
 7478 012b 3B       		.uleb128 0x3b
 7479 012c 05       		.uleb128 0x5
 7480 012d 49       		.uleb128 0x49
 7481 012e 13       		.uleb128 0x13
 7482 012f 02       		.uleb128 0x2
 7483 0130 18       		.uleb128 0x18
 7484 0131 00       		.byte	0
 7485 0132 00       		.byte	0
 7486 0133 16       		.uleb128 0x16
 7487 0134 34       		.uleb128 0x34
 7488 0135 00       		.byte	0
 7489 0136 03       		.uleb128 0x3
 7490 0137 08       		.uleb128 0x8
 7491 0138 3A       		.uleb128 0x3a
 7492 0139 0B       		.uleb128 0xb
 7493 013a 3B       		.uleb128 0x3b
ARM GAS  C:\Users\jdrd3\AppData\Local\Temp\ccQ8iyfh.s 			page 145


 7494 013b 05       		.uleb128 0x5
 7495 013c 49       		.uleb128 0x49
 7496 013d 13       		.uleb128 0x13
 7497 013e 02       		.uleb128 0x2
 7498 013f 18       		.uleb128 0x18
 7499 0140 00       		.byte	0
 7500 0141 00       		.byte	0
 7501 0142 17       		.uleb128 0x17
 7502 0143 2E       		.uleb128 0x2e
 7503 0144 01       		.byte	0x1
 7504 0145 3F       		.uleb128 0x3f
 7505 0146 19       		.uleb128 0x19
 7506 0147 03       		.uleb128 0x3
 7507 0148 0E       		.uleb128 0xe
 7508 0149 3A       		.uleb128 0x3a
 7509 014a 0B       		.uleb128 0xb
 7510 014b 3B       		.uleb128 0x3b
 7511 014c 05       		.uleb128 0x5
 7512 014d 27       		.uleb128 0x27
 7513 014e 19       		.uleb128 0x19
 7514 014f 11       		.uleb128 0x11
 7515 0150 01       		.uleb128 0x1
 7516 0151 12       		.uleb128 0x12
 7517 0152 06       		.uleb128 0x6
 7518 0153 40       		.uleb128 0x40
 7519 0154 18       		.uleb128 0x18
 7520 0155 9642     		.uleb128 0x2116
 7521 0157 19       		.uleb128 0x19
 7522 0158 01       		.uleb128 0x1
 7523 0159 13       		.uleb128 0x13
 7524 015a 00       		.byte	0
 7525 015b 00       		.byte	0
 7526 015c 18       		.uleb128 0x18
 7527 015d 05       		.uleb128 0x5
 7528 015e 00       		.byte	0
 7529 015f 03       		.uleb128 0x3
 7530 0160 0E       		.uleb128 0xe
 7531 0161 3A       		.uleb128 0x3a
 7532 0162 0B       		.uleb128 0xb
 7533 0163 3B       		.uleb128 0x3b
 7534 0164 05       		.uleb128 0x5
 7535 0165 49       		.uleb128 0x49
 7536 0166 13       		.uleb128 0x13
 7537 0167 02       		.uleb128 0x2
 7538 0168 18       		.uleb128 0x18
 7539 0169 00       		.byte	0
 7540 016a 00       		.byte	0
 7541 016b 19       		.uleb128 0x19
 7542 016c 05       		.uleb128 0x5
 7543 016d 00       		.byte	0
 7544 016e 03       		.uleb128 0x3
 7545 016f 08       		.uleb128 0x8
 7546 0170 3A       		.uleb128 0x3a
 7547 0171 0B       		.uleb128 0xb
 7548 0172 3B       		.uleb128 0x3b
 7549 0173 05       		.uleb128 0x5
 7550 0174 49       		.uleb128 0x49
ARM GAS  C:\Users\jdrd3\AppData\Local\Temp\ccQ8iyfh.s 			page 146


 7551 0175 13       		.uleb128 0x13
 7552 0176 02       		.uleb128 0x2
 7553 0177 18       		.uleb128 0x18
 7554 0178 00       		.byte	0
 7555 0179 00       		.byte	0
 7556 017a 1A       		.uleb128 0x1a
 7557 017b 2E       		.uleb128 0x2e
 7558 017c 01       		.byte	0x1
 7559 017d 3F       		.uleb128 0x3f
 7560 017e 19       		.uleb128 0x19
 7561 017f 03       		.uleb128 0x3
 7562 0180 0E       		.uleb128 0xe
 7563 0181 3A       		.uleb128 0x3a
 7564 0182 0B       		.uleb128 0xb
 7565 0183 3B       		.uleb128 0x3b
 7566 0184 05       		.uleb128 0x5
 7567 0185 27       		.uleb128 0x27
 7568 0186 19       		.uleb128 0x19
 7569 0187 11       		.uleb128 0x11
 7570 0188 01       		.uleb128 0x1
 7571 0189 12       		.uleb128 0x12
 7572 018a 06       		.uleb128 0x6
 7573 018b 40       		.uleb128 0x40
 7574 018c 18       		.uleb128 0x18
 7575 018d 9742     		.uleb128 0x2117
 7576 018f 19       		.uleb128 0x19
 7577 0190 01       		.uleb128 0x1
 7578 0191 13       		.uleb128 0x13
 7579 0192 00       		.byte	0
 7580 0193 00       		.byte	0
 7581 0194 1B       		.uleb128 0x1b
 7582 0195 2E       		.uleb128 0x2e
 7583 0196 00       		.byte	0
 7584 0197 3F       		.uleb128 0x3f
 7585 0198 19       		.uleb128 0x19
 7586 0199 03       		.uleb128 0x3
 7587 019a 0E       		.uleb128 0xe
 7588 019b 3A       		.uleb128 0x3a
 7589 019c 0B       		.uleb128 0xb
 7590 019d 3B       		.uleb128 0x3b
 7591 019e 05       		.uleb128 0x5
 7592 019f 27       		.uleb128 0x27
 7593 01a0 19       		.uleb128 0x19
 7594 01a1 49       		.uleb128 0x49
 7595 01a2 13       		.uleb128 0x13
 7596 01a3 11       		.uleb128 0x11
 7597 01a4 01       		.uleb128 0x1
 7598 01a5 12       		.uleb128 0x12
 7599 01a6 06       		.uleb128 0x6
 7600 01a7 40       		.uleb128 0x40
 7601 01a8 18       		.uleb128 0x18
 7602 01a9 9742     		.uleb128 0x2117
 7603 01ab 19       		.uleb128 0x19
 7604 01ac 00       		.byte	0
 7605 01ad 00       		.byte	0
 7606 01ae 1C       		.uleb128 0x1c
 7607 01af 2E       		.uleb128 0x2e
ARM GAS  C:\Users\jdrd3\AppData\Local\Temp\ccQ8iyfh.s 			page 147


 7608 01b0 01       		.byte	0x1
 7609 01b1 03       		.uleb128 0x3
 7610 01b2 0E       		.uleb128 0xe
 7611 01b3 3A       		.uleb128 0x3a
 7612 01b4 0B       		.uleb128 0xb
 7613 01b5 3B       		.uleb128 0x3b
 7614 01b6 05       		.uleb128 0x5
 7615 01b7 27       		.uleb128 0x27
 7616 01b8 19       		.uleb128 0x19
 7617 01b9 11       		.uleb128 0x11
 7618 01ba 01       		.uleb128 0x1
 7619 01bb 12       		.uleb128 0x12
 7620 01bc 06       		.uleb128 0x6
 7621 01bd 40       		.uleb128 0x40
 7622 01be 18       		.uleb128 0x18
 7623 01bf 9742     		.uleb128 0x2117
 7624 01c1 19       		.uleb128 0x19
 7625 01c2 01       		.uleb128 0x1
 7626 01c3 13       		.uleb128 0x13
 7627 01c4 00       		.byte	0
 7628 01c5 00       		.byte	0
 7629 01c6 1D       		.uleb128 0x1d
 7630 01c7 2E       		.uleb128 0x2e
 7631 01c8 01       		.byte	0x1
 7632 01c9 03       		.uleb128 0x3
 7633 01ca 0E       		.uleb128 0xe
 7634 01cb 3A       		.uleb128 0x3a
 7635 01cc 0B       		.uleb128 0xb
 7636 01cd 3B       		.uleb128 0x3b
 7637 01ce 05       		.uleb128 0x5
 7638 01cf 27       		.uleb128 0x27
 7639 01d0 19       		.uleb128 0x19
 7640 01d1 11       		.uleb128 0x11
 7641 01d2 01       		.uleb128 0x1
 7642 01d3 12       		.uleb128 0x12
 7643 01d4 06       		.uleb128 0x6
 7644 01d5 40       		.uleb128 0x40
 7645 01d6 18       		.uleb128 0x18
 7646 01d7 9642     		.uleb128 0x2116
 7647 01d9 19       		.uleb128 0x19
 7648 01da 01       		.uleb128 0x1
 7649 01db 13       		.uleb128 0x13
 7650 01dc 00       		.byte	0
 7651 01dd 00       		.byte	0
 7652 01de 1E       		.uleb128 0x1e
 7653 01df 21       		.uleb128 0x21
 7654 01e0 00       		.byte	0
 7655 01e1 49       		.uleb128 0x49
 7656 01e2 13       		.uleb128 0x13
 7657 01e3 2F       		.uleb128 0x2f
 7658 01e4 05       		.uleb128 0x5
 7659 01e5 00       		.byte	0
 7660 01e6 00       		.byte	0
 7661 01e7 1F       		.uleb128 0x1f
 7662 01e8 34       		.uleb128 0x34
 7663 01e9 00       		.byte	0
 7664 01ea 03       		.uleb128 0x3
ARM GAS  C:\Users\jdrd3\AppData\Local\Temp\ccQ8iyfh.s 			page 148


 7665 01eb 0E       		.uleb128 0xe
 7666 01ec 3A       		.uleb128 0x3a
 7667 01ed 0B       		.uleb128 0xb
 7668 01ee 3B       		.uleb128 0x3b
 7669 01ef 05       		.uleb128 0x5
 7670 01f0 49       		.uleb128 0x49
 7671 01f1 13       		.uleb128 0x13
 7672 01f2 3F       		.uleb128 0x3f
 7673 01f3 19       		.uleb128 0x19
 7674 01f4 02       		.uleb128 0x2
 7675 01f5 18       		.uleb128 0x18
 7676 01f6 00       		.byte	0
 7677 01f7 00       		.byte	0
 7678 01f8 00       		.byte	0
 7679              		.section	.debug_aranges,"",%progbits
 7680 0000 14010000 		.4byte	0x114
 7681 0004 0200     		.2byte	0x2
 7682 0006 00000000 		.4byte	.Ldebug_info0
 7683 000a 04       		.byte	0x4
 7684 000b 00       		.byte	0
 7685 000c 0000     		.2byte	0
 7686 000e 0000     		.2byte	0
 7687 0010 00000000 		.4byte	.LFB33
 7688 0014 4C000000 		.4byte	.LFE33-.LFB33
 7689 0018 00000000 		.4byte	.LFB34
 7690 001c 64000000 		.4byte	.LFE34-.LFB34
 7691 0020 00000000 		.4byte	.LFB35
 7692 0024 7C010000 		.4byte	.LFE35-.LFB35
 7693 0028 00000000 		.4byte	.LFB36
 7694 002c 2C000000 		.4byte	.LFE36-.LFB36
 7695 0030 00000000 		.4byte	.LFB37
 7696 0034 3A000000 		.4byte	.LFE37-.LFB37
 7697 0038 00000000 		.4byte	.LFB38
 7698 003c 44000000 		.4byte	.LFE38-.LFB38
 7699 0040 00000000 		.4byte	.LFB39
 7700 0044 40000000 		.4byte	.LFE39-.LFB39
 7701 0048 00000000 		.4byte	.LFB40
 7702 004c B0020000 		.4byte	.LFE40-.LFB40
 7703 0050 00000000 		.4byte	.LFB41
 7704 0054 24000000 		.4byte	.LFE41-.LFB41
 7705 0058 00000000 		.4byte	.LFB42
 7706 005c 8A000000 		.4byte	.LFE42-.LFB42
 7707 0060 00000000 		.4byte	.LFB43
 7708 0064 9C000000 		.4byte	.LFE43-.LFB43
 7709 0068 00000000 		.4byte	.LFB44
 7710 006c 14000000 		.4byte	.LFE44-.LFB44
 7711 0070 00000000 		.4byte	.LFB45
 7712 0074 14000000 		.4byte	.LFE45-.LFB45
 7713 0078 00000000 		.4byte	.LFB46
 7714 007c 14000000 		.4byte	.LFE46-.LFB46
 7715 0080 00000000 		.4byte	.LFB47
 7716 0084 34000000 		.4byte	.LFE47-.LFB47
 7717 0088 00000000 		.4byte	.LFB48
 7718 008c 2C000000 		.4byte	.LFE48-.LFB48
 7719 0090 00000000 		.4byte	.LFB49
 7720 0094 2C000000 		.4byte	.LFE49-.LFB49
 7721 0098 00000000 		.4byte	.LFB50
ARM GAS  C:\Users\jdrd3\AppData\Local\Temp\ccQ8iyfh.s 			page 149


 7722 009c 20000000 		.4byte	.LFE50-.LFB50
 7723 00a0 00000000 		.4byte	.LFB51
 7724 00a4 20000000 		.4byte	.LFE51-.LFB51
 7725 00a8 00000000 		.4byte	.LFB52
 7726 00ac 7C000000 		.4byte	.LFE52-.LFB52
 7727 00b0 00000000 		.4byte	.LFB53
 7728 00b4 CC000000 		.4byte	.LFE53-.LFB53
 7729 00b8 00000000 		.4byte	.LFB54
 7730 00bc 88000000 		.4byte	.LFE54-.LFB54
 7731 00c0 00000000 		.4byte	.LFB55
 7732 00c4 2C020000 		.4byte	.LFE55-.LFB55
 7733 00c8 00000000 		.4byte	.LFB56
 7734 00cc 4A020000 		.4byte	.LFE56-.LFB56
 7735 00d0 00000000 		.4byte	.LFB57
 7736 00d4 2A010000 		.4byte	.LFE57-.LFB57
 7737 00d8 00000000 		.4byte	.LFB58
 7738 00dc 28010000 		.4byte	.LFE58-.LFB58
 7739 00e0 00000000 		.4byte	.LFB59
 7740 00e4 CC020000 		.4byte	.LFE59-.LFB59
 7741 00e8 00000000 		.4byte	.LFB60
 7742 00ec A8000000 		.4byte	.LFE60-.LFB60
 7743 00f0 00000000 		.4byte	.LFB61
 7744 00f4 94020000 		.4byte	.LFE61-.LFB61
 7745 00f8 00000000 		.4byte	.LFB62
 7746 00fc 00010000 		.4byte	.LFE62-.LFB62
 7747 0100 00000000 		.4byte	.LFB63
 7748 0104 42000000 		.4byte	.LFE63-.LFB63
 7749 0108 00000000 		.4byte	.LFB64
 7750 010c 1E000000 		.4byte	.LFE64-.LFB64
 7751 0110 00000000 		.4byte	0
 7752 0114 00000000 		.4byte	0
 7753              		.section	.debug_ranges,"",%progbits
 7754              	.Ldebug_ranges0:
 7755 0000 00000000 		.4byte	.LFB33
 7756 0004 4C000000 		.4byte	.LFE33
 7757 0008 00000000 		.4byte	.LFB34
 7758 000c 64000000 		.4byte	.LFE34
 7759 0010 00000000 		.4byte	.LFB35
 7760 0014 7C010000 		.4byte	.LFE35
 7761 0018 00000000 		.4byte	.LFB36
 7762 001c 2C000000 		.4byte	.LFE36
 7763 0020 00000000 		.4byte	.LFB37
 7764 0024 3A000000 		.4byte	.LFE37
 7765 0028 00000000 		.4byte	.LFB38
 7766 002c 44000000 		.4byte	.LFE38
 7767 0030 00000000 		.4byte	.LFB39
 7768 0034 40000000 		.4byte	.LFE39
 7769 0038 00000000 		.4byte	.LFB40
 7770 003c B0020000 		.4byte	.LFE40
 7771 0040 00000000 		.4byte	.LFB41
 7772 0044 24000000 		.4byte	.LFE41
 7773 0048 00000000 		.4byte	.LFB42
 7774 004c 8A000000 		.4byte	.LFE42
 7775 0050 00000000 		.4byte	.LFB43
 7776 0054 9C000000 		.4byte	.LFE43
 7777 0058 00000000 		.4byte	.LFB44
 7778 005c 14000000 		.4byte	.LFE44
ARM GAS  C:\Users\jdrd3\AppData\Local\Temp\ccQ8iyfh.s 			page 150


 7779 0060 00000000 		.4byte	.LFB45
 7780 0064 14000000 		.4byte	.LFE45
 7781 0068 00000000 		.4byte	.LFB46
 7782 006c 14000000 		.4byte	.LFE46
 7783 0070 00000000 		.4byte	.LFB47
 7784 0074 34000000 		.4byte	.LFE47
 7785 0078 00000000 		.4byte	.LFB48
 7786 007c 2C000000 		.4byte	.LFE48
 7787 0080 00000000 		.4byte	.LFB49
 7788 0084 2C000000 		.4byte	.LFE49
 7789 0088 00000000 		.4byte	.LFB50
 7790 008c 20000000 		.4byte	.LFE50
 7791 0090 00000000 		.4byte	.LFB51
 7792 0094 20000000 		.4byte	.LFE51
 7793 0098 00000000 		.4byte	.LFB52
 7794 009c 7C000000 		.4byte	.LFE52
 7795 00a0 00000000 		.4byte	.LFB53
 7796 00a4 CC000000 		.4byte	.LFE53
 7797 00a8 00000000 		.4byte	.LFB54
 7798 00ac 88000000 		.4byte	.LFE54
 7799 00b0 00000000 		.4byte	.LFB55
 7800 00b4 2C020000 		.4byte	.LFE55
 7801 00b8 00000000 		.4byte	.LFB56
 7802 00bc 4A020000 		.4byte	.LFE56
 7803 00c0 00000000 		.4byte	.LFB57
 7804 00c4 2A010000 		.4byte	.LFE57
 7805 00c8 00000000 		.4byte	.LFB58
 7806 00cc 28010000 		.4byte	.LFE58
 7807 00d0 00000000 		.4byte	.LFB59
 7808 00d4 CC020000 		.4byte	.LFE59
 7809 00d8 00000000 		.4byte	.LFB60
 7810 00dc A8000000 		.4byte	.LFE60
 7811 00e0 00000000 		.4byte	.LFB61
 7812 00e4 94020000 		.4byte	.LFE61
 7813 00e8 00000000 		.4byte	.LFB62
 7814 00ec 00010000 		.4byte	.LFE62
 7815 00f0 00000000 		.4byte	.LFB63
 7816 00f4 42000000 		.4byte	.LFE63
 7817 00f8 00000000 		.4byte	.LFB64
 7818 00fc 1E000000 		.4byte	.LFE64
 7819 0100 00000000 		.4byte	0
 7820 0104 00000000 		.4byte	0
 7821              		.section	.debug_line,"",%progbits
 7822              	.Ldebug_line0:
 7823 0000 07060000 		.section	.debug_str,"MS",%progbits,1
 7823      02005801 
 7823      00000201 
 7823      FB0E0D00 
 7823      01010101 
 7824              	.LASF82:
 7825 0000 6766785F 		.ascii	"gfx_drawPixel\000"
 7825      64726177 
 7825      50697865 
 7825      6C00
 7826              	.LASF69:
 7827 000e 6766785F 		.ascii	"gfx_init\000"
 7827      696E6974 
ARM GAS  C:\Users\jdrd3\AppData\Local\Temp\ccQ8iyfh.s 			page 151


 7827      00
 7828              	.LASF116:
 7829 0017 443A5C4E 		.ascii	"D:\\Nico\\Archivos\\lib_psoc\\Cypress-PSOC-OLED-mas"
 7829      69636F5C 
 7829      41726368 
 7829      69766F73 
 7829      5C6C6962 
 7830 0046 7465725C 		.ascii	"ter\\OLED.cydsn\000"
 7830      4F4C4544 
 7830      2E637964 
 7830      736E00
 7831              	.LASF74:
 7832 0055 6766785F 		.ascii	"gfx_rotation\000"
 7832      726F7461 
 7832      74696F6E 
 7832      00
 7833              	.LASF12:
 7834 0062 756E7369 		.ascii	"unsigned int\000"
 7834      676E6564 
 7834      20696E74 
 7834      00
 7835              	.LASF78:
 7836 006f 6766785F 		.ascii	"gfx_setTextBg\000"
 7836      73657454 
 7836      65787442 
 7836      6700
 7837              	.LASF114:
 7838 007d 474E5520 		.ascii	"GNU C11 5.4.1 20160609 (release) [ARM/embedded-5-br"
 7838      43313120 
 7838      352E342E 
 7838      31203230 
 7838      31363036 
 7839 00b0 616E6368 		.ascii	"anch revision 237715] -mcpu=cortex-m0 -mthumb -g -O"
 7839      20726576 
 7839      6973696F 
 7839      6E203233 
 7839      37373135 
 7840 00e3 30202D66 		.ascii	"0 -ffunction-sections -ffat-lto-objects\000"
 7840      66756E63 
 7840      74696F6E 
 7840      2D736563 
 7840      74696F6E 
 7841              	.LASF46:
 7842 010b 69326361 		.ascii	"i2caddr\000"
 7842      64647200 
 7843              	.LASF80:
 7844 0113 6766785F 		.ascii	"gfx_setRotation\000"
 7844      73657452 
 7844      6F746174 
 7844      696F6E00 
 7845              	.LASF58:
 7846 0123 64697370 		.ascii	"display_line\000"
 7846      6C61795F 
 7846      6C696E65 
 7846      00
 7847              	.LASF83:
 7848 0130 6766785F 		.ascii	"gfx_hvLine\000"
ARM GAS  C:\Users\jdrd3\AppData\Local\Temp\ccQ8iyfh.s 			page 152


 7848      68764C69 
 7848      6E6500
 7849              	.LASF27:
 7850 013b 5343524F 		.ascii	"SCROLL_DIR\000"
 7850      4C4C5F44 
 7850      495200
 7851              	.LASF112:
 7852 0146 726F7461 		.ascii	"rotation\000"
 7852      74696F6E 
 7852      00
 7853              	.LASF68:
 7854 014f 73706565 		.ascii	"speed\000"
 7854      6400
 7855              	.LASF51:
 7856 0155 64697370 		.ascii	"display_init\000"
 7856      6C61795F 
 7856      696E6974 
 7856      00
 7857              	.LASF28:
 7858 0162 5343524F 		.ascii	"SCROLL_SPEED_0\000"
 7858      4C4C5F53 
 7858      50454544 
 7858      5F3000
 7859              	.LASF29:
 7860 0171 5343524F 		.ascii	"SCROLL_SPEED_1\000"
 7860      4C4C5F53 
 7860      50454544 
 7860      5F3100
 7861              	.LASF30:
 7862 0180 5343524F 		.ascii	"SCROLL_SPEED_2\000"
 7862      4C4C5F53 
 7862      50454544 
 7862      5F3200
 7863              	.LASF31:
 7864 018f 5343524F 		.ascii	"SCROLL_SPEED_3\000"
 7864      4C4C5F53 
 7864      50454544 
 7864      5F3300
 7865              	.LASF32:
 7866 019e 5343524F 		.ascii	"SCROLL_SPEED_4\000"
 7866      4C4C5F53 
 7866      50454544 
 7866      5F3400
 7867              	.LASF33:
 7868 01ad 5343524F 		.ascii	"SCROLL_SPEED_5\000"
 7868      4C4C5F53 
 7868      50454544 
 7868      5F3500
 7869              	.LASF34:
 7870 01bc 5343524F 		.ascii	"SCROLL_SPEED_6\000"
 7870      4C4C5F53 
 7870      50454544 
 7870      5F3600
 7871              	.LASF35:
 7872 01cb 5343524F 		.ascii	"SCROLL_SPEED_7\000"
 7872      4C4C5F53 
 7872      50454544 
ARM GAS  C:\Users\jdrd3\AppData\Local\Temp\ccQ8iyfh.s 			page 153


 7872      5F3700
 7873              	.LASF111:
 7874 01da 48454947 		.ascii	"HEIGHT\000"
 7874      485400
 7875              	.LASF13:
 7876 01e1 696E7438 		.ascii	"int8_t\000"
 7876      5F7400
 7877              	.LASF20:
 7878 01e8 666C6F61 		.ascii	"float\000"
 7878      7400
 7879              	.LASF59:
 7880 01ee 70737461 		.ascii	"pstart\000"
 7880      727400
 7881              	.LASF105:
 7882 01f5 63757273 		.ascii	"cursor_x\000"
 7882      6F725F78 
 7882      00
 7883              	.LASF106:
 7884 01fe 63757273 		.ascii	"cursor_y\000"
 7884      6F725F79 
 7884      00
 7885              	.LASF92:
 7886 0207 6766785F 		.ascii	"gfx_drawTriangle\000"
 7886      64726177 
 7886      54726961 
 7886      6E676C65 
 7886      00
 7887              	.LASF109:
 7888 0218 74657874 		.ascii	"textsize\000"
 7888      73697A65 
 7888      00
 7889              	.LASF15:
 7890 0221 696E7431 		.ascii	"int16_t\000"
 7890      365F7400 
 7891              	.LASF11:
 7892 0229 6C6F6E67 		.ascii	"long long unsigned int\000"
 7892      206C6F6E 
 7892      6720756E 
 7892      7369676E 
 7892      65642069 
 7893              	.LASF6:
 7894 0240 5F5F7569 		.ascii	"__uint16_t\000"
 7894      6E743136 
 7894      5F7400
 7895              	.LASF81:
 7896 024b 6766785F 		.ascii	"gfx_rotation_adjust\000"
 7896      726F7461 
 7896      74696F6E 
 7896      5F61646A 
 7896      75737400 
 7897              	.LASF110:
 7898 025f 57494454 		.ascii	"WIDTH\000"
 7898      4800
 7899              	.LASF89:
 7900 0265 6766785F 		.ascii	"gfx_drawCircle\000"
 7900      64726177 
 7900      43697263 
ARM GAS  C:\Users\jdrd3\AppData\Local\Temp\ccQ8iyfh.s 			page 154


 7900      6C6500
 7901              	.LASF70:
 7902 0274 77696474 		.ascii	"width\000"
 7902      6800
 7903              	.LASF57:
 7904 027a 64697370 		.ascii	"display_setPixel\000"
 7904      6C61795F 
 7904      73657450 
 7904      6978656C 
 7904      00
 7905              	.LASF37:
 7906 028b 5343524F 		.ascii	"SCROLL_PAGE_0\000"
 7906      4C4C5F50 
 7906      4147455F 
 7906      3000
 7907              	.LASF38:
 7908 0299 5343524F 		.ascii	"SCROLL_PAGE_1\000"
 7908      4C4C5F50 
 7908      4147455F 
 7908      3100
 7909              	.LASF39:
 7910 02a7 5343524F 		.ascii	"SCROLL_PAGE_2\000"
 7910      4C4C5F50 
 7910      4147455F 
 7910      3200
 7911              	.LASF40:
 7912 02b5 5343524F 		.ascii	"SCROLL_PAGE_3\000"
 7912      4C4C5F50 
 7912      4147455F 
 7912      3300
 7913              	.LASF41:
 7914 02c3 5343524F 		.ascii	"SCROLL_PAGE_4\000"
 7914      4C4C5F50 
 7914      4147455F 
 7914      3400
 7915              	.LASF42:
 7916 02d1 5343524F 		.ascii	"SCROLL_PAGE_5\000"
 7916      4C4C5F50 
 7916      4147455F 
 7916      3500
 7917              	.LASF43:
 7918 02df 5343524F 		.ascii	"SCROLL_PAGE_6\000"
 7918      4C4C5F50 
 7918      4147455F 
 7918      3600
 7919              	.LASF44:
 7920 02ed 5343524F 		.ascii	"SCROLL_PAGE_7\000"
 7920      4C4C5F50 
 7920      4147455F 
 7920      3700
 7921              	.LASF100:
 7922 02fb 53534431 		.ascii	"SSD1306_buffer\000"
 7922      3330365F 
 7922      62756666 
 7922      657200
 7923              	.LASF84:
 7924 030a 6766785F 		.ascii	"gfx_drawLine\000"
ARM GAS  C:\Users\jdrd3\AppData\Local\Temp\ccQ8iyfh.s 			page 155


 7924      64726177 
 7924      4C696E65 
 7924      00
 7925              	.LASF56:
 7926 0317 64697370 		.ascii	"display_update\000"
 7926      6C61795F 
 7926      75706461 
 7926      746500
 7927              	.LASF22:
 7928 0326 63686172 		.ascii	"char\000"
 7928      00
 7929              	.LASF18:
 7930 032b 75696E74 		.ascii	"uint16\000"
 7930      313600
 7931              	.LASF55:
 7932 0332 696E7665 		.ascii	"invert\000"
 7932      727400
 7933              	.LASF14:
 7934 0339 75696E74 		.ascii	"uint8_t\000"
 7934      385F7400 
 7935              	.LASF49:
 7936 0341 73746174 		.ascii	"status\000"
 7936      757300
 7937              	.LASF87:
 7938 0348 6766785F 		.ascii	"gfx_drawRect\000"
 7938      64726177 
 7938      52656374 
 7938      00
 7939              	.LASF103:
 7940 0355 5F776964 		.ascii	"_width\000"
 7940      746800
 7941              	.LASF85:
 7942 035c 73746565 		.ascii	"steep\000"
 7942      7000
 7943              	.LASF10:
 7944 0362 6C6F6E67 		.ascii	"long long int\000"
 7944      206C6F6E 
 7944      6720696E 
 7944      7400
 7945              	.LASF53:
 7946 0370 636F6E74 		.ascii	"contrast\000"
 7946      72617374 
 7946      00
 7947              	.LASF36:
 7948 0379 5343524F 		.ascii	"SCROLL_SPEED\000"
 7948      4C4C5F53 
 7948      50454544 
 7948      00
 7949              	.LASF45:
 7950 0386 5343524F 		.ascii	"SCROLL_AREA\000"
 7950      4C4C5F41 
 7950      52454100 
 7951              	.LASF72:
 7952 0392 6766785F 		.ascii	"gfx_width\000"
 7952      77696474 
 7952      6800
 7953              	.LASF4:
ARM GAS  C:\Users\jdrd3\AppData\Local\Temp\ccQ8iyfh.s 			page 156


 7954 039c 5F5F696E 		.ascii	"__int16_t\000"
 7954      7431365F 
 7954      7400
 7955              	.LASF104:
 7956 03a6 5F686569 		.ascii	"_height\000"
 7956      67687400 
 7957              	.LASF47:
 7958 03ae 73697A65 		.ascii	"size\000"
 7958      00
 7959              	.LASF102:
 7960 03b3 5F646973 		.ascii	"_displaybuf_size\000"
 7960      706C6179 
 7960      6275665F 
 7960      73697A65 
 7960      00
 7961              	.LASF19:
 7962 03c4 75696E74 		.ascii	"uint32\000"
 7962      333200
 7963              	.LASF117:
 7964 03cb 64697370 		.ascii	"display_write_buf\000"
 7964      6C61795F 
 7964      77726974 
 7964      655F6275 
 7964      6600
 7965              	.LASF61:
 7966 03dd 6D61736B 		.ascii	"mask\000"
 7966      00
 7967              	.LASF99:
 7968 03e2 5F693263 		.ascii	"_i2caddr\000"
 7968      61646472 
 7968      00
 7969              	.LASF71:
 7970 03eb 68656967 		.ascii	"height\000"
 7970      687400
 7971              	.LASF77:
 7972 03f2 6766785F 		.ascii	"gfx_setTextColor\000"
 7972      73657454 
 7972      65787443 
 7972      6F6C6F72 
 7972      00
 7973              	.LASF0:
 7974 0403 5F5F696E 		.ascii	"__int8_t\000"
 7974      74385F74 
 7974      00
 7975              	.LASF23:
 7976 040c 6C6F6E67 		.ascii	"long double\000"
 7976      20646F75 
 7976      626C6500 
 7977              	.LASF73:
 7978 0418 6766785F 		.ascii	"gfx_height\000"
 7978      68656967 
 7978      687400
 7979              	.LASF16:
 7980 0423 75696E74 		.ascii	"uint16_t\000"
 7980      31365F74 
 7980      00
 7981              	.LASF115:
ARM GAS  C:\Users\jdrd3\AppData\Local\Temp\ccQ8iyfh.s 			page 157


 7982 042c 73736431 		.ascii	"ssd1306.c\000"
 7982      3330362E 
 7982      6300
 7983              	.LASF88:
 7984 0436 6766785F 		.ascii	"gfx_fillRect\000"
 7984      66696C6C 
 7984      52656374 
 7984      00
 7985              	.LASF5:
 7986 0443 73686F72 		.ascii	"short int\000"
 7986      7420696E 
 7986      7400
 7987              	.LASF64:
 7988 044d 7069786D 		.ascii	"pixmask\000"
 7988      61736B00 
 7989              	.LASF8:
 7990 0455 6C6F6E67 		.ascii	"long int\000"
 7990      20696E74 
 7990      00
 7991              	.LASF97:
 7992 045e 6766785F 		.ascii	"gfx_println\000"
 7992      7072696E 
 7992      746C6E00 
 7993              	.LASF95:
 7994 046a 6766785F 		.ascii	"gfx_write\000"
 7994      77726974 
 7994      6500
 7995              	.LASF54:
 7996 0474 64697370 		.ascii	"display_invert\000"
 7996      6C61795F 
 7996      696E7665 
 7996      727400
 7997              	.LASF50:
 7998 0483 636F6C6F 		.ascii	"color\000"
 7998      7200
 7999              	.LASF76:
 8000 0489 6766785F 		.ascii	"gfx_setTextSize\000"
 8000      73657454 
 8000      65787453 
 8000      697A6500 
 8001              	.LASF1:
 8002 0499 5F5F7569 		.ascii	"__uint8_t\000"
 8002      6E74385F 
 8002      7400
 8003              	.LASF62:
 8004 04a3 6C626974 		.ascii	"lbit\000"
 8004      00
 8005              	.LASF67:
 8006 04a8 73746172 		.ascii	"start\000"
 8006      7400
 8007              	.LASF96:
 8008 04ae 6766785F 		.ascii	"gfx_print\000"
 8008      7072696E 
 8008      7400
 8009              	.LASF86:
 8010 04b8 79737465 		.ascii	"ystep\000"
 8010      7000
ARM GAS  C:\Users\jdrd3\AppData\Local\Temp\ccQ8iyfh.s 			page 158


 8011              	.LASF98:
 8012 04be 666F6E74 		.ascii	"font\000"
 8012      00
 8013              	.LASF24:
 8014 04c3 73697A65 		.ascii	"sizetype\000"
 8014      74797065 
 8014      00
 8015              	.LASF48:
 8016 04cc 636D6462 		.ascii	"cmdbuf\000"
 8016      756600
 8017              	.LASF9:
 8018 04d3 6C6F6E67 		.ascii	"long unsigned int\000"
 8018      20756E73 
 8018      69676E65 
 8018      6420696E 
 8018      7400
 8019              	.LASF26:
 8020 04e5 5343524F 		.ascii	"SCROLL_LEFT\000"
 8020      4C4C5F4C 
 8020      45465400 
 8021              	.LASF118:
 8022 04f1 64697370 		.ascii	"display_clear\000"
 8022      6C61795F 
 8022      636C6561 
 8022      7200
 8023              	.LASF113:
 8024 04ff 77726170 		.ascii	"wrap\000"
 8024      00
 8025              	.LASF60:
 8026 0504 70656E64 		.ascii	"pend\000"
 8026      00
 8027              	.LASF25:
 8028 0509 5343524F 		.ascii	"SCROLL_RIGHT\000"
 8028      4C4C5F52 
 8028      49474854 
 8028      00
 8029              	.LASF3:
 8030 0516 756E7369 		.ascii	"unsigned char\000"
 8030      676E6564 
 8030      20636861 
 8030      7200
 8031              	.LASF63:
 8032 0524 75626974 		.ascii	"ubit\000"
 8032      00
 8033              	.LASF94:
 8034 0529 6C696E65 		.ascii	"line\000"
 8034      00
 8035              	.LASF93:
 8036 052e 6766785F 		.ascii	"gfx_drawChar\000"
 8036      64726177 
 8036      43686172 
 8036      00
 8037              	.LASF66:
 8038 053b 64697370 		.ascii	"display_scroll\000"
 8038      6C61795F 
 8038      7363726F 
 8038      6C6C00
ARM GAS  C:\Users\jdrd3\AppData\Local\Temp\ccQ8iyfh.s 			page 159


 8039              	.LASF101:
 8040 054a 5F646973 		.ascii	"_displaybuf\000"
 8040      706C6179 
 8040      62756600 
 8041              	.LASF52:
 8042 0556 64697370 		.ascii	"display_contrast\000"
 8042      6C61795F 
 8042      636F6E74 
 8042      72617374 
 8042      00
 8043              	.LASF90:
 8044 0567 6464465F 		.ascii	"ddF_x\000"
 8044      7800
 8045              	.LASF91:
 8046 056d 6464465F 		.ascii	"ddF_y\000"
 8046      7900
 8047              	.LASF2:
 8048 0573 7369676E 		.ascii	"signed char\000"
 8048      65642063 
 8048      68617200 
 8049              	.LASF7:
 8050 057f 73686F72 		.ascii	"short unsigned int\000"
 8050      7420756E 
 8050      7369676E 
 8050      65642069 
 8050      6E7400
 8051              	.LASF65:
 8052 0592 64697370 		.ascii	"display_stopscroll\000"
 8052      6C61795F 
 8052      73746F70 
 8052      7363726F 
 8052      6C6C00
 8053              	.LASF17:
 8054 05a5 75696E74 		.ascii	"uint8\000"
 8054      3800
 8055              	.LASF21:
 8056 05ab 646F7562 		.ascii	"double\000"
 8056      6C6500
 8057              	.LASF107:
 8058 05b2 74657874 		.ascii	"textcolor\000"
 8058      636F6C6F 
 8058      7200
 8059              	.LASF108:
 8060 05bc 74657874 		.ascii	"textbgcolor\000"
 8060      6267636F 
 8060      6C6F7200 
 8061              	.LASF75:
 8062 05c8 6766785F 		.ascii	"gfx_setCursor\000"
 8062      73657443 
 8062      7572736F 
 8062      7200
 8063              	.LASF79:
 8064 05d6 6766785F 		.ascii	"gfx_setTextWrap\000"
 8064      73657454 
 8064      65787457 
 8064      72617000 
 8065              		.ident	"GCC: (GNU Tools for ARM Embedded Processors) 5.4.1 20160609 (release) [ARM/embedded-5-bran
ARM GAS  C:\Users\jdrd3\AppData\Local\Temp\ccQ8iyfh.s 			page 160


